(lp0
(lp1
I2
aI1
aI2
aI0
aI0
aa(lp2
I0
aI0
aI0
aI0
aI2
aa(lp3
I1
aI4
aI0
aI0
aI0
aa(lp4
I0
aI4
aI0
aI0
aI1
aa(lp5
I0
aI1
aI0
aI0
aI0
aa(lp6
I1
aI5
aI1
aI0
aI0
aa(lp7
I1
aI2
aI0
aI0
aI0
aa(lp8
I0
aI0
aI0
aI0
aI0
aa(lp9
I0
aI1
aI1
aI0
aI0
aa(lp10
I1
aI2
aI1
aI0
aI0
aa(lp11
I1
aI3
aI0
aI0
aI1
aa(lp12
I2
aI4
aI1
aI0
aI0
aa(lp13
I1
aI4
aI0
aI0
aI1
aa(lp14
I1
aI0
aI2
aI0
aI0
aa(lp15
I0
aI2
aI0
aI0
aI0
aa(lp16
I1
aI5
aI1
aI0
aI0
aa(lp17
I4
aI4
aI0
aI1
aI0
aa(lp18
I0
aI1
aI0
aI0
aI1
aa(lp19
I2
aI3
aI2
aI0
aI0
aa(lp20
I1
aI2
aI1
aI0
aI0
aa(lp21
I1
aI2
aI3
aI0
aI0
aa(lp22
I0
aI0
aI0
aI0
aI1
aa(lp23
I4
aI2
aI0
aI0
aI0
aa(lp24
I0
aI0
aI0
aI0
aI0
aa(lp25
I0
aI3
aI2
aI0
aI0
aa(lp26
I0
aI3
aI1
aI0
aI3
aa(lp27
I0
aI5
aI1
aI0
aI1
aa(lp28
I0
aI2
aI1
aI0
aI1
aa(lp29
I3
aI3
aI0
aI0
aI1
aa(lp30
I1
aI1
aI0
aI0
aI0
aa(lp31
I2
aI4
aI1
aI0
aI1
aa(lp32
I2
aI1
aI0
aI0
aI0
aa(lp33
I2
aI3
aI1
aI0
aI0
aa(lp34
I0
aI4
aI0
aI0
aI0
aa(lp35
I0
aI0
aI1
aI0
aI0
aa(lp36
I0
aI0
aI0
aI0
aI0
aa(lp37
I1
aI3
aI0
aI0
aI0
aa(lp38
I0
aI1
aI0
aI0
aI0
aa(lp39
I0
aI2
aI0
aI0
aI0
aa(lp40
I0
aI3
aI1
aI0
aI0
aa(lp41
I0
aI5
aI0
aI0
aI0
aa(lp42
I1
aI0
aI0
aI0
aI0
aa(lp43
I0
aI2
aI0
aI0
aI0
aa(lp44
I0
aI2
aI1
aI0
aI0
aa(lp45
I1
aI3
aI0
aI0
aI0
aa(lp46
I2
aI1
aI0
aI0
aI0
aa(lp47
I3
aI2
aI1
aI0
aI0
aa(lp48
I3
aI5
aI0
aI0
aI1
aa(lp49
I1
aI0
aI0
aI0
aI0
aa(lp50
I1
aI2
aI1
aI0
aI1
aa(lp51
I1
aI1
aI0
aI0
aI1
aa(lp52
I1
aI5
aI0
aI0
aI0
aa(lp53
I0
aI4
aI0
aI0
aI0
aa(lp54
I2
aI4
aI0
aI0
aI1
aa(lp55
I2
aI1
aI0
aI0
aI0
aa(lp56
I3
aI1
aI0
aI0
aI1
aa(lp57
I0
aI3
aI0
aI0
aI1
aa(lp58
I1
aI1
aI1
aI0
aI0
aa(lp59
I1
aI6
aI0
aI0
aI1
aa(lp60
I2
aI5
aI0
aI0
aI0
aa(lp61
I1
aI2
aI1
aI0
aI0
aa(lp62
I1
aI1
aI0
aI1
aI0
aa(lp63
I2
aI2
aI2
aI0
aI0
aa(lp64
I0
aI1
aI1
aI0
aI1
aa(lp65
I1
aI2
aI1
aI0
aI0
aa(lp66
I2
aI3
aI0
aI0
aI0
aa(lp67
I1
aI6
aI1
aI0
aI0
aa(lp68
I2
aI4
aI0
aI0
aI0
aa(lp69
I2
aI3
aI0
aI1
aI0
aa(lp70
I1
aI2
aI1
aI0
aI1
aa(lp71
I4
aI1
aI1
aI0
aI0
aa(lp72
I6
aI4
aI3
aI0
aI0
aa(lp73
I1
aI8
aI2
aI0
aI1
aa(lp74
I4
aI6
aI0
aI0
aI2
aa(lp75
I2
aI1
aI2
aI0
aI0
aa(lp76
I5
aI4
aI1
aI0
aI2
aa(lp77
I2
aI1
aI2
aI0
aI0
aa(lp78
I0
aI3
aI4
aI0
aI0
aa(lp79
I2
aI1
aI2
aI0
aI0
aa(lp80
I0
aI4
aI2
aI0
aI0
aa(lp81
I3
aI3
aI0
aI0
aI4
aa(lp82
I4
aI3
aI0
aI0
aI1
aa(lp83
I1
aI4
aI1
aI0
aI0
aa(lp84
I1
aI1
aI1
aI0
aI0
aa(lp85
I0
aI4
aI2
aI0
aI1
aa(lp86
I2
aI2
aI2
aI0
aI3
aa(lp87
I4
aI6
aI5
aI0
aI0
aa(lp88
I3
aI7
aI2
aI0
aI1
aa(lp89
I0
aI3
aI2
aI2
aI0
aa(lp90
I5
aI3
aI2
aI0
aI1
aa(lp91
I2
aI1
aI3
aI0
aI2
aa(lp92
I0
aI1
aI1
aI0
aI0
aa(lp93
I2
aI9
aI3
aI0
aI3
aa(lp94
I3
aI5
aI1
aI0
aI3
aa(lp95
I1
aI10
aI1
aI0
aI1
aa(lp96
I2
aI3
aI0
aI0
aI0
aa(lp97
I2
aI5
aI2
aI1
aI1
aa(lp98
I4
aI5
aI0
aI0
aI0
aa(lp99
I0
aI5
aI1
aI0
aI0
aa(lp100
I1
aI2
aI1
aI0
aI1
aa(lp101
I1
aI7
aI2
aI0
aI1
aa(lp102
I4
aI2
aI1
aI0
aI1
aa(lp103
I6
aI7
aI2
aI0
aI1
aa(lp104
I4
aI5
aI1
aI0
aI2
aa(lp105
I6
aI0
aI5
aI2
aI1
aa(lp106
I2
aI0
aI0
aI0
aI1
aa(lp107
I4
aI7
aI3
aI1
aI1
aa(lp108
I5
aI3
aI2
aI0
aI1
aa(lp109
I6
aI8
aI5
aI1
aI4
aa(lp110
I5
aI5
aI4
aI0
aI2
aa(lp111
I2
aI3
aI5
aI0
aI0
aa(lp112
I8
aI6
aI4
aI0
aI2
aa(lp113
I4
aI2
aI1
aI0
aI1
aa(lp114
I6
aI5
aI3
aI0
aI2
aa(lp115
I6
aI4
aI2
aI1
aI3
aa(lp116
I5
aI6
aI3
aI0
aI0
aa(lp117
I4
aI5
aI2
aI0
aI1
aa(lp118
I3
aI7
aI2
aI0
aI4
aa(lp119
I3
aI4
aI1
aI3
aI1
aa(lp120
I1
aI4
aI1
aI1
aI1
aa(lp121
I3
aI1
aI0
aI0
aI2
aa(lp122
I4
aI4
aI3
aI0
aI3
aa(lp123
I5
aI4
aI1
aI0
aI5
aa(lp124
I3
aI3
aI4
aI0
aI4
aa(lp125
I7
aI6
aI2
aI1
aI1
aa(lp126
I10
aI4
aI5
aI1
aI3
aa(lp127
I4
aI1
aI4
aI0
aI4
aa(lp128
I7
aI7
aI3
aI0
aI4
aa(lp129
I4
aI5
aI0
aI1
aI3
aa(lp130
I1
aI3
aI2
aI0
aI2
aa(lp131
I4
aI3
aI2
aI0
aI0
aa(lp132
I3
aI6
aI2
aI0
aI2
aa(lp133
I4
aI5
aI1
aI0
aI3
aa(lp134
I7
aI2
aI3
aI1
aI0
aa(lp135
I1
aI4
aI2
aI0
aI0
aa(lp136
I5
aI10
aI1
aI0
aI1
aa(lp137
I3
aI5
aI1
aI0
aI1
aa(lp138
I3
aI6
aI1
aI0
aI0
aa(lp139
I10
aI5
aI3
aI0
aI2
aa(lp140
I6
aI7
aI5
aI1
aI3
aa(lp141
I2
aI2
aI7
aI1
aI5
aa(lp142
I6
aI6
aI4
aI1
aI5
aa(lp143
I6
aI7
aI6
aI1
aI3
aa(lp144
I5
aI7
aI3
aI0
aI4
aa(lp145
I5
aI3
aI3
aI1
aI3
aa(lp146
I10
aI7
aI2
aI0
aI4
aa(lp147
I4
aI4
aI6
aI1
aI3
aa(lp148
I3
aI5
aI2
aI0
aI0
aa(lp149
I3
aI6
aI3
aI0
aI4
aa(lp150
I5
aI3
aI6
aI1
aI2
aa(lp151
I5
aI7
aI4
aI1
aI3
aa(lp152
I10
aI7
aI3
aI1
aI4
aa(lp153
I5
aI0
aI4
aI0
aI3
aa(lp154
I6
aI4
aI3
aI1
aI3
aa(lp155
I2
aI3
aI3
aI2
aI4
aa(lp156
I7
aI5
aI1
aI0
aI1
aa(lp157
I8
aI7
aI4
aI0
aI2
aa(lp158
I11
aI8
aI5
aI2
aI3
aa(lp159
I10
aI6
aI9
aI1
aI4
aa(lp160
I5
aI3
aI7
aI0
aI3
aa(lp161
I10
aI1
aI9
aI0
aI2
aa(lp162
I4
aI4
aI1
aI0
aI2
aa(lp163
I3
aI7
aI5
aI0
aI2
aa(lp164
I5
aI6
aI4
aI0
aI2
aa(lp165
I9
aI1
aI5
aI0
aI1
aa(lp166
I10
aI5
aI6
aI2
aI2
aa(lp167
I6
aI4
aI5
aI1
aI4
aa(lp168
I2
aI7
aI2
aI0
aI3
aa(lp169
I4
aI3
aI4
aI0
aI2
aa(lp170
I8
aI8
aI5
aI0
aI2
aa(lp171
I16
aI7
aI4
aI0
aI7
aa(lp172
I6
aI6
aI5
aI1
aI1
aa(lp173
I8
aI9
aI1
aI0
aI3
aa(lp174
I6
aI8
aI3
aI1
aI2
aa(lp175
I7
aI5
aI3
aI0
aI2
aa(lp176
I6
aI6
aI6
aI1
aI3
aa(lp177
I8
aI7
aI3
aI0
aI3
aa(lp178
I17
aI9
aI1
aI0
aI3
aa(lp179
I4
aI7
aI10
aI1
aI4
aa(lp180
I10
aI6
aI5
aI2
aI4
aa(lp181
I13
aI8
aI6
aI3
aI7
aa(lp182
I9
aI3
aI4
aI1
aI1
aa(lp183
I11
aI4
aI6
aI1
aI6
aa(lp184
I7
aI5
aI9
aI0
aI3
aa(lp185
I11
aI6
aI4
aI1
aI5
aa(lp186
I8
aI6
aI2
aI2
aI3
aa(lp187
I12
aI7
aI12
aI2
aI7
aa(lp188
I11
aI4
aI1
aI0
aI1
aa(lp189
I10
aI8
aI4
aI0
aI3
aa(lp190
I4
aI4
aI4
aI0
aI6
aa(lp191
I8
aI3
aI6
aI0
aI4
aa(lp192
I6
aI7
aI2
aI0
aI4
aa(lp193
I10
aI6
aI8
aI0
aI4
aa(lp194
I12
aI13
aI5
aI1
aI5
aa(lp195
I12
aI4
aI2
aI0
aI2
aa(lp196
I4
aI5
aI3
aI0
aI6
aa(lp197
I6
aI9
aI5
aI0
aI4
aa(lp198
I10
aI7
aI5
aI1
aI3
aa(lp199
I10
aI10
aI4
aI0
aI4
aa(lp200
I5
aI11
aI8
aI2
aI10
aa(lp201
I15
aI11
aI4
aI0
aI6
aa(lp202
I10
aI5
aI1
aI0
aI5
aa(lp203
I11
aI5
aI4
aI1
aI2
aa(lp204
I14
aI6
aI5
aI0
aI2
aa(lp205
I9
aI7
aI5
aI2
aI3
aa(lp206
I12
aI10
aI3
aI0
aI3
aa(lp207
I8
aI10
aI7
aI0
aI3
aa(lp208
I9
aI6
aI7
aI0
aI6
aa(lp209
I10
aI7
aI6
aI0
aI5
aa(lp210
I13
aI3
aI6
aI0
aI3
aa(lp211
I16
aI2
aI2
aI2
aI3
aa(lp212
I19
aI10
aI3
aI1
aI5
aa(lp213
I12
aI9
aI5
aI0
aI3
aa(lp214
I11
aI10
aI4
aI0
aI4
aa(lp215
I7
aI8
aI5
aI1
aI4
aa(lp216
I13
aI7
aI1
aI1
aI4
aa(lp217
I8
aI3
aI3
aI0
aI5
aa(lp218
I3
aI1
aI2
aI1
aI1
aa(lp219
I12
aI5
aI2
aI0
aI4
aa(lp220
I12
aI7
aI4
aI1
aI5
aa(lp221
I6
aI5
aI3
aI1
aI3
aa(lp222
I9
aI9
aI7
aI1
aI1
aa(lp223
I10
aI5
aI6
aI0
aI1
aa(lp224
I7
aI4
aI5
aI0
aI5
aa(lp225
I14
aI6
aI4
aI1
aI2
aa(lp226
I12
aI7
aI2
aI0
aI6
aa(lp227
I15
aI13
aI4
aI0
aI5
aa(lp228
I10
aI10
aI8
aI0
aI3
aa(lp229
I11
aI9
aI11
aI0
aI7
aa(lp230
I10
aI12
aI7
aI1
aI2
aa(lp231
I9
aI5
aI7
aI0
aI4
aa(lp232
I13
aI1
aI1
aI0
aI2
aa(lp233
I14
aI6
aI5
aI1
aI5
aa(lp234
I11
aI7
aI7
aI0
aI8
aa(lp235
I13
aI5
aI5
aI1
aI4
aa(lp236
I12
aI7
aI9
aI1
aI6
aa(lp237
I13
aI12
aI12
aI0
aI4
aa(lp238
I13
aI3
aI9
aI0
aI4
aa(lp239
I2
aI3
aI6
aI1
aI6
aa(lp240
I9
aI12
aI5
aI1
aI4
aa(lp241
I12
aI6
aI7
aI1
aI2
aa(lp242
I13
aI5
aI9
aI0
aI5
aa(lp243
I7
aI8
aI6
aI0
aI3
aa(lp244
I9
aI7
aI4
aI1
aI3
aa(lp245
I15
aI3
aI3
aI0
aI1
aa(lp246
I12
aI2
aI9
aI0
aI3
aa(lp247
I10
aI3
aI4
aI0
aI2
aa(lp248
I12
aI2
aI3
aI2
aI6
aa(lp249
I12
aI8
aI2
aI1
aI5
aa(lp250
I10
aI7
aI5
aI1
aI5
aa(lp251
I8
aI12
aI2
aI0
aI3
aa(lp252
I8
aI2
aI2
aI1
aI5
aa(lp253
I10
aI2
aI4
aI1
aI4
aa(lp254
I5
aI7
aI2
aI1
aI3
aa(lp255
I7
aI5
aI7
aI0
aI3
aa(lp256
I9
aI3
aI2
aI0
aI4
aa(lp257
I8
aI7
aI2
aI1
aI3
aa(lp258
I6
aI8
aI4
aI0
aI2
aa(lp259
I10
aI3
aI6
aI1
aI1
aa(lp260
I5
aI3
aI3
aI0
aI1
aa(lp261
I5
aI3
aI3
aI0
aI2
aa(lp262
I9
aI8
aI3
aI0
aI1
aa(lp263
I9
aI6
aI3
aI1
aI2
aa(lp264
I6
aI9
aI0
aI0
aI4
aa(lp265
I6
aI2
aI0
aI0
aI4
aa(lp266
I9
aI0
aI3
aI1
aI1
aa(lp267
I4
aI0
aI6
aI1
aI0
aa(lp268
I8
aI5
aI2
aI1
aI1
aa(lp269
I4
aI3
aI3
aI0
aI6
aa(lp270
I11
aI5
aI4
aI1
aI7
aa(lp271
I6
aI1
aI6
aI1
aI2
aa(lp272
I8
aI7
aI5
aI0
aI3
aa(lp273
I7
aI4
aI2
aI0
aI1
aa(lp274
I8
aI5
aI4
aI0
aI1
aa(lp275
I7
aI4
aI3
aI0
aI3
aa(lp276
I8
aI5
aI3
aI0
aI2
aa(lp277
I5
aI6
aI1
aI1
aI0
aa(lp278
I2
aI4
aI1
aI1
aI2
aa(lp279
I2
aI9
aI4
aI1
aI2
aa(lp280
I2
aI4
aI4
aI0
aI1
aa(lp281
I7
aI2
aI7
aI0
aI0
aa(lp282
I4
aI4
aI3
aI2
aI1
aa(lp283
I7
aI7
aI4
aI1
aI1
aa(lp284
I4
aI8
aI3
aI1
aI3
aa(lp285
I8
aI3
aI3
aI0
aI3
aa(lp286
I6
aI4
aI8
aI0
aI6
aa(lp287
I8
aI1
aI1
aI0
aI0
aa(lp288
I3
aI3
aI0
aI0
aI1
aa(lp289
I9
aI5
aI1
aI0
aI2
aa(lp290
I5
aI4
aI4
aI0
aI1
aa(lp291
I5
aI7
aI5
aI0
aI2
aa(lp292
I3
aI2
aI2
aI0
aI3
aa(lp293
I4
aI2
aI1
aI0
aI4
aa(lp294
I5
aI2
aI5
aI0
aI0
aa(lp295
I4
aI0
aI4
aI0
aI0
aa(lp296
I4
aI3
aI3
aI1
aI0
aa(lp297
I3
aI3
aI2
aI0
aI0
aa(lp298
I7
aI3
aI5
aI0
aI5
aa(lp299
I6
aI4
aI0
aI0
aI4
aa(lp300
I4
aI3
aI0
aI1
aI0
aa(lp301
I4
aI2
aI1
aI1
aI0
aa(lp302
I2
aI1
aI3
aI1
aI1
aa(lp303
I7
aI3
aI2
aI0
aI1
aa(lp304
I3
aI3
aI0
aI0
aI2
aa(lp305
I4
aI4
aI2
aI1
aI0
aa(lp306
I3
aI6
aI2
aI0
aI0
aa(lp307
I4
aI5
aI1
aI0
aI0
aa(lp308
I0
aI2
aI1
aI0
aI0
aa(lp309
I0
aI2
aI1
aI0
aI1
aa(lp310
I4
aI6
aI2
aI0
aI0
aa(lp311
I5
aI2
aI2
aI0
aI1
aa(lp312
I6
aI5
aI2
aI0
aI0
aa(lp313
I2
aI7
aI1
aI0
aI1
aa(lp314
I1
aI3
aI1
aI0
aI0
aa(lp315
I5
aI3
aI2
aI0
aI0
aa(lp316
I2
aI2
aI0
aI0
aI1
aa(lp317
I1
aI5
aI3
aI0
aI1
aa(lp318
I1
aI2
aI0
aI0
aI1
aa(lp319
I1
aI3
aI4
aI1
aI4
aa(lp320
I0
aI3
aI1
aI0
aI0
aa(lp321
I2
aI4
aI2
aI1
aI0
aa(lp322
I1
aI1
aI0
aI0
aI0
aa(lp323
I0
aI1
aI0
aI0
aI0
aa(lp324
I1
aI4
aI0
aI0
aI0
aa(lp325
I5
aI6
aI3
aI0
aI2
aa(lp326
I2
aI5
aI0
aI0
aI3
aa(lp327
I0
aI0
aI0
aI0
aI0
aa(lp328
I2
aI0
aI1
aI0
aI1
aa(lp329
I1
aI0
aI0
aI0
aI1
aa(lp330
I1
aI0
aI1
aI0
aI1
aa(lp331
I2
aI1
aI0
aI0
aI1
aa(lp332
I2
aI7
aI1
aI1
aI1
aa(lp333
I4
aI2
aI0
aI0
aI0
aa(lp334
I2
aI4
aI2
aI0
aI0
aa(lp335
I0
aI4
aI4
aI0
aI0
aa(lp336
I1
aI0
aI1
aI0
aI0
aa(lp337
I0
aI1
aI4
aI0
aI1
aa(lp338
I3
aI8
aI5
aI0
aI0
aa(lp339
I4
aI6
aI1
aI0
aI0
aa(lp340
I4
aI5
aI2
aI0
aI1
aa(lp341
I2
aI3
aI5
aI0
aI1
aa(lp342
I1
aI2
aI2
aI0
aI1
aa(lp343
I0
aI2
aI1
aI0
aI0
aa(lp344
I1
aI1
aI1
aI1
aI0
aa(lp345
I0
aI1
aI0
aI0
aI0
aa(lp346
I1
aI5
aI1
aI0
aI1
aa(lp347
I4
aI2
aI0
aI0
aI0
aa(lp348
I0
aI2
aI0
aI0
aI0
aa(lp349
I1
aI6
aI3
aI0
aI1
aa(lp350
I0
aI0
aI0
aI0
aI0
aa(lp351
I0
aI4
aI0
aI0
aI1
aa(lp352
I1
aI4
aI1
aI0
aI0
aa(lp353
I0
aI1
aI0
aI0
aI0
aa(lp354
I1
aI0
aI0
aI0
aI0
aa(lp355
I0
aI2
aI0
aI0
aI0
aa(lp356
I0
aI6
aI0
aI0
aI0
aa(lp357
I0
aI0
aI1
aI0
aI0
aa(lp358
I1
aI1
aI1
aI0
aI0
aa(lp359
I0
aI1
aI0
aI0
aI0
aa(lp360
I1
aI0
aI1
aI0
aI1
aa(lp361
I2
aI3
aI0
aI0
aI0
aa(lp362
I3
aI7
aI0
aI0
aI1
aa(lp363
I1
aI1
aI1
aI1
aI2
aa(lp364
I1
aI1
aI0
aI0
aI0
aa(lp365
I1
aI1
aI0
aI0
aI0
aa(lp366
I1
aI0
aI0
aI0
aI0
aa(lp367
I1
aI0
aI0
aI0
aI0
aa(lp368
I0
aI0
aI0
aI0
aI0
aa(lp369
I0
aI3
aI2
aI0
aI1
aa(lp370
I1
aI1
aI0
aI0
aI0
aa(lp371
I0
aI2
aI0
aI0
aI0
aa(lp372
I0
aI0
aI1
aI0
aI0
aa(lp373
I0
aI0
aI0
aI0
aI0
aa(lp374
I0
aI1
aI0
aI0
aI0
aa(lp375
I0
aI1
aI1
aI0
aI0
aa(lp376
I0
aI3
aI1
aI0
aI0
aa(lp377
I0
aI1
aI0
aI0
aI0
aa(lp378
I0
aI0
aI2
aI0
aI0
aa(lp379
I0
aI0
aI0
aI0
aI0
aa(lp380
I2
aI2
aI0
aI0
aI0
aa(lp381
I0
aI2
aI0
aI0
aI0
aa(lp382
I0
aI2
aI1
aI0
aI0
aa(lp383
I0
aI3
aI0
aI0
aI1
aa(lp384
I3
aI3
aI0
aI0
aI1
aa(lp385
I0
aI3
aI1
aI0
aI1
aa(lp386
I0
aI3
aI0
aI0
aI0
aa(lp387
I2
aI1
aI2
aI0
aI0
aa(lp388
I0
aI3
aI1
aI0
aI0
aa(lp389
I0
aI2
aI1
aI0
aI0
aa(lp390
I0
aI1
aI0
aI0
aI0
aa(lp391
I1
aI1
aI0
aI1
aI0
aa(lp392
I0
aI1
aI3
aI0
aI0
aa(lp393
I3
aI2
aI1
aI0
aI0
aa(lp394
I2
aI3
aI1
aI0
aI1
aa(lp395
I0
aI5
aI0
aI0
aI3
aa(lp396
I0
aI2
aI1
aI0
aI2
aa(lp397
I0
aI0
aI2
aI0
aI0
aa(lp398
I1
aI0
aI0
aI0
aI0
aa(lp399
I0
aI0
aI0
aI0
aI0
aa(lp400
I0
aI1
aI0
aI0
aI0
aa(lp401
I0
aI4
aI0
aI0
aI0
aa(lp402
I0
aI2
aI0
aI0
aI0
aa(lp403
I1
aI3
aI1
aI0
aI0
aa(lp404
I2
aI7
aI0
aI0
aI1
aa(lp405
I1
aI4
aI0
aI0
aI0
aa(lp406
I1
aI3
aI1
aI0
aI2
aa(lp407
I0
aI1
aI2
aI0
aI0
aa(lp408
I0
aI3
aI0
aI0
aI0
aa(lp409
I0
aI8
aI0
aI0
aI0
aa(lp410
I2
aI1
aI0
aI1
aI0
aa(lp411
I0
aI0
aI1
aI0
aI0
aa(lp412
I3
aI2
aI1
aI0
aI0
aa(lp413
I2
aI2
aI0
aI0
aI0
aa(lp414
I0
aI0
aI0
aI0
aI0
aa(lp415
I1
aI1
aI0
aI0
aI1
aa(lp416
I1
aI2
aI0
aI0
aI0
aa(lp417
I0
aI4
aI0
aI0
aI0
aa(lp418
I2
aI4
aI0
aI0
aI1
aa(lp419
I0
aI4
aI0
aI0
aI1
aa(lp420
I2
aI0
aI0
aI1
aI1
aa(lp421
I3
aI0
aI2
aI0
aI1
aa(lp422
I1
aI5
aI0
aI0
aI0
aa(lp423
I3
aI7
aI0
aI1
aI0
aa(lp424
I0
aI1
aI1
aI0
aI0
aa(lp425
I1
aI2
aI0
aI0
aI2
aa(lp426
I1
aI0
aI1
aI0
aI1
aa(lp427
I1
aI0
aI1
aI1
aI0
aa(lp428
I0
aI0
aI1
aI0
aI0
aa(lp429
I2
aI2
aI3
aI0
aI0
aa(lp430
I3
aI3
aI1
aI1
aI0
aa(lp431
I3
aI3
aI1
aI0
aI0
aa(lp432
I0
aI1
aI0
aI0
aI0
aa(lp433
I0
aI2
aI0
aI0
aI0
aa(lp434
I1
aI2
aI0
aI0
aI0
aa(lp435
I1
aI2
aI0
aI0
aI0
aa(lp436
I1
aI3
aI0
aI0
aI0
aa(lp437
I1
aI3
aI0
aI1
aI1
aa(lp438
I2
aI4
aI0
aI1
aI2
aa(lp439
I4
aI4
aI0
aI0
aI0
aa(lp440
I1
aI2
aI1
aI0
aI0
aa(lp441
I1
aI1
aI0
aI0
aI2
aa(lp442
I1
aI0
aI2
aI0
aI1
aa(lp443
I2
aI2
aI2
aI0
aI1
aa(lp444
I4
aI2
aI3
aI0
aI1
aa(lp445
I1
aI8
aI0
aI0
aI0
aa(lp446
I2
aI4
aI1
aI2
aI1
aa(lp447
I1
aI5
aI1
aI0
aI1
aa(lp448
I1
aI0
aI1
aI0
aI2
aa(lp449
I0
aI3
aI1
aI0
aI2
aa(lp450
I1
aI2
aI1
aI1
aI0
aa(lp451
I3
aI4
aI0
aI2
aI0
aa(lp452
I5
aI6
aI1
aI0
aI0
aa(lp453
I3
aI1
aI0
aI0
aI0
aa(lp454
I0
aI4
aI2
aI0
aI0
aa(lp455
I3
aI4
aI4
aI0
aI1
aa(lp456
I4
aI6
aI0
aI0
aI0
aa(lp457
I2
aI5
aI3
aI0
aI3
aa(lp458
I4
aI3
aI0
aI0
aI1
aa(lp459
I2
aI4
aI2
aI0
aI1
aa(lp460
I4
aI2
aI1
aI0
aI3
aa(lp461
I2
aI3
aI0
aI0
aI3
aa(lp462
I4
aI3
aI5
aI0
aI5
aa(lp463
I1
aI1
aI1
aI0
aI0
aa(lp464
I1
aI6
aI0
aI0
aI0
aa(lp465
I4
aI7
aI0
aI0
aI0
aa(lp466
I5
aI4
aI2
aI0
aI1
aa(lp467
I2
aI3
aI1
aI0
aI1
aa(lp468
I5
aI9
aI2
aI0
aI3
aa(lp469
I3
aI2
aI3
aI0
aI3
aa(lp470
I3
aI3
aI1
aI0
aI0
aa(lp471
I2
aI1
aI1
aI0
aI1
aa(lp472
I3
aI1
aI1
aI0
aI0
aa(lp473
I3
aI1
aI0
aI0
aI0
aa(lp474
I4
aI4
aI3
aI0
aI2
aa(lp475
I5
aI6
aI0
aI0
aI2
aa(lp476
I4
aI3
aI1
aI0
aI1
aa(lp477
I10
aI2
aI4
aI2
aI5
aa(lp478
I7
aI2
aI1
aI2
aI0
aa(lp479
I6
aI4
aI5
aI2
aI5
aa(lp480
I7
aI4
aI3
aI0
aI0
aa(lp481
I5
aI3
aI2
aI0
aI3
aa(lp482
I9
aI2
aI3
aI0
aI1
aa(lp483
I4
aI4
aI2
aI0
aI1
aa(lp484
I4
aI1
aI2
aI2
aI1
aa(lp485
I5
aI4
aI3
aI0
aI5
aa(lp486
I2
aI5
aI1
aI0
aI0
aa(lp487
I8
aI4
aI2
aI0
aI3
aa(lp488
I6
aI4
aI4
aI1
aI2
aa(lp489
I5
aI1
aI1
aI0
aI3
aa(lp490
I8
aI2
aI4
aI0
aI2
aa(lp491
I6
aI3
aI2
aI0
aI0
aa(lp492
I2
aI3
aI1
aI0
aI1
aa(lp493
I8
aI3
aI3
aI0
aI2
aa(lp494
I3
aI7
aI4
aI0
aI0
aa(lp495
I3
aI5
aI2
aI0
aI1
aa(lp496
I7
aI7
aI1
aI4
aI2
aa(lp497
I8
aI3
aI4
aI1
aI2
aa(lp498
I5
aI3
aI6
aI0
aI0
aa(lp499
I5
aI6
aI0
aI0
aI1
aa(lp500
I7
aI5
aI1
aI0
aI4
aa(lp501
I8
aI11
aI1
aI0
aI1
aa(lp502
I2
aI2
aI1
aI0
aI0
aa(lp503
I10
aI6
aI4
aI1
aI3
aa(lp504
I3
aI7
aI4
aI1
aI1
aa(lp505
I10
aI2
aI7
aI1
aI6
aa(lp506
I10
aI7
aI5
aI0
aI7
aa(lp507
I8
aI2
aI5
aI0
aI3
aa(lp508
I7
aI8
aI1
aI1
aI6
aa(lp509
I8
aI10
aI8
aI0
aI1
aa(lp510
I11
aI8
aI7
aI0
aI2
aa(lp511
I9
aI6
aI2
aI1
aI3
aa(lp512
I5
aI5
aI5
aI1
aI3
aa(lp513
I8
aI3
aI4
aI0
aI2
aa(lp514
I7
aI4
aI2
aI0
aI0
aa(lp515
I5
aI2
aI3
aI0
aI4
aa(lp516
I7
aI4
aI2
aI1
aI2
aa(lp517
I13
aI3
aI6
aI0
aI8
aa(lp518
I3
aI6
aI4
aI0
aI7
aa(lp519
I6
aI5
aI8
aI2
aI5
aa(lp520
I1
aI5
aI1
aI0
aI0
aa(lp521
I4
aI4
aI3
aI1
aI1
aa(lp522
I11
aI4
aI5
aI2
aI3
aa(lp523
I12
aI9
aI3
aI2
aI4
aa(lp524
I15
aI3
aI5
aI3
aI7
aa(lp525
I7
aI9
aI4
aI2
aI9
aa(lp526
I8
aI6
aI1
aI1
aI2
aa(lp527
I12
aI4
aI5
aI0
aI2
aa(lp528
I6
aI13
aI4
aI0
aI0
aa(lp529
I10
aI9
aI4
aI1
aI2
aa(lp530
I15
aI9
aI8
aI2
aI3
aa(lp531
I12
aI3
aI7
aI0
aI5
aa(lp532
I9
aI4
aI6
aI2
aI7
aa(lp533
I7
aI6
aI3
aI0
aI8
aa(lp534
I8
aI7
aI5
aI2
aI1
aa(lp535
I6
aI8
aI4
aI0
aI2
aa(lp536
I9
aI4
aI2
aI0
aI0
aa(lp537
I7
aI3
aI1
aI0
aI2
aa(lp538
I1
aI2
aI7
aI1
aI2
aa(lp539
I8
aI6
aI6
aI2
aI3
aa(lp540
I12
aI4
aI3
aI2
aI5
aa(lp541
I6
aI5
aI4
aI0
aI2
aa(lp542
I13
aI6
aI9
aI0
aI6
aa(lp543
I17
aI13
aI6
aI3
aI6
aa(lp544
I13
aI6
aI6
aI0
aI5
aa(lp545
I7
aI12
aI3
aI0
aI3
aa(lp546
I8
aI4
aI10
aI0
aI5
aa(lp547
I1
aI3
aI3
aI0
aI0
aa(lp548
I8
aI9
aI8
aI0
aI5
aa(lp549
I9
aI7
aI6
aI1
aI3
aa(lp550
I9
aI8
aI7
aI1
aI3
aa(lp551
I5
aI3
aI4
aI2
aI2
aa(lp552
I9
aI3
aI8
aI1
aI4
aa(lp553
I11
aI6
aI5
aI0
aI2
aa(lp554
I5
aI5
aI8
aI1
aI1
aa(lp555
I10
aI3
aI4
aI0
aI2
aa(lp556
I13
aI6
aI9
aI0
aI4
aa(lp557
I8
aI11
aI2
aI0
aI4
aa(lp558
I9
aI9
aI4
aI0
aI4
aa(lp559
I11
aI9
aI8
aI0
aI3
aa(lp560
I5
aI3
aI2
aI0
aI2
aa(lp561
I11
aI2
aI6
aI0
aI3
aa(lp562
I7
aI11
aI4
aI0
aI2
aa(lp563
I11
aI9
aI2
aI0
aI7
aa(lp564
I17
aI10
aI5
aI1
aI5
aa(lp565
I10
aI8
aI4
aI0
aI3
aa(lp566
I10
aI8
aI1
aI0
aI1
aa(lp567
I14
aI5
aI8
aI3
aI7
aa(lp568
I8
aI5
aI2
aI0
aI2
aa(lp569
I8
aI7
aI6
aI0
aI3
aa(lp570
I9
aI10
aI3
aI0
aI3
aa(lp571
I11
aI7
aI4
aI1
aI4
aa(lp572
I8
aI8
aI6
aI1
aI6
aa(lp573
I7
aI6
aI0
aI2
aI3
aa(lp574
I11
aI4
aI6
aI1
aI4
aa(lp575
I9
aI2
aI0
aI0
aI4
aa(lp576
I15
aI7
aI4
aI0
aI3
aa(lp577
I12
aI1
aI6
aI1
aI2
aa(lp578
I3
aI2
aI4
aI0
aI1
aa(lp579
I9
aI11
aI7
aI0
aI1
aa(lp580
I11
aI7
aI4
aI0
aI4
aa(lp581
I12
aI4
aI5
aI1
aI4
aa(lp582
I6
aI3
aI5
aI0
aI3
aa(lp583
I12
aI12
aI5
aI0
aI3
aa(lp584
I15
aI6
aI5
aI3
aI7
aa(lp585
I16
aI8
aI7
aI0
aI6
aa(lp586
I6
aI13
aI4
aI0
aI5
aa(lp587
I7
aI13
aI7
aI0
aI3
aa(lp588
I8
aI5
aI8
aI1
aI2
aa(lp589
I13
aI5
aI6
aI0
aI6
aa(lp590
I7
aI9
aI3
aI0
aI1
aa(lp591
I4
aI5
aI2
aI1
aI6
aa(lp592
I9
aI8
aI5
aI0
aI6
aa(lp593
I11
aI12
aI2
aI0
aI3
aa(lp594
I5
aI4
aI8
aI0
aI6
aa(lp595
I10
aI2
aI5
aI0
aI1
aa(lp596
I7
aI4
aI3
aI1
aI4
aa(lp597
I5
aI7
aI3
aI3
aI4
aa(lp598
I22
aI10
aI5
aI1
aI3
aa(lp599
I12
aI6
aI4
aI0
aI3
aa(lp600
I14
aI3
aI5
aI1
aI2
aa(lp601
I14
aI7
aI10
aI2
aI7
aa(lp602
I7
aI8
aI4
aI0
aI5
aa(lp603
I8
aI5
aI4
aI1
aI2
aa(lp604
I9
aI11
aI7
aI0
aI6
aa(lp605
I14
aI9
aI5
aI0
aI3
aa(lp606
I11
aI2
aI9
aI1
aI3
aa(lp607
I10
aI2
aI5
aI0
aI2
aa(lp608
I11
aI6
aI8
aI0
aI3
aa(lp609
I11
aI3
aI5
aI0
aI6
aa(lp610
I14
aI2
aI5
aI0
aI3
aa(lp611
I12
aI1
aI6
aI2
aI3
aa(lp612
I11
aI6
aI4
aI0
aI0
aa(lp613
I8
aI8
aI3
aI1
aI1
aa(lp614
I11
aI12
aI1
aI0
aI3
aa(lp615
I6
aI9
aI8
aI1
aI4
aa(lp616
I8
aI2
aI10
aI1
aI2
aa(lp617
I7
aI3
aI7
aI0
aI3
aa(lp618
I9
aI4
aI7
aI0
aI1
aa(lp619
I9
aI4
aI4
aI1
aI2
aa(lp620
I8
aI9
aI1
aI0
aI4
aa(lp621
I6
aI7
aI4
aI0
aI6
aa(lp622
I5
aI4
aI1
aI0
aI0
aa(lp623
I16
aI6
aI4
aI2
aI2
aa(lp624
I6
aI4
aI4
aI0
aI1
aa(lp625
I3
aI9
aI4
aI2
aI2
aa(lp626
I9
aI1
aI2
aI0
aI1
aa(lp627
I5
aI3
aI2
aI0
aI1
aa(lp628
I6
aI8
aI2
aI1
aI0
aa(lp629
I12
aI7
aI6
aI1
aI4
aa(lp630
I9
aI5
aI7
aI1
aI5
aa(lp631
I5
aI2
aI3
aI0
aI0
aa(lp632
I4
aI6
aI2
aI0
aI1
aa(lp633
I6
aI3
aI2
aI0
aI3
aa(lp634
I5
aI11
aI2
aI0
aI3
aa(lp635
I11
aI4
aI2
aI2
aI0
aa(lp636
I5
aI7
aI2
aI0
aI3
aa(lp637
I9
aI4
aI4
aI0
aI2
aa(lp638
I6
aI3
aI2
aI1
aI1
aa(lp639
I10
aI7
aI1
aI0
aI4
aa(lp640
I10
aI13
aI5
aI2
aI5
aa(lp641
I9
aI4
aI5
aI0
aI1
aa(lp642
I11
aI5
aI3
aI0
aI3
aa(lp643
I6
aI7
aI1
aI0
aI5
aa(lp644
I5
aI3
aI2
aI0
aI2
aa(lp645
I5
aI6
aI2
aI0
aI1
aa(lp646
I7
aI6
aI3
aI0
aI5
aa(lp647
I2
aI4
aI2
aI0
aI2
aa(lp648
I9
aI6
aI0
aI0
aI1
aa(lp649
I2
aI1
aI2
aI1
aI2
aa(lp650
I6
aI6
aI2
aI0
aI2
aa(lp651
I3
aI5
aI1
aI0
aI2
aa(lp652
I8
aI1
aI6
aI0
aI0
aa(lp653
I6
aI7
aI2
aI0
aI2
aa(lp654
I6
aI9
aI5
aI0
aI1
aa(lp655
I3
aI10
aI2
aI0
aI1
aa(lp656
I4
aI4
aI1
aI0
aI0
aa(lp657
I3
aI4
aI2
aI0
aI0
aa(lp658
I0
aI1
aI0
aI1
aI1
aa(lp659
I1
aI0
aI2
aI0
aI0
aa(lp660
I5
aI3
aI1
aI0
aI6
aa(lp661
I3
aI9
aI3
aI0
aI2
aa(lp662
I3
aI4
aI4
aI0
aI0
aa(lp663
I7
aI3
aI0
aI0
aI1
aa(lp664
I2
aI6
aI2
aI0
aI1
aa(lp665
I5
aI5
aI1
aI0
aI1
aa(lp666
I5
aI1
aI1
aI0
aI1
aa(lp667
I6
aI3
aI1
aI0
aI2
aa(lp668
I5
aI6
aI1
aI0
aI0
aa(lp669
I6
aI3
aI2
aI0
aI0
aa(lp670
I6
aI3
aI3
aI0
aI3
aa(lp671
I4
aI2
aI0
aI0
aI1
aa(lp672
I4
aI2
aI3
aI0
aI1
aa(lp673
I1
aI5
aI0
aI0
aI0
aa(lp674
I1
aI4
aI1
aI1
aI1
aa(lp675
I3
aI6
aI2
aI1
aI0
aa(lp676
I3
aI1
aI2
aI0
aI2
aa(lp677
I8
aI4
aI4
aI1
aI1
aa(lp678
I8
aI6
aI3
aI0
aI0
aa(lp679
I5
aI2
aI1
aI0
aI2
aa(lp680
I1
aI3
aI0
aI0
aI0
aa(lp681
I1
aI3
aI0
aI0
aI0
aa(lp682
I0
aI5
aI3
aI0
aI1
aa(lp683
I3
aI6
aI2
aI0
aI1
aa(lp684
I3
aI3
aI1
aI0
aI0
aa(lp685
I2
aI2
aI1
aI0
aI0
aa(lp686
I2
aI1
aI1
aI1
aI1
aa(lp687
I2
aI0
aI1
aI0
aI0
aa(lp688
I1
aI5
aI1
aI1
aI0
aa(lp689
I4
aI3
aI1
aI0
aI2
aa(lp690
I2
aI3
aI1
aI0
aI1
aa(lp691
I2
aI1
aI1
aI0
aI2
aa(lp692
I1
aI7
aI1
aI0
aI3
aa(lp693
I1
aI3
aI1
aI0
aI0
aa(lp694
I5
aI1
aI1
aI0
aI1
aa(lp695
I3
aI3
aI0
aI0
aI1
aa(lp696
I3
aI6
aI0
aI0
aI0
aa(lp697
I0
aI1
aI1
aI0
aI0
aa(lp698
I1
aI0
aI0
aI0
aI0
aa(lp699
I0
aI2
aI3
aI0
aI0
aa(lp700
I6
aI2
aI3
aI0
aI2
aa(lp701
I2
aI1
aI1
aI0
aI1
aa(lp702
I1
aI1
aI0
aI0
aI0
aa(lp703
I4
aI5
aI1
aI0
aI1
aa(lp704
I2
aI3
aI0
aI0
aI0
aa(lp705
I4
aI3
aI1
aI0
aI0
aa(lp706
I0
aI3
aI0
aI0
aI1
aa(lp707
I0
aI2
aI0
aI0
aI0
aa(lp708
I2
aI0
aI1
aI0
aI0
aa(lp709
I1
aI4
aI0
aI0
aI1
aa(lp710
I1
aI3
aI2
aI0
aI0
aa(lp711
I3
aI4
aI0
aI0
aI0
aa(lp712
I4
aI0
aI1
aI0
aI0
aa(lp713
I1
aI8
aI0
aI0
aI1
aa(lp714
I1
aI0
aI0
aI0
aI1
aa(lp715
I1
aI0
aI0
aI0
aI0
aa(lp716
I5
aI2
aI1
aI0
aI1
aa(lp717
I3
aI4
aI3
aI0
aI2
aa(lp718
I1
aI7
aI1
aI0
aI1
aa(lp719
I1
aI0
aI0
aI0
aI1
aa(lp720
I5
aI1
aI2
aI0
aI0
aa(lp721
I3
aI1
aI1
aI0
aI1
aa(lp722
I1
aI0
aI0
aI0
aI2
aa(lp723
I2
aI4
aI1
aI0
aI1
aa(lp724
I5
aI4
aI3
aI0
aI1
aa(lp725
I1
aI2
aI1
aI0
aI2
aa(lp726
I1
aI2
aI2
aI0
aI0
aa(lp727
I3
aI0
aI0
aI0
aI0
aa(lp728
I3
aI4
aI3
aI0
aI1
aa(lp729
I5
aI2
aI0
aI0
aI0
aa(lp730
I3
aI1
aI3
aI0
aI1
aa(lp731
I1
aI6
aI1
aI1
aI0
aa(lp732
I0
aI2
aI0
aI0
aI1
aa(lp733
I2
aI4
aI0
aI0
aI0
aa(lp734
I1
aI3
aI0
aI0
aI0
aa(lp735
I1
aI2
aI1
aI0
aI2
aa(lp736
I2
aI0
aI2
aI0
aI0
aa(lp737
I0
aI2
aI0
aI0
aI1
aa(lp738
I2
aI3
aI0
aI0
aI0
aa(lp739
I2
aI4
aI1
aI0
aI2
aa(lp740
I0
aI4
aI1
aI0
aI0
aa(lp741
I3
aI5
aI3
aI0
aI0
aa(lp742
I1
aI0
aI1
aI0
aI0
aa(lp743
I1
aI1
aI1
aI0
aI0
aa(lp744
I1
aI1
aI0
aI0
aI0
aa(lp745
I0
aI2
aI0
aI0
aI1
aa(lp746
I3
aI3
aI1
aI0
aI0
aa(lp747
I2
aI1
aI0
aI0
aI0
aa(lp748
I0
aI1
aI0
aI0
aI0
aa(lp749
I0
aI1
aI0
aI0
aI0
aa(lp750
I2
aI1
aI0
aI0
aI0
aa(lp751
I1
aI2
aI1
aI0
aI0
aa(lp752
I3
aI3
aI1
aI0
aI0
aa(lp753
I3
aI2
aI2
aI0
aI1
aa(lp754
I4
aI6
aI1
aI1
aI1
aa(lp755
I1
aI2
aI1
aI0
aI0
aa(lp756
I0
aI1
aI0
aI0
aI0
aa(lp757
I2
aI1
aI0
aI0
aI1
aa(lp758
I0
aI3
aI0
aI0
aI0
aa(lp759
I1
aI4
aI2
aI0
aI0
aa(lp760
I2
aI1
aI0
aI2
aI0
aa(lp761
I1
aI3
aI1
aI0
aI0
aa(lp762
I0
aI5
aI1
aI0
aI0
aa(lp763
I3
aI5
aI4
aI0
aI0
aa(lp764
I2
aI3
aI1
aI0
aI0
aa(lp765
I1
aI4
aI0
aI0
aI0
aa(lp766
I2
aI3
aI0
aI0
aI0
aa(lp767
I2
aI1
aI0
aI1
aI0
aa(lp768
I3
aI2
aI2
aI0
aI0
aa(lp769
I1
aI1
aI1
aI0
aI0
aa(lp770
I1
aI7
aI1
aI0
aI0
aa(lp771
I1
aI1
aI0
aI0
aI2
aa(lp772
I0
aI1
aI1
aI0
aI0
aa(lp773
I3
aI3
aI2
aI0
aI0
aa(lp774
I1
aI2
aI1
aI0
aI1
aa(lp775
I4
aI7
aI0
aI0
aI1
aa(lp776
I2
aI1
aI2
aI0
aI0
aa(lp777
I3
aI2
aI0
aI0
aI4
aa(lp778
I3
aI1
aI1
aI0
aI1
aa(lp779
I1
aI1
aI0
aI0
aI1
aa(lp780
I5
aI2
aI2
aI0
aI0
aa(lp781
I5
aI7
aI2
aI0
aI3
aa(lp782
I3
aI5
aI1
aI0
aI1
aa(lp783
I4
aI5
aI1
aI0
aI2
aa(lp784
I5
aI2
aI1
aI0
aI0
aa(lp785
I3
aI2
aI0
aI0
aI1
aa(lp786
I1
aI1
aI2
aI0
aI0
aa(lp787
I2
aI2
aI1
aI0
aI1
aa(lp788
I2
aI2
aI0
aI0
aI2
aa(lp789
I1
aI5
aI1
aI0
aI0
aa(lp790
I4
aI6
aI1
aI0
aI0
aa(lp791
I2
aI1
aI1
aI0
aI1
aa(lp792
I2
aI0
aI2
aI0
aI1
aa(lp793
I4
aI2
aI1
aI0
aI1
aa(lp794
I2
aI4
aI2
aI0
aI1
aa(lp795
I3
aI7
aI0
aI0
aI1
aa(lp796
I6
aI8
aI0
aI0
aI0
aa(lp797
I2
aI2
aI0
aI0
aI1
aa(lp798
I0
aI2
aI0
aI0
aI2
aa(lp799
I0
aI1
aI1
aI0
aI0
aa(lp800
I2
aI4
aI0
aI0
aI0
aa(lp801
I3
aI6
aI0
aI0
aI1
aa(lp802
I1
aI6
aI1
aI0
aI1
aa(lp803
I3
aI3
aI1
aI0
aI0
aa(lp804
I8
aI3
aI1
aI0
aI0
aa(lp805
I2
aI2
aI1
aI0
aI2
aa(lp806
I2
aI0
aI1
aI0
aI0
aa(lp807
I4
aI2
aI0
aI0
aI0
aa(lp808
I3
aI5
aI1
aI1
aI1
aa(lp809
I2
aI3
aI1
aI0
aI0
aa(lp810
I2
aI4
aI0
aI0
aI0
aa(lp811
I4
aI4
aI1
aI0
aI0
aa(lp812
I2
aI1
aI0
aI0
aI0
aa(lp813
I2
aI2
aI1
aI0
aI0
aa(lp814
I3
aI9
aI2
aI0
aI0
aa(lp815
I2
aI1
aI1
aI0
aI3
aa(lp816
I2
aI1
aI1
aI0
aI1
aa(lp817
I3
aI6
aI4
aI0
aI0
aa(lp818
I4
aI4
aI3
aI2
aI0
aa(lp819
I1
aI3
aI1
aI0
aI0
aa(lp820
I2
aI0
aI1
aI0
aI2
aa(lp821
I0
aI5
aI2
aI0
aI0
aa(lp822
I0
aI6
aI0
aI0
aI1
aa(lp823
I2
aI3
aI2
aI0
aI0
aa(lp824
I0
aI6
aI0
aI0
aI1
aa(lp825
I4
aI3
aI2
aI1
aI0
aa(lp826
I2
aI4
aI2
aI0
aI0
aa(lp827
I2
aI1
aI1
aI0
aI1
aa(lp828
I6
aI3
aI4
aI1
aI1
aa(lp829
I10
aI8
aI1
aI1
aI2
aa(lp830
I0
aI5
aI2
aI0
aI0
aa(lp831
I4
aI6
aI0
aI0
aI0
aa(lp832
I3
aI3
aI1
aI0
aI3
aa(lp833
I0
aI0
aI4
aI0
aI1
aa(lp834
I4
aI1
aI1
aI1
aI1
aa(lp835
I5
aI4
aI4
aI0
aI2
aa(lp836
I3
aI4
aI1
aI0
aI2
aa(lp837
I4
aI3
aI1
aI0
aI1
aa(lp838
I1
aI6
aI1
aI1
aI1
aa(lp839
I1
aI3
aI3
aI0
aI2
aa(lp840
I3
aI1
aI4
aI0
aI0
aa(lp841
I2
aI1
aI2
aI1
aI1
aa(lp842
I6
aI3
aI4
aI0
aI0
aa(lp843
I2
aI7
aI4
aI0
aI4
aa(lp844
I3
aI5
aI2
aI1
aI1
aa(lp845
I2
aI8
aI5
aI0
aI4
aa(lp846
I5
aI5
aI5
aI1
aI3
aa(lp847
I3
aI7
aI4
aI0
aI3
aa(lp848
I3
aI6
aI4
aI1
aI1
aa(lp849
I1
aI4
aI2
aI0
aI2
aa(lp850
I7
aI10
aI3
aI1
aI1
aa(lp851
I6
aI6
aI4
aI1
aI3
aa(lp852
I1
aI4
aI1
aI1
aI2
aa(lp853
I6
aI7
aI4
aI2
aI0
aa(lp854
I2
aI2
aI0
aI0
aI1
aa(lp855
I4
aI4
aI5
aI0
aI0
aa(lp856
I7
aI6
aI8
aI0
aI2
aa(lp857
I2
aI4
aI0
aI0
aI0
aa(lp858
I2
aI5
aI3
aI1
aI1
aa(lp859
I5
aI5
aI3
aI0
aI4
aa(lp860
I5
aI8
aI2
aI0
aI2
aa(lp861
I3
aI2
aI1
aI1
aI0
aa(lp862
I5
aI1
aI3
aI0
aI1
aa(lp863
I7
aI4
aI2
aI1
aI0
aa(lp864
I4
aI6
aI3
aI1
aI1
aa(lp865
I8
aI5
aI1
aI1
aI2
aa(lp866
I10
aI4
aI4
aI0
aI4
aa(lp867
I5
aI10
aI0
aI0
aI5
aa(lp868
I7
aI4
aI0
aI2
aI1
aa(lp869
I7
aI5
aI3
aI0
aI4
aa(lp870
I4
aI6
aI2
aI0
aI1
aa(lp871
I6
aI8
aI5
aI1
aI2
aa(lp872
I7
aI7
aI5
aI1
aI2
aa(lp873
I5
aI6
aI3
aI1
aI1
aa(lp874
I5
aI10
aI6
aI0
aI5
aa(lp875
I7
aI3
aI3
aI0
aI4
aa(lp876
I0
aI1
aI3
aI0
aI0
aa(lp877
I7
aI3
aI9
aI0
aI0
aa(lp878
I4
aI3
aI1
aI1
aI0
aa(lp879
I3
aI7
aI3
aI0
aI2
aa(lp880
I8
aI6
aI2
aI0
aI4
aa(lp881
I4
aI3
aI3
aI0
aI3
aa(lp882
I6
aI5
aI6
aI0
aI4
aa(lp883
I6
aI1
aI3
aI0
aI3
aa(lp884
I3
aI9
aI0
aI0
aI1
aa(lp885
I4
aI4
aI0
aI0
aI3
aa(lp886
I5
aI11
aI4
aI0
aI0
aa(lp887
I13
aI8
aI6
aI0
aI1
aa(lp888
I12
aI4
aI3
aI4
aI2
aa(lp889
I10
aI2
aI4
aI0
aI1
aa(lp890
I8
aI4
aI6
aI1
aI1
aa(lp891
I13
aI12
aI3
aI0
aI5
aa(lp892
I9
aI8
aI4
aI0
aI5
aa(lp893
I12
aI14
aI4
aI0
aI3
aa(lp894
I7
aI4
aI3
aI1
aI3
aa(lp895
I7
aI5
aI3
aI0
aI3
aa(lp896
I5
aI5
aI5
aI0
aI7
aa(lp897
I11
aI6
aI8
aI0
aI2
aa(lp898
I12
aI7
aI4
aI1
aI3
aa(lp899
I6
aI4
aI2
aI0
aI2
aa(lp900
I8
aI12
aI1
aI0
aI2
aa(lp901
I11
aI10
aI7
aI1
aI8
aa(lp902
I14
aI6
aI4
aI1
aI4
aa(lp903
I5
aI7
aI10
aI1
aI4
aa(lp904
I6
aI3
aI2
aI1
aI5
aa(lp905
I14
aI10
aI7
aI2
aI2
aa(lp906
I13
aI10
aI8
aI1
aI3
aa(lp907
I12
aI3
aI5
aI1
aI6
aa(lp908
I12
aI4
aI6
aI2
aI3
aa(lp909
I12
aI16
aI8
aI1
aI8
aa(lp910
I9
aI2
aI6
aI0
aI2
aa(lp911
I6
aI3
aI2
aI0
aI8
aa(lp912
I5
aI7
aI3
aI0
aI7
aa(lp913
I13
aI5
aI8
aI2
aI10
aa(lp914
I8
aI7
aI7
aI1
aI5
aa(lp915
I10
aI10
aI5
aI1
aI8
aa(lp916
I18
aI1
aI5
aI1
aI3
aa(lp917
I8
aI4
aI10
aI0
aI3
aa(lp918
I5
aI5
aI6
aI0
aI3
aa(lp919
I11
aI7
aI8
aI0
aI6
aa(lp920
I6
aI8
aI7
aI0
aI4
aa(lp921
I12
aI6
aI9
aI1
aI1
aa(lp922
I10
aI10
aI12
aI0
aI4
aa(lp923
I9
aI11
aI5
aI0
aI6
aa(lp924
I10
aI3
aI8
aI0
aI0
aa(lp925
I5
aI5
aI6
aI1
aI6
aa(lp926
I13
aI5
aI8
aI0
aI6
aa(lp927
I12
aI7
aI3
aI0
aI5
aa(lp928
I8
aI7
aI5
aI0
aI3
aa(lp929
I12
aI7
aI5
aI1
aI6
aa(lp930
I9
aI11
aI7
aI0
aI3
aa(lp931
I9
aI6
aI7
aI1
aI3
aa(lp932
I4
aI4
aI5
aI2
aI2
aa(lp933
I6
aI5
aI8
aI0
aI6
aa(lp934
I10
aI3
aI6
aI3
aI1
aa(lp935
I13
aI4
aI2
aI0
aI4
aa(lp936
I3
aI4
aI1
aI0
aI0
aa(lp937
I8
aI11
aI3
aI0
aI3
aa(lp938
I7
aI8
aI7
aI0
aI1
aa(lp939
I5
aI4
aI5
aI0
aI1
aa(lp940
I12
aI7
aI2
aI1
aI7
aa(lp941
I7
aI4
aI8
aI1
aI6
aa(lp942
I9
aI7
aI10
aI2
aI8
aa(lp943
I6
aI9
aI4
aI0
aI1
aa(lp944
I9
aI6
aI8
aI0
aI5
aa(lp945
I8
aI9
aI4
aI1
aI8
aa(lp946
I6
aI3
aI4
aI2
aI4
aa(lp947
I7
aI4
aI6
aI0
aI3
aa(lp948
I5
aI10
aI9
aI1
aI2
aa(lp949
I7
aI12
aI6
aI1
aI3
aa(lp950
I9
aI4
aI4
aI0
aI5
aa(lp951
I11
aI7
aI11
aI1
aI1
aa(lp952
I8
aI4
aI8
aI0
aI5
aa(lp953
I7
aI4
aI4
aI0
aI4
aa(lp954
I11
aI6
aI5
aI2
aI1
aa(lp955
I2
aI8
aI4
aI0
aI0
aa(lp956
I8
aI6
aI6
aI1
aI3
aa(lp957
I12
aI7
aI3
aI1
aI4
aa(lp958
I6
aI5
aI5
aI2
aI3
aa(lp959
I9
aI4
aI5
aI0
aI2
aa(lp960
I9
aI7
aI3
aI3
aI4
aa(lp961
I14
aI5
aI1
aI0
aI2
aa(lp962
I12
aI5
aI7
aI1
aI1
aa(lp963
I5
aI13
aI3
aI0
aI2
aa(lp964
I7
aI5
aI1
aI0
aI4
aa(lp965
I8
aI5
aI8
aI1
aI1
aa(lp966
I10
aI5
aI8
aI0
aI6
aa(lp967
I13
aI5
aI4
aI2
aI2
aa(lp968
I8
aI6
aI4
aI1
aI1
aa(lp969
I11
aI7
aI1
aI1
aI3
aa(lp970
I14
aI10
aI8
aI1
aI2
aa(lp971
I7
aI7
aI2
aI0
aI4
aa(lp972
I11
aI4
aI8
aI0
aI4
aa(lp973
I10
aI3
aI7
aI2
aI2
aa(lp974
I8
aI9
aI7
aI1
aI6
aa(lp975
I5
aI3
aI4
aI2
aI2
aa(lp976
I10
aI8
aI8
aI1
aI7
aa(lp977
I10
aI10
aI3
aI0
aI6
aa(lp978
I8
aI2
aI5
aI1
aI2
aa(lp979
I3
aI5
aI3
aI0
aI1
aa(lp980
I11
aI8
aI6
aI0
aI2
aa(lp981
I11
aI3
aI3
aI0
aI5
aa(lp982
I6
aI5
aI2
aI1
aI0
aa(lp983
I9
aI5
aI4
aI0
aI6
aa(lp984
I8
aI1
aI2
aI0
aI1
aa(lp985
I3
aI6
aI4
aI0
aI2
aa(lp986
I7
aI6
aI5
aI0
aI3
aa(lp987
I14
aI2
aI3
aI0
aI1
aa(lp988
I3
aI4
aI4
aI0
aI4
aa(lp989
I9
aI0
aI5
aI2
aI5
aa(lp990
I12
aI9
aI3
aI1
aI2
aa(lp991
I9
aI5
aI6
aI1
aI1
aa(lp992
I5
aI13
aI3
aI0
aI4
aa(lp993
I18
aI3
aI6
aI2
aI6
aa(lp994
I7
aI4
aI4
aI0
aI4
aa(lp995
I4
aI5
aI3
aI0
aI4
aa(lp996
I10
aI6
aI1
aI0
aI3
aa(lp997
I4
aI8
aI3
aI0
aI2
aa(lp998
I5
aI5
aI2
aI0
aI2
aa(lp999
I7
aI9
aI5
aI1
aI0
aa(lp1000
I10
aI10
aI5
aI1
aI4
aa(lp1001
I7
aI3
aI4
aI0
aI2
aa(lp1002
I3
aI2
aI6
aI0
aI2
aa(lp1003
I10
aI10
aI5
aI2
aI5
aa(lp1004
I5
aI7
aI1
aI0
aI4
aa(lp1005
I11
aI7
aI5
aI1
aI0
aa(lp1006
I9
aI7
aI4
aI1
aI1
aa(lp1007
I5
aI5
aI3
aI2
aI3
aa(lp1008
I3
aI4
aI1
aI0
aI3
aa(lp1009
I4
aI3
aI5
aI0
aI3
aa(lp1010
I7
aI5
aI5
aI0
aI1
aa(lp1011
I3
aI9
aI1
aI0
aI4
aa(lp1012
I5
aI6
aI4
aI3
aI2
aa(lp1013
I7
aI9
aI1
aI1
aI5
aa(lp1014
I9
aI8
aI4
aI3
aI2
aa(lp1015
I8
aI6
aI3
aI0
aI4
aa(lp1016
I9
aI1
aI2
aI1
aI1
aa(lp1017
I4
aI7
aI2
aI0
aI2
aa(lp1018
I6
aI5
aI2
aI0
aI5
aa(lp1019
I2
aI5
aI2
aI0
aI0
aa(lp1020
I0
aI3
aI2
aI0
aI1
aa(lp1021
I5
aI0
aI1
aI1
aI0
aa(lp1022
I7
aI2
aI4
aI0
aI2
aa(lp1023
I4
aI5
aI2
aI0
aI0
aa(lp1024
I6
aI5
aI3
aI1
aI3
aa(lp1025
I1
aI5
aI1
aI0
aI2
aa(lp1026
I5
aI5
aI2
aI0
aI2
aa(lp1027
I4
aI3
aI1
aI0
aI4
aa(lp1028
I5
aI10
aI3
aI1
aI1
aa(lp1029
I0
aI3
aI0
aI0
aI0
aa(lp1030
I2
aI4
aI1
aI0
aI2
aa(lp1031
I8
aI1
aI4
aI0
aI0
aa(lp1032
I7
aI6
aI1
aI0
aI1
aa(lp1033
I3
aI5
aI1
aI1
aI2
aa(lp1034
I4
aI8
aI2
aI0
aI0
aa(lp1035
I1
aI3
aI1
aI0
aI0
aa(lp1036
I2
aI4
aI0
aI0
aI0
aa(lp1037
I3
aI3
aI2
aI0
aI0
aa(lp1038
I3
aI6
aI0
aI0
aI1
aa(lp1039
I2
aI5
aI1
aI1
aI3
aa(lp1040
I0
aI7
aI3
aI0
aI2
aa(lp1041
I6
aI8
aI1
aI0
aI1
aa(lp1042
I2
aI2
aI3
aI0
aI3
aa(lp1043
I1
aI0
aI0
aI0
aI0
aa(lp1044
I2
aI0
aI1
aI0
aI0
aa(lp1045
I2
aI6
aI0
aI0
aI3
aa(lp1046
I2
aI4
aI0
aI0
aI1
aa(lp1047
I1
aI2
aI1
aI0
aI2
aa(lp1048
I2
aI4
aI0
aI0
aI0
aa(lp1049
I3
aI4
aI2
aI0
aI1
aa(lp1050
I0
aI3
aI1
aI0
aI1
aa(lp1051
I4
aI0
aI1
aI0
aI1
aa(lp1052
I2
aI3
aI0
aI0
aI1
aa(lp1053
I5
aI1
aI5
aI0
aI1
aa(lp1054
I4
aI3
aI1
aI0
aI0
aa(lp1055
I5
aI3
aI1
aI0
aI1
aa(lp1056
I4
aI3
aI1
aI2
aI1
aa(lp1057
I1
aI2
aI0
aI0
aI0
aa(lp1058
I3
aI2
aI0
aI0
aI0
aa(lp1059
I1
aI3
aI1
aI0
aI0
aa(lp1060
I3
aI6
aI0
aI0
aI1
aa(lp1061
I3
aI6
aI0
aI1
aI0
aa(lp1062
I3
aI2
aI1
aI0
aI0
aa(lp1063
I2
aI2
aI0
aI0
aI0
aa(lp1064
I2
aI0
aI1
aI0
aI1
aa(lp1065
I0
aI1
aI1
aI0
aI0
aa(lp1066
I2
aI1
aI0
aI0
aI0
aa(lp1067
I3
aI1
aI0
aI0
aI0
aa(lp1068
I2
aI3
aI0
aI0
aI1
aa(lp1069
I5
aI6
aI0
aI0
aI1
aa(lp1070
I1
aI6
aI1
aI0
aI0
aa(lp1071
I1
aI2
aI1
aI1
aI0
aa(lp1072
I0
aI0
aI2
aI1
aI0
aa(lp1073
I0
aI1
aI0
aI0
aI1
aa(lp1074
I2
aI3
aI3
aI1
aI3
aa(lp1075
I1
aI5
aI0
aI0
aI0
aa(lp1076
I4
aI6
aI1
aI0
aI0
aa(lp1077
I3
aI4
aI2
aI0
aI0
aa(lp1078
I4
aI2
aI2
aI0
aI0
aa(lp1079
I2
aI4
aI1
aI0
aI0
aa(lp1080
I1
aI2
aI0
aI0
aI0
aa(lp1081
I5
aI1
aI0
aI0
aI1
aa(lp1082
I3
aI3
aI1
aI0
aI2
aa(lp1083
I1
aI5
aI1
aI0
aI0
aa(lp1084
I2
aI4
aI0
aI0
aI0
aa(lp1085
I3
aI1
aI0
aI0
aI1
aa(lp1086
I3
aI0
aI2
aI0
aI0
aa(lp1087
I4
aI3
aI0
aI0
aI0
aa(lp1088
I2
aI3
aI0
aI0
aI0
aa(lp1089
I3
aI0
aI3
aI1
aI0
aa(lp1090
I1
aI2
aI0
aI0
aI0
aa(lp1091
I1
aI1
aI0
aI0
aI2
aa(lp1092
I0
aI3
aI0
aI0
aI1
aa(lp1093
I1
aI0
aI0
aI0
aI0
aa(lp1094
I2
aI5
aI0
aI1
aI0
aa(lp1095
I0
aI4
aI0
aI0
aI0
aa(lp1096
I0
aI1
aI0
aI0
aI0
aa(lp1097
I0
aI0
aI0
aI0
aI0
aa(lp1098
I2
aI1
aI2
aI1
aI0
aa(lp1099
I2
aI0
aI0
aI0
aI2
aa(lp1100
I1
aI2
aI1
aI0
aI1
aa(lp1101
I1
aI2
aI3
aI0
aI0
aa(lp1102
I3
aI5
aI1
aI0
aI0
aa(lp1103
I1
aI6
aI1
aI0
aI0
aa(lp1104
I0
aI7
aI3
aI0
aI0
aa(lp1105
I1
aI1
aI0
aI0
aI1
aa(lp1106
I3
aI2
aI0
aI0
aI1
aa(lp1107
I2
aI0
aI1
aI0
aI0
aa(lp1108
I2
aI5
aI0
aI1
aI0
aa(lp1109
I2
aI3
aI1
aI0
aI1
aa(lp1110
I4
aI3
aI0
aI0
aI0
aa(lp1111
I5
aI6
aI1
aI0
aI0
aa(lp1112
I1
aI1
aI0
aI0
aI0
aa(lp1113
I0
aI3
aI1
aI0
aI0
aa(lp1114
I2
aI1
aI0
aI0
aI0
aa(lp1115
I1
aI3
aI0
aI0
aI0
aa(lp1116
I1
aI6
aI1
aI0
aI0
aa(lp1117
I2
aI2
aI1
aI0
aI2
aa(lp1118
I5
aI3
aI1
aI0
aI0
aa(lp1119
I1
aI4
aI0
aI0
aI2
aa(lp1120
I2
aI2
aI6
aI0
aI0
aa(lp1121
I5
aI1
aI0
aI0
aI1
aa(lp1122
I3
aI3
aI1
aI0
aI0
aa(lp1123
I2
aI1
aI1
aI0
aI0
aa(lp1124
I1
aI3
aI1
aI0
aI0
aa(lp1125
I3
aI2
aI1
aI0
aI2
aa(lp1126
I2
aI3
aI1
aI0
aI0
aa(lp1127
I3
aI3
aI0
aI0
aI1
aa(lp1128
I3
aI0
aI1
aI0
aI0
aa(lp1129
I1
aI0
aI0
aI0
aI2
aa(lp1130
I2
aI2
aI1
aI0
aI1
aa(lp1131
I1
aI1
aI1
aI0
aI1
aa(lp1132
I1
aI1
aI2
aI0
aI0
aa(lp1133
I3
aI2
aI1
aI0
aI0
aa(lp1134
I5
aI2
aI0
aI0
aI1
aa(lp1135
I1
aI1
aI2
aI0
aI0
aa(lp1136
I3
aI2
aI1
aI1
aI1
aa(lp1137
I1
aI4
aI4
aI1
aI1
aa(lp1138
I4
aI4
aI0
aI0
aI0
aa(lp1139
I3
aI3
aI0
aI0
aI0
aa(lp1140
I1
aI2
aI1
aI1
aI0
aa(lp1141
I0
aI1
aI0
aI0
aI0
aa(lp1142
I2
aI2
aI1
aI0
aI0
aa(lp1143
I4
aI2
aI0
aI0
aI1
aa(lp1144
I4
aI5
aI0
aI0
aI1
aa(lp1145
I3
aI1
aI2
aI2
aI1
aa(lp1146
I3
aI3
aI1
aI0
aI1
aa(lp1147
I6
aI7
aI2
aI0
aI1
aa(lp1148
I2
aI4
aI1
aI0
aI1
aa(lp1149
I1
aI1
aI2
aI0
aI0
aa(lp1150
I0
aI1
aI0
aI0
aI0
aa(lp1151
I5
aI2
aI1
aI0
aI0
aa(lp1152
I2
aI0
aI0
aI0
aI1
aa(lp1153
I0
aI5
aI2
aI0
aI0
aa(lp1154
I1
aI7
aI3
aI0
aI1
aa(lp1155
I2
aI0
aI3
aI0
aI0
aa(lp1156
I1
aI2
aI3
aI0
aI0
aa(lp1157
I0
aI0
aI0
aI0
aI3
aa(lp1158
I3
aI1
aI0
aI0
aI1
aa(lp1159
I1
aI6
aI1
aI0
aI0
aa(lp1160
I1
aI7
aI3
aI0
aI0
aa(lp1161
I1
aI4
aI0
aI0
aI0
aa(lp1162
I1
aI2
aI1
aI0
aI2
aa(lp1163
I2
aI0
aI1
aI0
aI0
aa(lp1164
I1
aI2
aI0
aI0
aI0
aa(lp1165
I4
aI4
aI2
aI0
aI1
aa(lp1166
I1
aI3
aI0
aI0
aI1
aa(lp1167
I1
aI8
aI1
aI0
aI2
aa(lp1168
I0
aI6
aI1
aI0
aI2
aa(lp1169
I1
aI2
aI0
aI0
aI0
aa(lp1170
I2
aI1
aI0
aI0
aI0
aa(lp1171
I0
aI5
aI1
aI0
aI0
aa(lp1172
I5
aI5
aI0
aI0
aI1
aa(lp1173
I2
aI1
aI0
aI0
aI0
aa(lp1174
I1
aI1
aI0
aI0
aI0
aa(lp1175
I0
aI5
aI0
aI0
aI1
aa(lp1176
I1
aI1
aI1
aI0
aI0
aa(lp1177
I2
aI0
aI2
aI0
aI0
aa(lp1178
I2
aI2
aI2
aI0
aI0
aa(lp1179
I1
aI5
aI0
aI0
aI0
aa(lp1180
I3
aI7
aI1
aI0
aI1
aa(lp1181
I2
aI4
aI4
aI1
aI3
aa(lp1182
I3
aI4
aI1
aI0
aI1
aa(lp1183
I7
aI4
aI1
aI2
aI3
aa(lp1184
I5
aI0
aI4
aI1
aI2
aa(lp1185
I2
aI1
aI2
aI1
aI1
aa(lp1186
I5
aI4
aI3
aI0
aI2
aa(lp1187
I6
aI9
aI1
aI0
aI2
aa(lp1188
I1
aI7
aI3
aI0
aI2
aa(lp1189
I6
aI3
aI2
aI0
aI3
aa(lp1190
I2
aI4
aI1
aI0
aI0
aa(lp1191
I2
aI1
aI1
aI0
aI0
aa(lp1192
I6
aI6
aI2
aI0
aI1
aa(lp1193
I3
aI6
aI4
aI0
aI2
aa(lp1194
I5
aI5
aI3
aI0
aI2
aa(lp1195
I3
aI8
aI2
aI0
aI0
aa(lp1196
I4
aI2
aI5
aI1
aI3
aa(lp1197
I4
aI1
aI2
aI1
aI2
aa(lp1198
I5
aI2
aI1
aI0
aI0
aa(lp1199
I5
aI5
aI3
aI0
aI2
aa(lp1200
I2
aI9
aI2
aI0
aI0
aa(lp1201
I5
aI4
aI0
aI0
aI0
aa(lp1202
I2
aI6
aI1
aI0
aI2
aa(lp1203
I2
aI2
aI1
aI1
aI1
aa(lp1204
I6
aI6
aI1
aI0
aI3
aa(lp1205
I1
aI1
aI0
aI0
aI0
aa(lp1206
I5
aI7
aI3
aI0
aI0
aa(lp1207
I6
aI6
aI2
aI1
aI1
aa(lp1208
I4
aI5
aI2
aI1
aI3
aa(lp1209
I4
aI3
aI1
aI0
aI0
aa(lp1210
I3
aI7
aI1
aI1
aI2
aa(lp1211
I5
aI3
aI2
aI0
aI5
aa(lp1212
I1
aI4
aI1
aI0
aI0
aa(lp1213
I2
aI3
aI2
aI1
aI3
aa(lp1214
I4
aI6
aI4
aI0
aI5
aa(lp1215
I4
aI5
aI5
aI0
aI2
aa(lp1216
I3
aI6
aI4
aI1
aI1
aa(lp1217
I3
aI3
aI3
aI0
aI1
aa(lp1218
I2
aI1
aI2
aI0
aI2
aa(lp1219
I4
aI2
aI2
aI1
aI1
aa(lp1220
I2
aI2
aI1
aI0
aI1
aa(lp1221
I1
aI8
aI3
aI1
aI0
aa(lp1222
I3
aI4
aI0
aI0
aI0
aa(lp1223
I5
aI8
aI4
aI0
aI3
aa(lp1224
I4
aI5
aI2
aI0
aI2
aa(lp1225
I1
aI0
aI2
aI0
aI0
aa(lp1226
I0
aI0
aI1
aI0
aI1
aa(lp1227
I0
aI7
aI1
aI0
aI3
aa(lp1228
I8
aI2
aI6
aI2
aI3
aa(lp1229
I4
aI5
aI3
aI0
aI0
aa(lp1230
I4
aI7
aI0
aI0
aI0
aa(lp1231
I5
aI4
aI4
aI2
aI4
aa(lp1232
I6
aI0
aI4
aI1
aI2
aa(lp1233
I3
aI2
aI3
aI0
aI3
aa(lp1234
I8
aI6
aI4
aI0
aI2
aa(lp1235
I7
aI5
aI1
aI2
aI3
aa(lp1236
I5
aI9
aI2
aI0
aI3
aa(lp1237
I3
aI5
aI3
aI0
aI1
aa(lp1238
I5
aI11
aI5
aI1
aI2
aa(lp1239
I9
aI1
aI6
aI1
aI0
aa(lp1240
I8
aI2
aI2
aI0
aI4
aa(lp1241
I7
aI0
aI3
aI1
aI1
aa(lp1242
I3
aI7
aI3
aI0
aI5
aa(lp1243
I6
aI6
aI2
aI0
aI2
aa(lp1244
I9
aI4
aI4
aI0
aI2
aa(lp1245
I6
aI3
aI8
aI0
aI0
aa(lp1246
I6
aI1
aI6
aI0
aI2
aa(lp1247
I4
aI3
aI8
aI0
aI3
aa(lp1248
I6
aI6
aI4
aI1
aI3
aa(lp1249
I7
aI6
aI1
aI1
aI4
aa(lp1250
I6
aI5
aI3
aI0
aI1
aa(lp1251
I6
aI4
aI3
aI2
aI0
aa(lp1252
I8
aI5
aI6
aI0
aI5
aa(lp1253
I8
aI4
aI2
aI0
aI3
aa(lp1254
I7
aI2
aI3
aI1
aI0
aa(lp1255
I5
aI6
aI4
aI0
aI2
aa(lp1256
I4
aI3
aI6
aI0
aI3
aa(lp1257
I17
aI8
aI3
aI0
aI2
aa(lp1258
I5
aI1
aI6
aI1
aI1
aa(lp1259
I2
aI7
aI2
aI0
aI1
aa(lp1260
I3
aI4
aI4
aI0
aI0
aa(lp1261
I0
aI2
aI1
aI0
aI1
aa(lp1262
I4
aI2
aI2
aI1
aI2
aa(lp1263
I9
aI1
aI4
aI0
aI2
aa(lp1264
I5
aI12
aI1
aI0
aI3
aa(lp1265
I6
aI8
aI5
aI0
aI2
aa(lp1266
I9
aI7
aI7
aI1
aI7
aa(lp1267
I6
aI1
aI7
aI0
aI4
aa(lp1268
I9
aI4
aI4
aI0
aI4
aa(lp1269
I5
aI8
aI4
aI1
aI2
aa(lp1270
I3
aI3
aI1
aI0
aI3
aa(lp1271
I7
aI9
aI6
aI2
aI0
aa(lp1272
I13
aI8
aI4
aI1
aI4
aa(lp1273
I5
aI10
aI9
aI2
aI4
aa(lp1274
I11
aI2
aI5
aI0
aI8
aa(lp1275
I8
aI4
aI3
aI1
aI3
aa(lp1276
I6
aI9
aI2
aI0
aI2
aa(lp1277
I9
aI7
aI4
aI0
aI5
aa(lp1278
I12
aI9
aI7
aI1
aI3
aa(lp1279
I9
aI7
aI4
aI0
aI3
aa(lp1280
I16
aI2
aI4
aI0
aI4
aa(lp1281
I6
aI1
aI2
aI1
aI2
aa(lp1282
I3
aI4
aI4
aI0
aI1
aa(lp1283
I10
aI7
aI3
aI0
aI3
aa(lp1284
I6
aI5
aI2
aI0
aI1
aa(lp1285
I6
aI3
aI2
aI1
aI0
aa(lp1286
I15
aI4
aI6
aI0
aI5
aa(lp1287
I14
aI4
aI7
aI0
aI6
aa(lp1288
I12
aI3
aI2
aI1
aI2
aa(lp1289
I3
aI1
aI1
aI1
aI3
aa(lp1290
I5
aI4
aI3
aI0
aI4
aa(lp1291
I9
aI4
aI8
aI0
aI4
aa(lp1292
I9
aI6
aI7
aI0
aI1
aa(lp1293
I6
aI7
aI5
aI0
aI2
aa(lp1294
I6
aI5
aI9
aI1
aI3
aa(lp1295
I6
aI2
aI3
aI1
aI2
aa(lp1296
I6
aI0
aI4
aI0
aI6
aa(lp1297
I6
aI4
aI1
aI0
aI3
aa(lp1298
I8
aI6
aI5
aI0
aI2
aa(lp1299
I6
aI10
aI10
aI0
aI0
aa(lp1300
I12
aI6
aI2
aI0
aI5
aa(lp1301
I7
aI6
aI7
aI0
aI5
aa(lp1302
I8
aI4
aI4
aI3
aI2
aa(lp1303
I6
aI2
aI4
aI1
aI1
aa(lp1304
I11
aI7
aI3
aI0
aI2
aa(lp1305
I4
aI5
aI3
aI2
aI6
aa(lp1306
I8
aI9
aI4
aI0
aI4
aa(lp1307
I11
aI6
aI3
aI2
aI5
aa(lp1308
I7
aI2
aI1
aI0
aI2
aa(lp1309
I3
aI5
aI5
aI0
aI2
aa(lp1310
I9
aI4
aI4
aI1
aI1
aa(lp1311
I9
aI4
aI3
aI1
aI3
aa(lp1312
I4
aI6
aI3
aI1
aI2
aa(lp1313
I7
aI5
aI5
aI0
aI3
aa(lp1314
I6
aI11
aI6
aI1
aI3
aa(lp1315
I12
aI5
aI9
aI1
aI2
aa(lp1316
I11
aI3
aI3
aI0
aI3
aa(lp1317
I5
aI5
aI6
aI0
aI3
aa(lp1318
I8
aI8
aI6
aI0
aI1
aa(lp1319
I10
aI5
aI7
aI1
aI6
aa(lp1320
I9
aI7
aI8
aI1
aI2
aa(lp1321
I13
aI12
aI3
aI2
aI2
aa(lp1322
I9
aI9
aI3
aI2
aI2
aa(lp1323
I8
aI6
aI3
aI2
aI3
aa(lp1324
I7
aI1
aI2
aI1
aI1
aa(lp1325
I7
aI2
aI2
aI0
aI0
aa(lp1326
I8
aI9
aI3
aI1
aI5
aa(lp1327
I12
aI10
aI3
aI2
aI8
aa(lp1328
I10
aI5
aI5
aI2
aI4
aa(lp1329
I10
aI7
aI7
aI1
aI4
aa(lp1330
I13
aI4
aI1
aI0
aI2
aa(lp1331
I3
aI0
aI1
aI0
aI3
aa(lp1332
I12
aI8
aI7
aI0
aI5
aa(lp1333
I5
aI5
aI4
aI0
aI2
aa(lp1334
I4
aI7
aI3
aI2
aI3
aa(lp1335
I8
aI5
aI5
aI1
aI3
aa(lp1336
I13
aI9
aI7
aI0
aI4
aa(lp1337
I8
aI4
aI7
aI0
aI5
aa(lp1338
I6
aI7
aI3
aI0
aI2
aa(lp1339
I14
aI3
aI3
aI1
aI2
aa(lp1340
I8
aI10
aI6
aI0
aI3
aa(lp1341
I6
aI10
aI6
aI0
aI6
aa(lp1342
I10
aI6
aI3
aI0
aI3
aa(lp1343
I6
aI6
aI3
aI0
aI4
aa(lp1344
I13
aI4
aI2
aI0
aI5
aa(lp1345
I7
aI1
aI4
aI1
aI2
aa(lp1346
I3
aI0
aI5
aI0
aI1
aa(lp1347
I14
aI12
aI1
aI0
aI1
aa(lp1348
I10
aI4
aI1
aI1
aI0
aa(lp1349
I3
aI2
aI3
aI0
aI4
aa(lp1350
I3
aI5
aI4
aI1
aI1
aa(lp1351
I7
aI3
aI10
aI0
aI0
aa(lp1352
I9
aI0
aI5
aI1
aI1
aa(lp1353
I4
aI4
aI6
aI1
aI2
aa(lp1354
I4
aI3
aI2
aI1
aI1
aa(lp1355
I2
aI9
aI3
aI2
aI1
aa(lp1356
I3
aI4
aI4
aI0
aI3
aa(lp1357
I4
aI8
aI5
aI0
aI2
aa(lp1358
I11
aI0
aI3
aI1
aI4
aa(lp1359
I6
aI4
aI6
aI0
aI1
aa(lp1360
I7
aI7
aI7
aI3
aI0
aa(lp1361
I3
aI5
aI1
aI0
aI3
aa(lp1362
I6
aI2
aI3
aI0
aI3
aa(lp1363
I6
aI1
aI0
aI0
aI3
aa(lp1364
I4
aI3
aI3
aI0
aI0
aa(lp1365
I8
aI4
aI6
aI1
aI2
aa(lp1366
I9
aI5
aI6
aI1
aI1
aa(lp1367
I8
aI4
aI0
aI1
aI4
aa(lp1368
I4
aI7
aI1
aI1
aI2
aa(lp1369
I11
aI3
aI2
aI0
aI4
aa(lp1370
I6
aI6
aI9
aI1
aI1
aa(lp1371
I4
aI8
aI6
aI0
aI2
aa(lp1372
I4
aI4
aI3
aI0
aI1
aa(lp1373
I5
aI3
aI3
aI0
aI0
aa(lp1374
I7
aI5
aI2
aI0
aI2
aa(lp1375
I3
aI1
aI3
aI0
aI1
aa(lp1376
I4
aI2
aI2
aI0
aI0
aa(lp1377
I4
aI4
aI2
aI0
aI4
aa(lp1378
I2
aI10
aI3
aI1
aI0
aa(lp1379
I4
aI0
aI4
aI0
aI1
aa(lp1380
I3
aI3
aI3
aI0
aI2
aa(lp1381
I4
aI5
aI0
aI0
aI2
aa(lp1382
I2
aI3
aI0
aI0
aI0
aa(lp1383
I7
aI2
aI3
aI0
aI0
aa(lp1384
I2
aI3
aI1
aI0
aI1
aa(lp1385
I7
aI2
aI4
aI0
aI3
aa(lp1386
I6
aI2
aI1
aI0
aI1
aa(lp1387
I3
aI4
aI2
aI0
aI3
aa(lp1388
I6
aI4
aI2
aI0
aI3
aa(lp1389
I7
aI5
aI5
aI0
aI0
aa(lp1390
I4
aI1
aI0
aI1
aI2
aa(lp1391
I2
aI3
aI3
aI0
aI0
aa(lp1392
I9
aI7
aI0
aI1
aI6
aa(lp1393
I7
aI3
aI3
aI1
aI3
aa(lp1394
I4
aI2
aI1
aI0
aI0
aa(lp1395
I2
aI5
aI2
aI0
aI0
aa(lp1396
I3
aI1
aI0
aI0
aI4
aa(lp1397
I2
aI3
aI2
aI1
aI2
aa(lp1398
I3
aI0
aI2
aI1
aI2
aa(lp1399
I5
aI0
aI3
aI0
aI0
aa(lp1400
I6
aI4
aI2
aI1
aI1
aa(lp1401
I2
aI0
aI1
aI0
aI1
aa(lp1402
I5
aI2
aI2
aI1
aI2
aa(lp1403
I4
aI9
aI1
aI0
aI0
aa(lp1404
I3
aI3
aI2
aI0
aI0
aa(lp1405
I4
aI8
aI1
aI0
aI1
aa(lp1406
I3
aI3
aI1
aI0
aI0
aa(lp1407
I3
aI0
aI0
aI0
aI1
aa(lp1408
I1
aI2
aI2
aI0
aI2
aa(lp1409
I3
aI5
aI0
aI0
aI1
aa(lp1410
I3
aI5
aI3
aI0
aI0
aa(lp1411
I5
aI1
aI1
aI0
aI1
aa(lp1412
I3
aI4
aI1
aI1
aI2
aa(lp1413
I4
aI3
aI2
aI0
aI0
aa(lp1414
I0
aI0
aI4
aI0
aI0
aa(lp1415
I5
aI3
aI1
aI0
aI0
aa(lp1416
I2
aI4
aI1
aI0
aI1
aa(lp1417
I1
aI3
aI0
aI0
aI1
aa(lp1418
I1
aI4
aI2
aI0
aI1
aa(lp1419
I5
aI3
aI1
aI0
aI1
aa(lp1420
I2
aI6
aI0
aI0
aI2
aa(lp1421
I2
aI0
aI2
aI0
aI1
aa(lp1422
I0
aI1
aI1
aI0
aI0
aa(lp1423
I2
aI5
aI3
aI0
aI1
aa(lp1424
I3
aI2
aI1
aI0
aI3
aa(lp1425
I5
aI5
aI4
aI0
aI0
aa(lp1426
I2
aI1
aI2
aI0
aI1
aa(lp1427
I5
aI1
aI0
aI0
aI1
aa(lp1428
I1
aI3
aI1
aI0
aI0
aa(lp1429
I2
aI3
aI0
aI1
aI1
aa(lp1430
I5
aI1
aI0
aI0
aI0
aa(lp1431
I2
aI7
aI1
aI0
aI2
aa(lp1432
I6
aI5
aI0
aI0
aI1
aa(lp1433
I3
aI8
aI5
aI0
aI1
aa(lp1434
I3
aI6
aI2
aI0
aI0
aa(lp1435
I2
aI1
aI2
aI0
aI0
aa(lp1436
I3
aI2
aI0
aI0
aI0
aa(lp1437
I4
aI4
aI2
aI0
aI2
aa(lp1438
I1
aI3
aI1
aI0
aI1
aa(lp1439
I5
aI5
aI3
aI0
aI0
aa(lp1440
I2
aI4
aI1
aI0
aI0
aa(lp1441
I4
aI5
aI0
aI1
aI1
aa(lp1442
I3
aI4
aI1
aI0
aI0
aa(lp1443
I5
aI3
aI1
aI0
aI0
aa(lp1444
I5
aI3
aI2
aI0
aI0
aa(lp1445
I1
aI5
aI2
aI0
aI1
aa(lp1446
I3
aI2
aI0
aI0
aI0
aa(lp1447
I1
aI5
aI1
aI0
aI1
aa(lp1448
I9
aI3
aI0
aI0
aI1
aa(lp1449
I3
aI1
aI0
aI0
aI1
aa(lp1450
I1
aI1
aI0
aI0
aI0
aa(lp1451
I3
aI4
aI0
aI0
aI1
aa(lp1452
I2
aI3
aI0
aI0
aI2
aa(lp1453
I0
aI2
aI0
aI0
aI0
aa(lp1454
I0
aI2
aI0
aI0
aI0
aa(lp1455
I2
aI1
aI0
aI0
aI0
aa(lp1456
I2
aI1
aI0
aI0
aI0
aa(lp1457
I2
aI1
aI1
aI0
aI1
aa(lp1458
I1
aI3
aI0
aI0
aI1
aa(lp1459
I1
aI5
aI0
aI0
aI0
aa(lp1460
I0
aI5
aI0
aI0
aI1
aa(lp1461
I2
aI1
aI0
aI0
aI1
aa(lp1462
I0
aI1
aI0
aI0
aI0
aa(lp1463
I2
aI2
aI0
aI0
aI0
aa(lp1464
I0
aI2
aI0
aI0
aI0
aa(lp1465
I2
aI1
aI1
aI0
aI0
aa(lp1466
I0
aI1
aI1
aI1
aI0
aa(lp1467
I0
aI1
aI0
aI0
aI0
aa(lp1468
I3
aI2
aI1
aI0
aI2
aa(lp1469
I1
aI3
aI1
aI0
aI0
aa(lp1470
I1
aI0
aI1
aI0
aI0
aa(lp1471
I1
aI3
aI1
aI0
aI0
aa(lp1472
I0
aI1
aI0
aI0
aI1
aa(lp1473
I2
aI1
aI1
aI0
aI0
aa(lp1474
I0
aI8
aI1
aI0
aI0
aa(lp1475
I2
aI2
aI0
aI0
aI0
aa(lp1476
I1
aI1
aI0
aI0
aI0
aa(lp1477
I0
aI0
aI0
aI0
aI0
aa(lp1478
I1
aI0
aI2
aI1
aI0
aa(lp1479
I1
aI0
aI2
aI0
aI0
aa(lp1480
I0
aI2
aI0
aI0
aI0
aa(lp1481
I0
aI2
aI0
aI0
aI1
aa(lp1482
I0
aI3
aI1
aI0
aI2
aa(lp1483
I1
aI2
aI2
aI0
aI1
aa(lp1484
I0
aI1
aI0
aI0
aI0
aa(lp1485
I0
aI1
aI0
aI0
aI0
aa(lp1486
I2
aI2
aI3
aI0
aI0
aa(lp1487
I1
aI2
aI0
aI0
aI0
aa(lp1488
I4
aI8
aI1
aI0
aI0
aa(lp1489
I4
aI6
aI1
aI0
aI1
aa(lp1490
I1
aI2
aI3
aI0
aI1
aa(lp1491
I0
aI1
aI1
aI0
aI0
aa(lp1492
I0
aI1
aI0
aI0
aI0
aa(lp1493
I4
aI6
aI2
aI0
aI1
aa(lp1494
I0
aI0
aI0
aI0
aI1
aa(lp1495
I0
aI2
aI0
aI0
aI1
aa(lp1496
I1
aI4
aI0
aI0
aI0
aa(lp1497
I1
aI4
aI1
aI0
aI0
aa(lp1498
I1
aI1
aI1
aI0
aI0
aa(lp1499
I1
aI4
aI1
aI0
aI0
aa(lp1500
I0
aI3
aI2
aI0
aI0
aa(lp1501
I2
aI5
aI2
aI0
aI3
aa(lp1502
I4
aI2
aI0
aI1
aI0
aa(lp1503
I3
aI2
aI1
aI1
aI0
aa(lp1504
I2
aI5
aI2
aI0
aI1
aa(lp1505
I2
aI3
aI0
aI0
aI0
aa(lp1506
I2
aI2
aI0
aI0
aI0
aa(lp1507
I2
aI1
aI0
aI0
aI0
aa(lp1508
I1
aI0
aI2
aI0
aI1
aa(lp1509
I3
aI2
aI0
aI1
aI0
aa(lp1510
I2
aI3
aI0
aI0
aI0
aa(lp1511
I0
aI1
aI0
aI0
aI1
aa(lp1512
I3
aI2
aI0
aI0
aI0
aa(lp1513
I3
aI1
aI1
aI0
aI0
aa(lp1514
I1
aI2
aI0
aI0
aI0
aa(lp1515
I3
aI4
aI0
aI0
aI0
aa(lp1516
I1
aI0
aI0
aI0
aI0
aa(lp1517
I2
aI8
aI1
aI0
aI0
aa(lp1518
I3
aI2
aI2
aI0
aI0
aa(lp1519
I1
aI0
aI1
aI0
aI1
aa(lp1520
I1
aI1
aI0
aI0
aI0
aa(lp1521
I3
aI5
aI2
aI0
aI1
aa(lp1522
I1
aI5
aI2
aI0
aI0
aa(lp1523
I3
aI3
aI1
aI0
aI1
aa(lp1524
I1
aI5
aI0
aI0
aI1
aa(lp1525
I3
aI2
aI0
aI0
aI0
aa(lp1526
I2
aI3
aI2
aI0
aI0
aa(lp1527
I2
aI0
aI0
aI0
aI0
aa(lp1528
I0
aI5
aI1
aI0
aI0
aa(lp1529
I3
aI2
aI0
aI0
aI2
aa(lp1530
I0
aI3
aI2
aI0
aI0
aa(lp1531
I2
aI3
aI2
aI0
aI0
aa(lp1532
I0
aI3
aI0
aI0
aI0
aa(lp1533
I1
aI3
aI0
aI0
aI0
aa(lp1534
I1
aI1
aI1
aI1
aI0
aa(lp1535
I1
aI0
aI2
aI0
aI0
aa(lp1536
I1
aI5
aI0
aI0
aI1
aa(lp1537
I1
aI5
aI1
aI0
aI2
aa(lp1538
I0
aI3
aI3
aI0
aI4
aa(lp1539
I5
aI7
aI4
aI0
aI0
aa(lp1540
I1
aI1
aI3
aI0
aI0
aa(lp1541
I1
aI2
aI0
aI0
aI1
aa(lp1542
I3
aI3
aI0
aI0
aI0
aa(lp1543
I2
aI3
aI1
aI0
aI3
aa(lp1544
I5
aI5
aI1
aI0
aI1
aa(lp1545
I4
aI9
aI3
aI1
aI0
aa(lp1546
I3
aI1
aI0
aI0
aI1
aa(lp1547
I1
aI2
aI1
aI0
aI1
aa(lp1548
I2
aI1
aI2
aI0
aI0
aa(lp1549
I3
aI3
aI2
aI0
aI0
aa(lp1550
I4
aI10
aI1
aI0
aI1
aa(lp1551
I1
aI8
aI1
aI1
aI0
aa(lp1552
I2
aI4
aI1
aI0
aI2
aa(lp1553
I1
aI0
aI5
aI1
aI1
aa(lp1554
I1
aI0
aI0
aI0
aI0
aa(lp1555
I3
aI0
aI1
aI0
aI0
aa(lp1556
I4
aI9
aI1
aI0
aI1
aa(lp1557
I5
aI5
aI1
aI1
aI1
aa(lp1558
I4
aI7
aI6
aI2
aI1
aa(lp1559
I4
aI3
aI2
aI0
aI2
aa(lp1560
I1
aI5
aI2
aI0
aI1
aa(lp1561
I5
aI5
aI1
aI2
aI1
aa(lp1562
I1
aI2
aI1
aI1
aI0
aa(lp1563
I3
aI8
aI1
aI1
aI0
aa(lp1564
I1
aI8
aI3
aI0
aI1
aa(lp1565
I3
aI4
aI2
aI0
aI2
aa(lp1566
I3
aI4
aI2
aI1
aI1
aa(lp1567
I4
aI2
aI2
aI0
aI0
aa(lp1568
I1
aI2
aI2
aI0
aI2
aa(lp1569
I3
aI0
aI3
aI0
aI0
aa(lp1570
I0
aI4
aI1
aI0
aI0
aa(lp1571
I0
aI2
aI1
aI0
aI0
aa(lp1572
I5
aI8
aI2
aI1
aI0
aa(lp1573
I2
aI9
aI2
aI0
aI1
aa(lp1574
I2
aI1
aI0
aI0
aI1
aa(lp1575
I4
aI3
aI0
aI0
aI3
aa(lp1576
I4
aI3
aI2
aI0
aI1
aa(lp1577
I7
aI2
aI4
aI1
aI2
aa(lp1578
I3
aI8
aI2
aI0
aI2
aa(lp1579
I4
aI3
aI2
aI0
aI1
aa(lp1580
I5
aI5
aI1
aI0
aI3
aa(lp1581
I4
aI7
aI3
aI0
aI2
aa(lp1582
I7
aI2
aI4
aI2
aI0
aa(lp1583
I1
aI1
aI6
aI0
aI4
aa(lp1584
I8
aI2
aI0
aI0
aI0
aa(lp1585
I2
aI4
aI1
aI0
aI2
aa(lp1586
I2
aI5
aI3
aI1
aI4
aa(lp1587
I3
aI7
aI1
aI0
aI1
aa(lp1588
I4
aI4
aI2
aI2
aI0
aa(lp1589
I3
aI1
aI1
aI2
aI3
aa(lp1590
I4
aI0
aI3
aI0
aI1
aa(lp1591
I8
aI10
aI2
aI0
aI1
aa(lp1592
I5
aI3
aI5
aI0
aI1
aa(lp1593
I9
aI7
aI3
aI0
aI1
aa(lp1594
I4
aI1
aI2
aI0
aI2
aa(lp1595
I5
aI8
aI3
aI0
aI2
aa(lp1596
I7
aI1
aI1
aI1
aI0
aa(lp1597
I5
aI3
aI3
aI3
aI2
aa(lp1598
I5
aI8
aI4
aI0
aI2
aa(lp1599
I1
aI3
aI1
aI0
aI1
aa(lp1600
I4
aI2
aI3
aI0
aI1
aa(lp1601
I11
aI1
aI8
aI0
aI2
aa(lp1602
I10
aI6
aI4
aI1
aI3
aa(lp1603
I2
aI3
aI9
aI0
aI1
aa(lp1604
I2
aI3
aI2
aI0
aI0
aa(lp1605
I7
aI2
aI1
aI1
aI1
aa(lp1606
I7
aI5
aI2
aI0
aI2
aa(lp1607
I10
aI5
aI3
aI1
aI2
aa(lp1608
I6
aI3
aI3
aI0
aI1
aa(lp1609
I6
aI8
aI2
aI1
aI4
aa(lp1610
I7
aI5
aI6
aI0
aI5
aa(lp1611
I4
aI5
aI6
aI0
aI3
aa(lp1612
I15
aI4
aI7
aI1
aI2
aa(lp1613
I7
aI5
aI4
aI0
aI1
aa(lp1614
I4
aI7
aI5
aI0
aI3
aa(lp1615
I12
aI4
aI0
aI1
aI2
aa(lp1616
I10
aI11
aI4
aI2
aI0
aa(lp1617
I9
aI5
aI4
aI1
aI1
aa(lp1618
I5
aI3
aI4
aI0
aI0
aa(lp1619
I9
aI5
aI3
aI0
aI2
aa(lp1620
I10
aI5
aI4
aI0
aI3
aa(lp1621
I7
aI12
aI7
aI2
aI4
aa(lp1622
I5
aI7
aI4
aI0
aI2
aa(lp1623
I8
aI7
aI4
aI1
aI3
aa(lp1624
I5
aI1
aI3
aI0
aI1
aa(lp1625
I7
aI3
aI6
aI0
aI0
aa(lp1626
I5
aI3
aI7
aI0
aI5
aa(lp1627
I9
aI4
aI1
aI0
aI3
aa(lp1628
I7
aI7
aI4
aI0
aI2
aa(lp1629
I5
aI4
aI3
aI0
aI0
aa(lp1630
I9
aI6
aI2
aI2
aI5
aa(lp1631
I11
aI3
aI5
aI0
aI4
aa(lp1632
I4
aI3
aI4
aI0
aI1
aa(lp1633
I3
aI4
aI1
aI0
aI3
aa(lp1634
I9
aI3
aI6
aI0
aI3
aa(lp1635
I15
aI7
aI6
aI0
aI4
aa(lp1636
I8
aI7
aI7
aI0
aI2
aa(lp1637
I14
aI11
aI4
aI1
aI6
aa(lp1638
I7
aI1
aI7
aI1
aI0
aa(lp1639
I7
aI1
aI11
aI0
aI1
aa(lp1640
I7
aI4
aI8
aI0
aI3
aa(lp1641
I5
aI5
aI4
aI1
aI0
aa(lp1642
I8
aI2
aI8
aI0
aI4
aa(lp1643
I5
aI6
aI5
aI0
aI2
aa(lp1644
I10
aI6
aI7
aI1
aI5
aa(lp1645
I4
aI3
aI5
aI0
aI2
aa(lp1646
I6
aI0
aI4
aI0
aI1
aa(lp1647
I6
aI1
aI3
aI0
aI4
aa(lp1648
I9
aI4
aI4
aI0
aI4
aa(lp1649
I12
aI1
aI6
aI0
aI4
aa(lp1650
I6
aI4
aI2
aI0
aI3
aa(lp1651
I9
aI9
aI5
aI0
aI4
aa(lp1652
I10
aI4
aI3
aI1
aI2
aa(lp1653
I10
aI3
aI3
aI0
aI3
aa(lp1654
I4
aI3
aI5
aI1
aI3
aa(lp1655
I10
aI3
aI4
aI0
aI3
aa(lp1656
I7
aI4
aI5
aI0
aI1
aa(lp1657
I10
aI5
aI5
aI0
aI2
aa(lp1658
I16
aI9
aI2
aI0
aI6
aa(lp1659
I3
aI1
aI4
aI0
aI7
aa(lp1660
I5
aI4
aI4
aI0
aI0
aa(lp1661
I9
aI7
aI4
aI0
aI4
aa(lp1662
I10
aI10
aI0
aI0
aI6
aa(lp1663
I6
aI16
aI5
aI0
aI6
aa(lp1664
I6
aI3
aI3
aI0
aI8
aa(lp1665
I12
aI5
aI7
aI2
aI2
aa(lp1666
I9
aI3
aI5
aI0
aI5
aa(lp1667
I7
aI1
aI0
aI0
aI0
aa(lp1668
I5
aI4
aI5
aI0
aI1
aa(lp1669
I12
aI3
aI3
aI0
aI1
aa(lp1670
I10
aI4
aI2
aI1
aI4
aa(lp1671
I3
aI10
aI2
aI1
aI0
aa(lp1672
I10
aI5
aI6
aI0
aI9
aa(lp1673
I5
aI2
aI4
aI0
aI2
aa(lp1674
I6
aI3
aI6
aI0
aI2
aa(lp1675
I12
aI13
aI8
aI0
aI4
aa(lp1676
I9
aI3
aI4
aI0
aI0
aa(lp1677
I6
aI9
aI2
aI0
aI2
aa(lp1678
I10
aI8
aI4
aI1
aI2
aa(lp1679
I8
aI3
aI0
aI1
aI4
aa(lp1680
I12
aI4
aI2
aI0
aI1
aa(lp1681
I3
aI2
aI5
aI0
aI2
aa(lp1682
I13
aI6
aI6
aI2
aI3
aa(lp1683
I15
aI3
aI8
aI2
aI0
aa(lp1684
I7
aI8
aI3
aI0
aI0
aa(lp1685
I12
aI8
aI3
aI1
aI3
aa(lp1686
I1
aI9
aI1
aI0
aI2
aa(lp1687
I6
aI6
aI1
aI0
aI4
aa(lp1688
I6
aI2
aI6
aI0
aI1
aa(lp1689
I9
aI10
aI9
aI1
aI2
aa(lp1690
I5
aI3
aI2
aI0
aI4
aa(lp1691
I16
aI6
aI1
aI0
aI4
aa(lp1692
I8
aI6
aI5
aI0
aI3
aa(lp1693
I7
aI7
aI0
aI0
aI3
aa(lp1694
I9
aI2
aI5
aI1
aI4
aa(lp1695
I1
aI1
aI2
aI0
aI3
aa(lp1696
I8
aI7
aI1
aI0
aI6
aa(lp1697
I5
aI8
aI9
aI0
aI6
aa(lp1698
I7
aI7
aI2
aI1
aI4
aa(lp1699
I2
aI2
aI1
aI1
aI0
aa(lp1700
I12
aI15
aI6
aI0
aI0
aa(lp1701
I13
aI5
aI2
aI0
aI1
aa(lp1702
I10
aI5
aI10
aI0
aI5
aa(lp1703
I11
aI1
aI7
aI0
aI3
aa(lp1704
I11
aI4
aI4
aI1
aI2
aa(lp1705
I3
aI1
aI5
aI2
aI2
aa(lp1706
I6
aI2
aI5
aI0
aI3
aa(lp1707
I6
aI5
aI7
aI0
aI1
aa(lp1708
I7
aI7
aI3
aI0
aI1
aa(lp1709
I7
aI0
aI6
aI0
aI0
aa(lp1710
I5
aI3
aI4
aI0
aI2
aa(lp1711
I6
aI4
aI2
aI0
aI3
aa(lp1712
I7
aI11
aI5
aI1
aI2
aa(lp1713
I9
aI5
aI3
aI1
aI5
aa(lp1714
I6
aI2
aI4
aI0
aI2
aa(lp1715
I5
aI4
aI5
aI1
aI5
aa(lp1716
I6
aI1
aI4
aI0
aI3
aa(lp1717
I7
aI7
aI2
aI1
aI2
aa(lp1718
I2
aI4
aI5
aI0
aI1
aa(lp1719
I10
aI6
aI1
aI0
aI0
aa(lp1720
I4
aI3
aI1
aI0
aI0
aa(lp1721
I6
aI7
aI3
aI0
aI1
aa(lp1722
I6
aI3
aI2
aI1
aI2
aa(lp1723
I4
aI2
aI6
aI1
aI1
aa(lp1724
I8
aI1
aI6
aI1
aI2
aa(lp1725
I0
aI7
aI1
aI0
aI0
aa(lp1726
I4
aI3
aI1
aI0
aI0
aa(lp1727
I8
aI4
aI1
aI1
aI1
aa(lp1728
I4
aI9
aI5
aI0
aI1
aa(lp1729
I5
aI4
aI1
aI2
aI1
aa(lp1730
I4
aI2
aI2
aI1
aI0
aa(lp1731
I5
aI3
aI4
aI2
aI0
aa(lp1732
I3
aI6
aI4
aI1
aI0
aa(lp1733
I2
aI4
aI4
aI1
aI1
aa(lp1734
I6
aI9
aI1
aI0
aI2
aa(lp1735
I5
aI7
aI2
aI1
aI1
aa(lp1736
I6
aI3
aI5
aI1
aI3
aa(lp1737
I8
aI1
aI3
aI0
aI1
aa(lp1738
I2
aI6
aI1
aI3
aI1
aa(lp1739
I2
aI1
aI1
aI0
aI0
aa(lp1740
I1
aI8
aI2
aI0
aI2
aa(lp1741
I5
aI8
aI1
aI0
aI0
aa(lp1742
I6
aI9
aI2
aI0
aI1
aa(lp1743
I5
aI1
aI2
aI0
aI2
aa(lp1744
I3
aI1
aI2
aI0
aI0
aa(lp1745
I6
aI4
aI2
aI1
aI2
aa(lp1746
I3
aI4
aI4
aI0
aI2
aa(lp1747
I1
aI7
aI4
aI1
aI0
aa(lp1748
I2
aI6
aI4
aI0
aI1
aa(lp1749
I7
aI8
aI3
aI1
aI2
aa(lp1750
I9
aI6
aI6
aI0
aI1
aa(lp1751
I5
aI7
aI2
aI0
aI0
aa(lp1752
I8
aI5
aI0
aI1
aI0
aa(lp1753
I4
aI2
aI1
aI0
aI1
aa(lp1754
I1
aI1
aI4
aI0
aI0
aa(lp1755
I5
aI3
aI3
aI0
aI0
aa(lp1756
I3
aI4
aI1
aI1
aI0
aa(lp1757
I0
aI2
aI2
aI0
aI2
aa(lp1758
I3
aI3
aI1
aI0
aI0
aa(lp1759
I1
aI1
aI0
aI0
aI1
aa(lp1760
I4
aI6
aI3
aI0
aI2
aa(lp1761
I3
aI12
aI0
aI1
aI1
aa(lp1762
I6
aI5
aI2
aI0
aI0
aa(lp1763
I6
aI3
aI4
aI0
aI0
aa(lp1764
I3
aI4
aI4
aI0
aI2
aa(lp1765
I3
aI1
aI0
aI0
aI0
aa(lp1766
I4
aI7
aI2
aI1
aI1
aa(lp1767
I5
aI1
aI1
aI0
aI2
aa(lp1768
I4
aI3
aI1
aI1
aI1
aa(lp1769
I6
aI3
aI0
aI0
aI0
aa(lp1770
I4
aI4
aI3
aI0
aI0
aa(lp1771
I6
aI4
aI0
aI0
aI0
aa(lp1772
I1
aI3
aI2
aI1
aI1
aa(lp1773
I5
aI8
aI3
aI0
aI0
aa(lp1774
I3
aI6
aI2
aI0
aI2
aa(lp1775
I0
aI4
aI3
aI0
aI1
aa(lp1776
I2
aI3
aI1
aI0
aI2
aa(lp1777
I1
aI6
aI1
aI0
aI0
aa(lp1778
I4
aI1
aI1
aI0
aI1
aa(lp1779
I1
aI1
aI2
aI0
aI1
aa(lp1780
I2
aI6
aI0
aI1
aI0
aa(lp1781
I6
aI3
aI1
aI0
aI2
aa(lp1782
I5
aI1
aI2
aI0
aI0
aa(lp1783
I2
aI2
aI4
aI1
aI0
aa(lp1784
I2
aI3
aI1
aI0
aI2
aa(lp1785
I1
aI3
aI2
aI0
aI2
aa(lp1786
I6
aI2
aI2
aI1
aI1
aa(lp1787
I4
aI5
aI2
aI0
aI1
aa(lp1788
I5
aI3
aI1
aI1
aI2
aa(lp1789
I2
aI6
aI3
aI0
aI1
aa(lp1790
I1
aI0
aI1
aI0
aI1
aa(lp1791
I1
aI2
aI4
aI0
aI2
aa(lp1792
I3
aI4
aI0
aI0
aI0
aa(lp1793
I3
aI4
aI0
aI1
aI0
aa(lp1794
I3
aI3
aI0
aI0
aI1
aa(lp1795
I1
aI3
aI1
aI1
aI0
aa(lp1796
I1
aI1
aI1
aI0
aI0
aa(lp1797
I2
aI5
aI0
aI0
aI0
aa(lp1798
I4
aI4
aI1
aI0
aI0
aa(lp1799
I2
aI4
aI2
aI1
aI0
aa(lp1800
I5
aI1
aI0
aI0
aI0
aa(lp1801
I1
aI0
aI1
aI0
aI1
aa(lp1802
I4
aI2
aI0
aI0
aI1
aa(lp1803
I1
aI8
aI3
aI0
aI1
aa(lp1804
I1
aI3
aI2
aI0
aI2
aa(lp1805
I5
aI3
aI1
aI0
aI0
aa(lp1806
I6
aI1
aI3
aI0
aI1
aa(lp1807
I2
aI1
aI2
aI0
aI0
aa(lp1808
I2
aI4
aI1
aI0
aI1
aa(lp1809
I2
aI9
aI1
aI0
aI0
aa(lp1810
I2
aI6
aI1
aI0
aI1
aa(lp1811
I4
aI4
aI0
aI0
aI0
aa(lp1812
I2
aI3
aI3
aI0
aI1
aa(lp1813
I3
aI2
aI0
aI1
aI0
aa(lp1814
I2
aI1
aI1
aI0
aI1
aa(lp1815
I2
aI1
aI0
aI1
aI0
aa(lp1816
I1
aI3
aI1
aI0
aI1
aa(lp1817
I1
aI4
aI1
aI0
aI1
aa(lp1818
I3
aI2
aI1
aI0
aI0
aa(lp1819
I1
aI2
aI0
aI0
aI1
aa(lp1820
I2
aI0
aI1
aI0
aI0
aa(lp1821
I1
aI3
aI0
aI0
aI2
aa(lp1822
I3
aI2
aI0
aI0
aI1
aa(lp1823
I0
aI2
aI0
aI0
aI0
aa(lp1824
I2
aI0
aI0
aI0
aI0
aa(lp1825
I2
aI1
aI1
aI0
aI0
aa(lp1826
I0
aI1
aI0
aI0
aI1
aa(lp1827
I2
aI0
aI1
aI0
aI1
aa(lp1828
I0
aI3
aI1
aI0
aI1
aa(lp1829
I4
aI2
aI2
aI0
aI1
aa(lp1830
I1
aI4
aI1
aI0
aI0
aa(lp1831
I5
aI2
aI2
aI0
aI0
aa(lp1832
I1
aI1
aI0
aI0
aI0
aa(lp1833
I2
aI2
aI3
aI0
aI3
aa(lp1834
I2
aI1
aI2
aI0
aI1
aa(lp1835
I0
aI0
aI0
aI0
aI0
aa(lp1836
I1
aI2
aI1
aI0
aI2
aa(lp1837
I2
aI7
aI2
aI0
aI1
aa(lp1838
I2
aI1
aI1
aI0
aI0
aa(lp1839
I1
aI5
aI0
aI0
aI1
aa(lp1840
I3
aI5
aI0
aI0
aI0
aa(lp1841
I1
aI0
aI1
aI0
aI1
aa(lp1842
I1
aI1
aI1
aI0
aI1
aa(lp1843
I0
aI1
aI1
aI0
aI0
aa(lp1844
I2
aI1
aI1
aI0
aI0
aa(lp1845
I4
aI0
aI0
aI0
aI0
aa(lp1846
I1
aI1
aI0
aI0
aI0
aa(lp1847
I2
aI3
aI1
aI0
aI0
aa(lp1848
I0
aI2
aI1
aI0
aI2
aa(lp1849
I2
aI1
aI1
aI0
aI0
aa(lp1850
I2
aI2
aI1
aI0
aI0
aa(lp1851
I0
aI0
aI0
aI0
aI0
aa(lp1852
I1
aI1
aI0
aI0
aI0
aa(lp1853
I0
aI3
aI0
aI0
aI1
aa(lp1854
I0
aI0
aI1
aI0
aI0
aa(lp1855
I0
aI3
aI0
aI0
aI1
aa(lp1856
I0
aI1
aI0
aI0
aI0
aa(lp1857
I0
aI1
aI1
aI0
aI1
aa(lp1858
I1
aI2
aI0
aI0
aI0
aa(lp1859
I0
aI2
aI0
aI0
aI0
aa(lp1860
I1
aI3
aI2
aI0
aI1
aa(lp1861
I2
aI1
aI0
aI0
aI1
aa(lp1862
I1
aI1
aI2
aI0
aI0
aa(lp1863
I1
aI1
aI0
aI0
aI0
aa(lp1864
I0
aI0
aI0
aI0
aI0
aa(lp1865
I1
aI3
aI0
aI0
aI1
aa(lp1866
I0
aI4
aI2
aI0
aI1
aa(lp1867
I3
aI1
aI0
aI0
aI0
aa(lp1868
I1
aI1
aI0
aI0
aI0
aa(lp1869
I1
aI0
aI1
aI0
aI2
aa(lp1870
I3
aI4
aI0
aI0
aI0
aa(lp1871
I1
aI3
aI3
aI0
aI0
aa(lp1872
I0
aI2
aI1
aI0
aI0
aa(lp1873
I2
aI3
aI0
aI0
aI1
aa(lp1874
I2
aI3
aI1
aI0
aI0
aa(lp1875
I1
aI2
aI0
aI0
aI1
aa(lp1876
I0
aI2
aI1
aI0
aI0
aa(lp1877
I0
aI0
aI0
aI0
aI0
aa(lp1878
I2
aI1
aI0
aI0
aI2
aa(lp1879
I1
aI0
aI2
aI0
aI0
aa(lp1880
I0
aI1
aI1
aI0
aI1
aa(lp1881
I2
aI3
aI1
aI0
aI2
aa(lp1882
I3
aI2
aI1
aI0
aI0
aa(lp1883
I2
aI3
aI1
aI0
aI1
aa(lp1884
I3
aI3
aI0
aI0
aI0
aa(lp1885
I0
aI3
aI1
aI0
aI0
aa(lp1886
I1
aI1
aI0
aI0
aI0
aa(lp1887
I3
aI4
aI0
aI0
aI0
aa(lp1888
I0
aI1
aI0
aI0
aI1
aa(lp1889
I1
aI7
aI0
aI0
aI1
aa(lp1890
I2
aI1
aI0
aI0
aI0
aa(lp1891
I3
aI1
aI0
aI0
aI1
aa(lp1892
I1
aI8
aI0
aI0
aI3
aa(lp1893
I1
aI4
aI1
aI0
aI0
aa(lp1894
I3
aI5
aI0
aI0
aI1
aa(lp1895
I3
aI9
aI1
aI0
aI4
aa(lp1896
I2
aI7
aI1
aI0
aI2
aa(lp1897
I2
aI3
aI0
aI0
aI1
aa(lp1898
I1
aI0
aI0
aI0
aI1
aa(lp1899
I0
aI5
aI0
aI0
aI0
aa(lp1900
I1
aI5
aI0
aI0
aI1
aa(lp1901
I3
aI4
aI1
aI1
aI1
aa(lp1902
I3
aI2
aI1
aI0
aI0
aa(lp1903
I5
aI2
aI1
aI0
aI0
aa(lp1904
I3
aI1
aI0
aI0
aI3
aa(lp1905
I1
aI3
aI2
aI0
aI0
aa(lp1906
I5
aI3
aI0
aI0
aI1
aa(lp1907
I1
aI2
aI0
aI0
aI0
aa(lp1908
I2
aI5
aI1
aI0
aI1
aa(lp1909
I3
aI5
aI0
aI0
aI1
aa(lp1910
I3
aI4
aI1
aI0
aI1
aa(lp1911
I4
aI3
aI3
aI0
aI3
aa(lp1912
I1
aI2
aI2
aI1
aI3
aa(lp1913
I1
aI1
aI0
aI0
aI0
aa(lp1914
I0
aI5
aI2
aI0
aI1
aa(lp1915
I9
aI4
aI0
aI1
aI0
aa(lp1916
I4
aI4
aI0
aI0
aI3
aa(lp1917
I2
aI3
aI0
aI0
aI2
aa(lp1918
I0
aI3
aI4
aI1
aI1
aa(lp1919
I2
aI4
aI1
aI0
aI1
aa(lp1920
I4
aI6
aI2
aI0
aI3
aa(lp1921
I5
aI1
aI1
aI0
aI0
aa(lp1922
I4
aI2
aI3
aI0
aI0
aa(lp1923
I3
aI4
aI2
aI0
aI0
aa(lp1924
I2
aI8
aI1
aI1
aI4
aa(lp1925
I2
aI3
aI2
aI1
aI3
aa(lp1926
I0
aI1
aI1
aI0
aI0
aa(lp1927
I1
aI2
aI2
aI0
aI0
aa(lp1928
I2
aI2
aI1
aI1
aI1
aa(lp1929
I5
aI4
aI1
aI0
aI1
aa(lp1930
I6
aI5
aI5
aI0
aI1
aa(lp1931
I5
aI4
aI2
aI0
aI2
aa(lp1932
I4
aI2
aI2
aI0
aI1
aa(lp1933
I4
aI3
aI1
aI0
aI3
aa(lp1934
I1
aI2
aI0
aI0
aI0
aa(lp1935
I0
aI5
aI1
aI0
aI1
aa(lp1936
I2
aI5
aI3
aI2
aI1
aa(lp1937
I1
aI2
aI2
aI0
aI2
aa(lp1938
I1
aI2
aI1
aI0
aI1
aa(lp1939
I3
aI0
aI2
aI0
aI0
aa(lp1940
I1
aI0
aI1
aI0
aI0
aa(lp1941
I3
aI4
aI2
aI0
aI4
aa(lp1942
I3
aI2
aI4
aI0
aI2
aa(lp1943
I3
aI7
aI4
aI0
aI0
aa(lp1944
I2
aI2
aI3
aI0
aI1
aa(lp1945
I3
aI6
aI2
aI1
aI2
aa(lp1946
I6
aI3
aI3
aI1
aI1
aa(lp1947
I3
aI4
aI1
aI0
aI3
aa(lp1948
I5
aI5
aI1
aI0
aI2
aa(lp1949
I2
aI6
aI2
aI0
aI2
aa(lp1950
I3
aI0
aI5
aI0
aI1
aa(lp1951
I4
aI2
aI1
aI0
aI6
aa(lp1952
I5
aI4
aI3
aI0
aI3
aa(lp1953
I5
aI2
aI6
aI1
aI3
aa(lp1954
I6
aI3
aI2
aI1
aI2
aa(lp1955
I4
aI4
aI4
aI0
aI0
aa(lp1956
I5
aI5
aI1
aI2
aI3
aa(lp1957
I1
aI6
aI2
aI0
aI1
aa(lp1958
I7
aI7
aI5
aI0
aI0
aa(lp1959
I5
aI2
aI2
aI0
aI1
aa(lp1960
I5
aI1
aI4
aI2
aI2
aa(lp1961
I2
aI4
aI3
aI1
aI2
aa(lp1962
I5
aI4
aI2
aI0
aI0
aa(lp1963
I5
aI9
aI3
aI1
aI2
aa(lp1964
I1
aI9
aI6
aI0
aI2
aa(lp1965
I6
aI2
aI3
aI0
aI3
aa(lp1966
I3
aI2
aI4
aI0
aI1
aa(lp1967
I1
aI1
aI4
aI0
aI0
aa(lp1968
I2
aI1
aI2
aI0
aI0
aa(lp1969
I4
aI2
aI2
aI1
aI0
aa(lp1970
I1
aI2
aI2
aI0
aI2
aa(lp1971
I6
aI4
aI4
aI1
aI4
aa(lp1972
I10
aI6
aI2
aI0
aI3
aa(lp1973
I4
aI5
aI5
aI0
aI3
aa(lp1974
I4
aI0
aI3
aI0
aI2
aa(lp1975
I5
aI1
aI3
aI1
aI2
aa(lp1976
I3
aI5
aI1
aI0
aI0
aa(lp1977
I5
aI6
aI1
aI0
aI0
aa(lp1978
I6
aI6
aI4
aI2
aI1
aa(lp1979
I7
aI5
aI3
aI1
aI3
aa(lp1980
I7
aI5
aI4
aI0
aI3
aa(lp1981
I10
aI3
aI3
aI1
aI2
aa(lp1982
I5
aI2
aI1
aI0
aI4
aa(lp1983
I2
aI2
aI2
aI0
aI3
aa(lp1984
I5
aI1
aI3
aI1
aI1
aa(lp1985
I9
aI3
aI2
aI0
aI5
aa(lp1986
I3
aI4
aI4
aI1
aI1
aa(lp1987
I8
aI7
aI0
aI1
aI1
aa(lp1988
I5
aI1
aI2
aI0
aI3
aa(lp1989
I4
aI1
aI5
aI0
aI3
aa(lp1990
I4
aI3
aI3
aI1
aI1
aa(lp1991
I3
aI5
aI2
aI0
aI1
aa(lp1992
I1
aI6
aI6
aI0
aI3
aa(lp1993
I3
aI10
aI2
aI0
aI1
aa(lp1994
I6
aI3
aI6
aI0
aI1
aa(lp1995
I3
aI6
aI3
aI0
aI1
aa(lp1996
I6
aI1
aI5
aI1
aI2
aa(lp1997
I3
aI6
aI5
aI0
aI3
aa(lp1998
I6
aI4
aI4
aI0
aI4
aa(lp1999
I7
aI6
aI2
aI0
aI5
aa(lp2000
I5
aI11
aI6
aI1
aI3
aa(lp2001
I7
aI2
aI4
aI0
aI3
aa(lp2002
I8
aI3
aI4
aI0
aI4
aa(lp2003
I10
aI3
aI4
aI0
aI3
aa(lp2004
I8
aI9
aI3
aI0
aI4
aa(lp2005
I3
aI7
aI3
aI0
aI1
aa(lp2006
I7
aI6
aI4
aI0
aI1
aa(lp2007
I9
aI4
aI4
aI3
aI6
aa(lp2008
I8
aI4
aI5
aI0
aI3
aa(lp2009
I7
aI4
aI4
aI0
aI4
aa(lp2010
I2
aI1
aI4
aI0
aI0
aa(lp2011
I5
aI3
aI5
aI1
aI1
aa(lp2012
I6
aI3
aI3
aI0
aI2
aa(lp2013
I7
aI8
aI3
aI2
aI1
aa(lp2014
I5
aI4
aI10
aI1
aI1
aa(lp2015
I3
aI6
aI5
aI1
aI7
aa(lp2016
I8
aI5
aI4
aI1
aI3
aa(lp2017
I16
aI4
aI2
aI0
aI4
aa(lp2018
I3
aI5
aI7
aI0
aI3
aa(lp2019
I9
aI12
aI4
aI0
aI4
aa(lp2020
I11
aI13
aI9
aI0
aI3
aa(lp2021
I3
aI5
aI2
aI0
aI3
aa(lp2022
I6
aI10
aI5
aI3
aI4
aa(lp2023
I2
aI0
aI1
aI0
aI0
aa(lp2024
I1
aI3
aI1
aI0
aI3
aa(lp2025
I9
aI6
aI9
aI0
aI3
aa(lp2026
I9
aI4
aI5
aI0
aI2
aa(lp2027
I6
aI4
aI1
aI0
aI4
aa(lp2028
I9
aI7
aI6
aI1
aI5
aa(lp2029
I8
aI5
aI8
aI0
aI1
aa(lp2030
I5
aI2
aI8
aI0
aI5
aa(lp2031
I4
aI5
aI9
aI0
aI2
aa(lp2032
I6
aI3
aI1
aI1
aI2
aa(lp2033
I5
aI5
aI5
aI0
aI3
aa(lp2034
I2
aI4
aI1
aI0
aI0
aa(lp2035
I5
aI6
aI5
aI0
aI2
aa(lp2036
I7
aI5
aI6
aI1
aI1
aa(lp2037
I5
aI1
aI5
aI0
aI5
aa(lp2038
I1
aI2
aI1
aI0
aI1
aa(lp2039
I5
aI3
aI1
aI0
aI0
aa(lp2040
I7
aI5
aI3
aI0
aI4
aa(lp2041
I9
aI7
aI6
aI0
aI4
aa(lp2042
I5
aI5
aI3
aI0
aI4
aa(lp2043
I9
aI3
aI4
aI0
aI4
aa(lp2044
I12
aI5
aI4
aI0
aI4
aa(lp2045
I3
aI2
aI3
aI1
aI1
aa(lp2046
I4
aI5
aI2
aI0
aI4
aa(lp2047
I8
aI9
aI9
aI0
aI6
aa(lp2048
I11
aI4
aI5
aI0
aI3
aa(lp2049
I8
aI6
aI4
aI0
aI2
aa(lp2050
I8
aI7
aI1
aI0
aI3
aa(lp2051
I5
aI1
aI3
aI0
aI3
aa(lp2052
I4
aI3
aI2
aI0
aI0
aa(lp2053
I6
aI3
aI3
aI0
aI2
aa(lp2054
I8
aI5
aI3
aI0
aI4
aa(lp2055
I11
aI9
aI2
aI0
aI4
aa(lp2056
I2
aI11
aI3
aI0
aI6
aa(lp2057
I3
aI5
aI2
aI0
aI1
aa(lp2058
I9
aI2
aI3
aI0
aI5
aa(lp2059
I12
aI5
aI5
aI0
aI2
aa(lp2060
I12
aI2
aI2
aI0
aI2
aa(lp2061
I6
aI7
aI4
aI0
aI3
aa(lp2062
I6
aI2
aI1
aI0
aI2
aa(lp2063
I11
aI8
aI3
aI1
aI5
aa(lp2064
I11
aI6
aI2
aI0
aI4
aa(lp2065
I6
aI3
aI3
aI0
aI3
aa(lp2066
I6
aI4
aI1
aI0
aI3
aa(lp2067
I8
aI2
aI2
aI3
aI0
aa(lp2068
I8
aI5
aI5
aI1
aI5
aa(lp2069
I6
aI4
aI1
aI1
aI5
aa(lp2070
I7
aI1
aI5
aI0
aI4
aa(lp2071
I9
aI5
aI5
aI0
aI3
aa(lp2072
I4
aI1
aI4
aI0
aI2
aa(lp2073
I2
aI1
aI1
aI0
aI0
aa(lp2074
I8
aI2
aI4
aI0
aI2
aa(lp2075
I3
aI6
aI4
aI1
aI1
aa(lp2076
I8
aI6
aI4
aI0
aI1
aa(lp2077
I4
aI10
aI2
aI0
aI4
aa(lp2078
I7
aI5
aI1
aI0
aI0
aa(lp2079
I6
aI8
aI3
aI0
aI2
aa(lp2080
I5
aI3
aI1
aI0
aI3
aa(lp2081
I10
aI3
aI1
aI1
aI3
aa(lp2082
I6
aI6
aI1
aI1
aI3
aa(lp2083
I11
aI4
aI6
aI0
aI3
aa(lp2084
I8
aI8
aI3
aI0
aI3
aa(lp2085
I6
aI7
aI2
aI2
aI2
aa(lp2086
I2
aI5
aI5
aI0
aI2
aa(lp2087
I3
aI3
aI4
aI1
aI1
aa(lp2088
I4
aI7
aI0
aI1
aI2
aa(lp2089
I3
aI4
aI2
aI0
aI1
aa(lp2090
I3
aI2
aI3
aI0
aI1
aa(lp2091
I6
aI9
aI3
aI1
aI0
aa(lp2092
I6
aI2
aI5
aI3
aI2
aa(lp2093
I1
aI3
aI3
aI0
aI2
aa(lp2094
I3
aI2
aI4
aI0
aI1
aa(lp2095
I4
aI7
aI0
aI0
aI0
aa(lp2096
I2
aI2
aI0
aI0
aI2
aa(lp2097
I9
aI7
aI3
aI0
aI0
aa(lp2098
I4
aI8
aI1
aI1
aI0
aa(lp2099
I11
aI7
aI2
aI0
aI2
aa(lp2100
I7
aI2
aI3
aI2
aI3
aa(lp2101
I4
aI4
aI8
aI0
aI0
aa(lp2102
I7
aI6
aI1
aI0
aI0
aa(lp2103
I13
aI5
aI2
aI0
aI3
aa(lp2104
I5
aI6
aI0
aI0
aI1
aa(lp2105
I2
aI5
aI2
aI0
aI4
aa(lp2106
I4
aI5
aI1
aI1
aI1
aa(lp2107
I5
aI1
aI5
aI0
aI2
aa(lp2108
I2
aI4
aI2
aI0
aI3
aa(lp2109
I7
aI1
aI2
aI0
aI1
aa(lp2110
I3
aI2
aI1
aI0
aI0
aa(lp2111
I5
aI4
aI4
aI0
aI1
aa(lp2112
I2
aI4
aI2
aI1
aI1
aa(lp2113
I4
aI5
aI2
aI0
aI4
aa(lp2114
I8
aI3
aI2
aI1
aI0
aa(lp2115
I5
aI2
aI3
aI0
aI2
aa(lp2116
I5
aI3
aI1
aI0
aI0
aa(lp2117
I2
aI3
aI2
aI0
aI0
aa(lp2118
I7
aI2
aI1
aI0
aI2
aa(lp2119
I3
aI4
aI1
aI0
aI3
aa(lp2120
I5
aI8
aI1
aI1
aI3
aa(lp2121
I6
aI4
aI5
aI1
aI1
aa(lp2122
I3
aI3
aI1
aI0
aI1
aa(lp2123
I8
aI1
aI0
aI0
aI3
aa(lp2124
I3
aI5
aI1
aI0
aI1
aa(lp2125
I5
aI4
aI2
aI0
aI3
aa(lp2126
I1
aI5
aI1
aI0
aI0
aa(lp2127
I7
aI6
aI1
aI0
aI2
aa(lp2128
I5
aI1
aI2
aI2
aI2
aa(lp2129
I2
aI2
aI0
aI0
aI0
aa(lp2130
I1
aI3
aI1
aI1
aI1
aa(lp2131
I5
aI0
aI0
aI0
aI0
aa(lp2132
I0
aI3
aI0
aI0
aI1
aa(lp2133
I2
aI3
aI2
aI0
aI2
aa(lp2134
I4
aI7
aI2
aI0
aI3
aa(lp2135
I3
aI1
aI2
aI0
aI0
aa(lp2136
I2
aI0
aI1
aI0
aI1
aa(lp2137
I6
aI2
aI3
aI0
aI2
aa(lp2138
I4
aI6
aI2
aI1
aI0
aa(lp2139
I2
aI2
aI3
aI0
aI1
aa(lp2140
I8
aI4
aI0
aI0
aI1
aa(lp2141
I4
aI4
aI2
aI1
aI0
aa(lp2142
I3
aI2
aI1
aI0
aI1
aa(lp2143
I1
aI1
aI1
aI0
aI1
aa(lp2144
I1
aI3
aI1
aI0
aI2
aa(lp2145
I3
aI3
aI2
aI0
aI0
aa(lp2146
I0
aI3
aI1
aI1
aI0
aa(lp2147
I2
aI6
aI1
aI0
aI0
aa(lp2148
I1
aI7
aI2
aI1
aI0
aa(lp2149
I1
aI2
aI0
aI0
aI1
aa(lp2150
I0
aI4
aI1
aI0
aI1
aa(lp2151
I2
aI3
aI3
aI1
aI0
aa(lp2152
I2
aI5
aI0
aI0
aI1
aa(lp2153
I3
aI3
aI2
aI0
aI0
aa(lp2154
I1
aI1
aI0
aI0
aI1
aa(lp2155
I2
aI0
aI1
aI0
aI0
aa(lp2156
I1
aI2
aI1
aI0
aI0
aa(lp2157
I1
aI1
aI0
aI0
aI0
aa(lp2158
I5
aI9
aI0
aI0
aI0
aa(lp2159
I5
aI4
aI0
aI0
aI0
aa(lp2160
I5
aI3
aI1
aI0
aI0
aa(lp2161
I3
aI3
aI0
aI0
aI0
aa(lp2162
I2
aI2
aI1
aI0
aI0
aa(lp2163
I1
aI2
aI0
aI0
aI0
aa(lp2164
I2
aI0
aI0
aI0
aI0
aa(lp2165
I4
aI2
aI2
aI0
aI0
aa(lp2166
I2
aI3
aI2
aI0
aI1
aa(lp2167
I1
aI4
aI0
aI0
aI0
aa(lp2168
I2
aI7
aI1
aI0
aI0
aa(lp2169
I0
aI2
aI0
aI0
aI0
aa(lp2170
I3
aI1
aI0
aI0
aI0
aa(lp2171
I3
aI1
aI0
aI0
aI0
aa(lp2172
I4
aI1
aI1
aI0
aI0
aa(lp2173
I1
aI2
aI0
aI0
aI0
aa(lp2174
I0
aI1
aI0
aI0
aI0
aa(lp2175
I0
aI1
aI0
aI0
aI1
aa(lp2176
I2
aI1
aI0
aI0
aI0
aa(lp2177
I2
aI4
aI0
aI0
aI1
aa(lp2178
I1
aI0
aI0
aI0
aI0
aa(lp2179
I1
aI2
aI1
aI0
aI0
aa(lp2180
I2
aI5
aI1
aI0
aI0
aa(lp2181
I2
aI3
aI0
aI0
aI0
aa(lp2182
I2
aI1
aI0
aI0
aI1
aa(lp2183
I2
aI3
aI0
aI0
aI0
aa(lp2184
I1
aI2
aI1
aI0
aI1
aa(lp2185
I0
aI0
aI1
aI0
aI0
aa(lp2186
I1
aI0
aI0
aI0
aI0
aa(lp2187
I1
aI3
aI0
aI0
aI1
aa(lp2188
I2
aI0
aI1
aI0
aI0
aa(lp2189
I1
aI3
aI1
aI0
aI0
aa(lp2190
I3
aI3
aI0
aI0
aI0
aa(lp2191
I1
aI0
aI0
aI0
aI0
aa(lp2192
I0
aI1
aI0
aI0
aI0
aa(lp2193
I0
aI0
aI1
aI0
aI0
aa(lp2194
I1
aI1
aI0
aI0
aI0
aa(lp2195
I3
aI3
aI0
aI0
aI0
aa(lp2196
I1
aI2
aI1
aI0
aI0
aa(lp2197
I1
aI2
aI1
aI0
aI0
aa(lp2198
I0
aI0
aI2
aI0
aI0
aa(lp2199
I1
aI0
aI3
aI0
aI0
aa(lp2200
I2
aI4
aI0
aI1
aI0
aa(lp2201
I0
aI5
aI0
aI0
aI0
aa(lp2202
I3
aI0
aI0
aI0
aI0
aa(lp2203
I0
aI5
aI1
aI0
aI0
aa(lp2204
I1
aI3
aI0
aI0
aI0
aa(lp2205
I2
aI1
aI1
aI0
aI0
aa(lp2206
I0
aI2
aI0
aI0
aI0
aa(lp2207
I2
aI2
aI0
aI0
aI1
aa(lp2208
I2
aI2
aI1
aI0
aI0
aa(lp2209
I2
aI3
aI0
aI0
aI0
aa(lp2210
I1
aI8
aI0
aI0
aI0
aa(lp2211
I3
aI5
aI1
aI0
aI1
aa(lp2212
I5
aI0
aI2
aI0
aI0
aa(lp2213
I1
aI0
aI0
aI0
aI0
aa(lp2214
I0
aI2
aI0
aI0
aI0
aa(lp2215
I1
aI4
aI0
aI0
aI0
aa(lp2216
I1
aI2
aI2
aI0
aI1
aa(lp2217
I3
aI1
aI1
aI0
aI0
aa(lp2218
I2
aI4
aI0
aI0
aI1
aa(lp2219
I0
aI1
aI0
aI0
aI0
aa(lp2220
I0
aI2
aI1
aI0
aI0
aa(lp2221
I1
aI1
aI0
aI0
aI1
aa(lp2222
I0
aI1
aI2
aI0
aI0
aa(lp2223
I0
aI0
aI1
aI0
aI0
aa(lp2224
I5
aI1
aI0
aI0
aI1
aa(lp2225
I0
aI4
aI1
aI0
aI0
aa(lp2226
I1
aI1
aI1
aI0
aI0
aa(lp2227
I1
aI1
aI0
aI0
aI0
aa(lp2228
I0
aI2
aI0
aI0
aI0
aa(lp2229
I1
aI3
aI1
aI1
aI1
aa(lp2230
I1
aI2
aI0
aI0
aI0
aa(lp2231
I2
aI4
aI0
aI0
aI0
aa(lp2232
I2
aI4
aI2
aI0
aI2
aa(lp2233
I1
aI2
aI1
aI0
aI0
aa(lp2234
I0
aI3
aI0
aI0
aI0
aa(lp2235
I1
aI2
aI1
aI0
aI0
aa(lp2236
I3
aI3
aI0
aI0
aI0
aa(lp2237
I3
aI4
aI1
aI0
aI0
aa(lp2238
I3
aI3
aI1
aI0
aI0
aa(lp2239
I2
aI2
aI0
aI0
aI0
aa(lp2240
I1
aI3
aI0
aI0
aI1
aa(lp2241
I2
aI2
aI1
aI0
aI0
aa(lp2242
I0
aI1
aI0
aI0
aI0
aa(lp2243
I1
aI0
aI1
aI0
aI0
aa(lp2244
I1
aI2
aI2
aI0
aI1
aa(lp2245
I0
aI1
aI0
aI0
aI2
aa(lp2246
I1
aI3
aI0
aI0
aI0
aa(lp2247
I2
aI2
aI0
aI0
aI0
aa(lp2248
I2
aI2
aI0
aI0
aI0
aa(lp2249
I1
aI3
aI0
aI0
aI0
aa(lp2250
I1
aI3
aI1
aI0
aI0
aa(lp2251
I0
aI6
aI1
aI0
aI1
aa(lp2252
I0
aI2
aI0
aI0
aI0
aa(lp2253
I0
aI3
aI0
aI1
aI0
aa(lp2254
I1
aI1
aI0
aI0
aI0
aa(lp2255
I1
aI2
aI1
aI0
aI0
aa(lp2256
I2
aI0
aI0
aI0
aI0
aa(lp2257
I0
aI2
aI0
aI0
aI0
aa(lp2258
I2
aI2
aI0
aI0
aI0
aa(lp2259
I1
aI1
aI1
aI0
aI0
aa(lp2260
I2
aI1
aI0
aI0
aI0
aa(lp2261
I1
aI1
aI2
aI0
aI0
aa(lp2262
I1
aI3
aI0
aI0
aI0
aa(lp2263
I3
aI4
aI1
aI0
aI0
aa(lp2264
I2
aI2
aI0
aI0
aI0
aa(lp2265
I3
aI2
aI0
aI0
aI1
aa(lp2266
I0
aI2
aI0
aI0
aI0
aa(lp2267
I2
aI6
aI5
aI0
aI0
aa(lp2268
I4
aI1
aI0
aI0
aI1
aa(lp2269
I3
aI1
aI2
aI0
aI1
aa(lp2270
I0
aI0
aI2
aI0
aI1
aa(lp2271
I2
aI6
aI1
aI0
aI1
aa(lp2272
I2
aI1
aI0
aI0
aI1
aa(lp2273
I1
aI3
aI0
aI0
aI0
aa(lp2274
I1
aI2
aI1
aI1
aI1
aa(lp2275
I1
aI1
aI1
aI0
aI0
aa(lp2276
I3
aI1
aI3
aI0
aI0
aa(lp2277
I0
aI4
aI0
aI1
aI0
aa(lp2278
I2
aI0
aI1
aI0
aI2
aa(lp2279
I0
aI1
aI0
aI0
aI0
aa(lp2280
I1
aI3
aI0
aI0
aI1
aa(lp2281
I2
aI4
aI0
aI0
aI0
aa(lp2282
I3
aI0
aI0
aI0
aI1
aa(lp2283
I1
aI0
aI1
aI1
aI0
aa(lp2284
I1
aI5
aI2
aI0
aI0
aa(lp2285
I0
aI1
aI0
aI0
aI0
aa(lp2286
I3
aI3
aI0
aI0
aI1
aa(lp2287
I2
aI2
aI3
aI1
aI3
aa(lp2288
I3
aI4
aI0
aI1
aI0
aa(lp2289
I2
aI3
aI2
aI0
aI0
aa(lp2290
I0
aI0
aI1
aI0
aI2
aa(lp2291
I9
aI4
aI1
aI0
aI0
aa(lp2292
I4
aI1
aI0
aI0
aI1
aa(lp2293
I2
aI2
aI0
aI0
aI1
aa(lp2294
I0
aI3
aI2
aI0
aI0
aa(lp2295
I5
aI2
aI4
aI0
aI1
aa(lp2296
I3
aI4
aI2
aI1
aI1
aa(lp2297
I2
aI0
aI0
aI0
aI0
aa(lp2298
I4
aI2
aI1
aI2
aI0
aa(lp2299
I5
aI3
aI3
aI0
aI1
aa(lp2300
I4
aI3
aI1
aI0
aI0
aa(lp2301
I0
aI1
aI2
aI0
aI1
aa(lp2302
I3
aI3
aI0
aI0
aI1
aa(lp2303
I2
aI4
aI3
aI0
aI3
aa(lp2304
I4
aI0
aI4
aI0
aI0
aa(lp2305
I4
aI5
aI1
aI0
aI1
aa(lp2306
I4
aI5
aI2
aI0
aI1
aa(lp2307
I5
aI2
aI3
aI0
aI2
aa(lp2308
I8
aI5
aI2
aI0
aI0
aa(lp2309
I5
aI6
aI1
aI0
aI1
aa(lp2310
I7
aI1
aI2
aI1
aI2
aa(lp2311
I3
aI4
aI2
aI1
aI2
aa(lp2312
I1
aI5
aI1
aI2
aI0
aa(lp2313
I0
aI1
aI0
aI0
aI0
aa(lp2314
I0
aI0
aI2
aI0
aI0
aa(lp2315
I0
aI0
aI0
aI0
aI0
aa(lp2316
I0
aI1
aI0
aI0
aI0
aa(lp2317
I2
aI3
aI1
aI0
aI0
aa(lp2318
I0
aI1
aI0
aI1
aI0
aa(lp2319
I3
aI1
aI0
aI0
aI0
aa(lp2320
I1
aI0
aI3
aI0
aI0
aa(lp2321
I1
aI1
aI1
aI0
aI0
aa(lp2322
I4
aI7
aI2
aI0
aI1
aa(lp2323
I4
aI1
aI4
aI0
aI2
aa(lp2324
I3
aI1
aI5
aI0
aI2
aa(lp2325
I4
aI2
aI7
aI0
aI1
aa(lp2326
I3
aI2
aI5
aI0
aI1
aa(lp2327
I1
aI3
aI1
aI0
aI1
aa(lp2328
I2
aI2
aI1
aI0
aI2
aa(lp2329
I2
aI7
aI2
aI0
aI0
aa(lp2330
I3
aI3
aI1
aI0
aI0
aa(lp2331
I5
aI3
aI2
aI2
aI1
aa(lp2332
I2
aI2
aI1
aI1
aI2
aa(lp2333
I4
aI1
aI1
aI0
aI0
aa(lp2334
I1
aI0
aI2
aI0
aI0
aa(lp2335
I1
aI1
aI0
aI0
aI0
aa(lp2336
I4
aI4
aI2
aI0
aI0
aa(lp2337
I4
aI4
aI1
aI0
aI1
aa(lp2338
I2
aI2
aI0
aI0
aI2
aa(lp2339
I8
aI2
aI1
aI0
aI1
aa(lp2340
I3
aI2
aI2
aI0
aI0
aa(lp2341
I3
aI2
aI1
aI0
aI0
aa(lp2342
I4
aI1
aI1
aI0
aI0
aa(lp2343
I4
aI6
aI1
aI0
aI1
aa(lp2344
I3
aI3
aI2
aI0
aI1
aa(lp2345
I1
aI2
aI5
aI0
aI0
aa(lp2346
I5
aI2
aI2
aI1
aI0
aa(lp2347
I4
aI3
aI0
aI0
aI2
aa(lp2348
I5
aI8
aI2
aI0
aI0
aa(lp2349
I5
aI3
aI3
aI0
aI2
aa(lp2350
I10
aI7
aI2
aI0
aI4
aa(lp2351
I3
aI5
aI6
aI2
aI4
aa(lp2352
I5
aI4
aI6
aI3
aI3
aa(lp2353
I6
aI3
aI5
aI0
aI1
aa(lp2354
I6
aI6
aI2
aI1
aI1
aa(lp2355
I3
aI3
aI3
aI0
aI4
aa(lp2356
I8
aI4
aI2
aI0
aI3
aa(lp2357
I7
aI3
aI1
aI0
aI0
aa(lp2358
I3
aI4
aI5
aI0
aI2
aa(lp2359
I3
aI3
aI3
aI1
aI3
aa(lp2360
I0
aI3
aI3
aI0
aI2
aa(lp2361
I8
aI2
aI5
aI0
aI2
aa(lp2362
I5
aI4
aI8
aI2
aI2
aa(lp2363
I5
aI2
aI1
aI0
aI3
aa(lp2364
I6
aI2
aI3
aI0
aI3
aa(lp2365
I6
aI6
aI4
aI1
aI3
aa(lp2366
I6
aI5
aI2
aI0
aI1
aa(lp2367
I4
aI1
aI2
aI0
aI2
aa(lp2368
I9
aI6
aI3
aI0
aI3
aa(lp2369
I9
aI4
aI4
aI0
aI3
aa(lp2370
I13
aI5
aI8
aI0
aI3
aa(lp2371
I4
aI9
aI7
aI0
aI1
aa(lp2372
I7
aI4
aI2
aI0
aI3
aa(lp2373
I7
aI3
aI4
aI0
aI3
aa(lp2374
I5
aI2
aI4
aI1
aI1
aa(lp2375
I8
aI3
aI2
aI0
aI2
aa(lp2376
I11
aI5
aI5
aI1
aI4
aa(lp2377
I2
aI3
aI5
aI0
aI2
aa(lp2378
I4
aI0
aI5
aI0
aI5
aa(lp2379
I5
aI1
aI0
aI1
aI2
aa(lp2380
I5
aI1
aI3
aI0
aI0
aa(lp2381
I1
aI2
aI3
aI0
aI1
aa(lp2382
I7
aI1
aI1
aI0
aI5
aa(lp2383
I5
aI5
aI7
aI0
aI1
aa(lp2384
I9
aI4
aI3
aI2
aI0
aa(lp2385
I4
aI8
aI5
aI1
aI5
aa(lp2386
I5
aI3
aI4
aI1
aI3
aa(lp2387
I7
aI5
aI0
aI0
aI2
aa(lp2388
I3
aI2
aI4
aI0
aI1
aa(lp2389
I3
aI2
aI4
aI0
aI4
aa(lp2390
I2
aI9
aI5
aI0
aI7
aa(lp2391
I7
aI4
aI7
aI0
aI2
aa(lp2392
I4
aI3
aI4
aI1
aI2
aa(lp2393
I12
aI5
aI4
aI1
aI4
aa(lp2394
I6
aI6
aI3
aI0
aI3
aa(lp2395
I3
aI1
aI1
aI0
aI1
aa(lp2396
I7
aI4
aI3
aI0
aI3
aa(lp2397
I7
aI4
aI5
aI0
aI2
aa(lp2398
I4
aI5
aI1
aI0
aI4
aa(lp2399
I9
aI12
aI5
aI0
aI1
aa(lp2400
I12
aI3
aI4
aI0
aI4
aa(lp2401
I3
aI2
aI11
aI0
aI3
aa(lp2402
I3
aI6
aI5
aI0
aI0
aa(lp2403
I6
aI4
aI3
aI1
aI3
aa(lp2404
I5
aI5
aI2
aI1
aI5
aa(lp2405
I11
aI5
aI3
aI0
aI1
aa(lp2406
I9
aI2
aI7
aI1
aI3
aa(lp2407
I2
aI3
aI3
aI0
aI1
aa(lp2408
I4
aI3
aI3
aI0
aI1
aa(lp2409
I4
aI1
aI1
aI0
aI1
aa(lp2410
I10
aI1
aI1
aI0
aI1
aa(lp2411
I6
aI4
aI0
aI0
aI0
aa(lp2412
I9
aI3
aI1
aI1
aI3
aa(lp2413
I4
aI1
aI3
aI0
aI2
aa(lp2414
I4
aI8
aI4
aI0
aI4
aa(lp2415
I4
aI0
aI7
aI0
aI1
aa(lp2416
I5
aI2
aI4
aI0
aI1
aa(lp2417
I7
aI3
aI1
aI1
aI1
aa(lp2418
I5
aI9
aI2
aI0
aI1
aa(lp2419
I2
aI9
aI4
aI0
aI1
aa(lp2420
I7
aI4
aI4
aI0
aI1
aa(lp2421
I6
aI6
aI4
aI0
aI2
aa(lp2422
I5
aI1
aI1
aI0
aI1
aa(lp2423
I5
aI2
aI3
aI1
aI2
aa(lp2424
I8
aI4
aI3
aI0
aI1
aa(lp2425
I7
aI3
aI6
aI0
aI2
aa(lp2426
I4
aI5
aI2
aI2
aI5
aa(lp2427
I5
aI3
aI2
aI0
aI0
aa(lp2428
I12
aI3
aI3
aI0
aI1
aa(lp2429
I7
aI3
aI3
aI0
aI0
aa(lp2430
I13
aI2
aI2
aI0
aI2
aa(lp2431
I5
aI5
aI1
aI0
aI0
aa(lp2432
I8
aI4
aI2
aI0
aI5
aa(lp2433
I2
aI11
aI3
aI0
aI2
aa(lp2434
I3
aI3
aI2
aI1
aI1
aa(lp2435
I9
aI5
aI4
aI0
aI0
aa(lp2436
I11
aI3
aI3
aI2
aI3
aa(lp2437
I4
aI2
aI3
aI0
aI3
aa(lp2438
I6
aI1
aI2
aI0
aI3
aa(lp2439
I8
aI6
aI0
aI0
aI1
aa(lp2440
I12
aI3
aI4
aI0
aI1
aa(lp2441
I8
aI6
aI2
aI0
aI2
aa(lp2442
I8
aI4
aI0
aI0
aI0
aa(lp2443
I6
aI3
aI1
aI0
aI1
aa(lp2444
I6
aI2
aI2
aI0
aI2
aa(lp2445
I1
aI10
aI2
aI0
aI1
aa(lp2446
I6
aI2
aI2
aI0
aI3
aa(lp2447
I8
aI6
aI3
aI0
aI1
aa(lp2448
I2
aI4
aI3
aI0
aI0
aa(lp2449
I2
aI3
aI1
aI0
aI2
aa(lp2450
I1
aI0
aI3
aI0
aI2
aa(lp2451
I4
aI0
aI1
aI0
aI1
aa(lp2452
I5
aI4
aI1
aI1
aI3
aa(lp2453
I5
aI7
aI0
aI0
aI1
aa(lp2454
I4
aI2
aI2
aI0
aI2
aa(lp2455
I1
aI3
aI2
aI0
aI0
aa(lp2456
I6
aI3
aI3
aI0
aI1
aa(lp2457
I3
aI4
aI0
aI1
aI1
aa(lp2458
I6
aI2
aI5
aI0
aI2
aa(lp2459
I3
aI3
aI2
aI1
aI2
aa(lp2460
I4
aI5
aI0
aI1
aI0
aa(lp2461
I2
aI3
aI3
aI0
aI1
aa(lp2462
I3
aI1
aI1
aI0
aI1
aa(lp2463
I3
aI3
aI3
aI0
aI2
aa(lp2464
I4
aI8
aI2
aI0
aI2
aa(lp2465
I2
aI1
aI0
aI0
aI3
aa(lp2466
I4
aI7
aI1
aI1
aI1
aa(lp2467
I4
aI2
aI2
aI0
aI1
aa(lp2468
I4
aI4
aI1
aI0
aI2
aa(lp2469
I4
aI2
aI3
aI1
aI1
aa(lp2470
I5
aI4
aI0
aI1
aI0
aa(lp2471
I8
aI2
aI3
aI0
aI1
aa(lp2472
I3
aI2
aI2
aI0
aI0
aa(lp2473
I2
aI3
aI1
aI0
aI0
aa(lp2474
I3
aI3
aI2
aI0
aI0
aa(lp2475
I4
aI1
aI1
aI0
aI1
aa(lp2476
I4
aI0
aI2
aI1
aI2
aa(lp2477
I7
aI5
aI0
aI0
aI2
aa(lp2478
I3
aI1
aI1
aI0
aI1
aa(lp2479
I3
aI4
aI1
aI0
aI1
aa(lp2480
I2
aI4
aI1
aI1
aI1
aa(lp2481
I4
aI4
aI7
aI1
aI1
aa(lp2482
I1
aI3
aI0
aI1
aI2
aa(lp2483
I3
aI5
aI3
aI0
aI2
aa(lp2484
I3
aI3
aI1
aI0
aI1
aa(lp2485
I1
aI3
aI2
aI0
aI3
aa(lp2486
I4
aI4
aI2
aI1
aI0
aa(lp2487
I2
aI4
aI1
aI0
aI0
aa(lp2488
I6
aI2
aI4
aI0
aI1
aa(lp2489
I6
aI6
aI0
aI1
aI1
aa(lp2490
I2
aI3
aI2
aI1
aI0
aa(lp2491
I1
aI1
aI1
aI0
aI2
aa(lp2492
I1
aI0
aI2
aI0
aI0
aa(lp2493
I2
aI0
aI2
aI0
aI0
aa(lp2494
I2
aI1
aI1
aI1
aI0
aa(lp2495
I5
aI1
aI0
aI0
aI1
aa(lp2496
I3
aI3
aI0
aI0
aI1
aa(lp2497
I6
aI2
aI1
aI0
aI1
aa(lp2498
I4
aI7
aI2
aI0
aI1
aa(lp2499
I3
aI3
aI2
aI0
aI0
aa(lp2500
I3
aI2
aI0
aI0
aI0
aa(lp2501
I3
aI4
aI0
aI0
aI0
aa(lp2502
I4
aI5
aI1
aI2
aI0
aa(lp2503
I6
aI1
aI0
aI0
aI1
aa(lp2504
I1
aI6
aI3
aI0
aI1
aa(lp2505
I2
aI3
aI1
aI1
aI1
aa(lp2506
I4
aI2
aI2
aI0
aI0
aa(lp2507
I3
aI4
aI2
aI0
aI0
aa(lp2508
I1
aI2
aI1
aI0
aI1
aa(lp2509
I5
aI0
aI1
aI0
aI3
aa(lp2510
I4
aI2
aI2
aI0
aI0
aa(lp2511
I6
aI3
aI3
aI0
aI1
aa(lp2512
I1
aI6
aI1
aI0
aI0
aa(lp2513
I4
aI1
aI0
aI0
aI0
aa(lp2514
I3
aI1
aI1
aI0
aI0
aa(lp2515
I4
aI5
aI3
aI0
aI2
aa(lp2516
I3
aI4
aI0
aI1
aI0
aa(lp2517
I4
aI5
aI2
aI0
aI2
aa(lp2518
I2
aI2
aI0
aI0
aI1
aa(lp2519
I4
aI2
aI0
aI0
aI2
aa(lp2520
I3
aI1
aI1
aI0
aI0
aa(lp2521
I0
aI2
aI1
aI0
aI0
aa(lp2522
I0
aI3
aI3
aI0
aI2
aa(lp2523
I1
aI1
aI1
aI0
aI0
aa(lp2524
I0
aI4
aI0
aI0
aI1
aa(lp2525
I4
aI2
aI0
aI0
aI0
aa(lp2526
I0
aI3
aI2
aI0
aI0
aa(lp2527
I3
aI5
aI0
aI0
aI1
aa(lp2528
I2
aI4
aI2
aI1
aI1
aa(lp2529
I3
aI0
aI3
aI0
aI2
aa(lp2530
I3
aI3
aI1
aI0
aI0
aa(lp2531
I3
aI2
aI1
aI0
aI0
aa(lp2532
I2
aI6
aI1
aI0
aI0
aa(lp2533
I1
aI0
aI1
aI0
aI2
aa(lp2534
I2
aI3
aI0
aI0
aI2
aa(lp2535
I4
aI2
aI0
aI1
aI0
aa(lp2536
I3
aI4
aI0
aI0
aI1
aa(lp2537
I3
aI6
aI3
aI0
aI1
aa(lp2538
I1
aI2
aI1
aI0
aI0
aa(lp2539
I3
aI4
aI0
aI0
aI0
aa(lp2540
I1
aI3
aI2
aI0
aI2
aa(lp2541
I2
aI2
aI1
aI0
aI2
aa(lp2542
I0
aI1
aI0
aI0
aI0
aa(lp2543
I2
aI1
aI0
aI0
aI3
aa(lp2544
I1
aI0
aI1
aI0
aI0
aa(lp2545
I2
aI4
aI1
aI0
aI1
aa(lp2546
I0
aI0
aI2
aI0
aI0
aa(lp2547
I0
aI1
aI1
aI0
aI0
aa(lp2548
I2
aI1
aI2
aI0
aI0
aa(lp2549
I1
aI4
aI0
aI0
aI0
aa(lp2550
I3
aI1
aI1
aI0
aI0
aa(lp2551
I0
aI1
aI0
aI0
aI0
aa(lp2552
I1
aI1
aI1
aI0
aI0
aa(lp2553
I0
aI1
aI0
aI0
aI0
aa(lp2554
I3
aI1
aI0
aI0
aI0
aa(lp2555
I2
aI0
aI0
aI0
aI1
aa(lp2556
I0
aI0
aI2
aI0
aI0
aa(lp2557
I2
aI0
aI0
aI0
aI1
aa(lp2558
I0
aI0
aI1
aI0
aI0
aa(lp2559
I1
aI2
aI1
aI0
aI0
aa(lp2560
I5
aI1
aI2
aI0
aI0
aa(lp2561
I0
aI1
aI1
aI0
aI1
aa(lp2562
I1
aI0
aI0
aI0
aI0
aa(lp2563
I0
aI2
aI2
aI0
aI0
aa(lp2564
I0
aI0
aI1
aI0
aI0
aa(lp2565
I0
aI3
aI1
aI0
aI2
aa(lp2566
I3
aI0
aI0
aI0
aI1
aa(lp2567
I2
aI4
aI2
aI0
aI1
aa(lp2568
I1
aI2
aI2
aI0
aI0
aa(lp2569
I1
aI0
aI0
aI1
aI0
aa(lp2570
I0
aI0
aI0
aI0
aI0
aa(lp2571
I0
aI0
aI0
aI0
aI0
aa(lp2572
I1
aI0
aI0
aI0
aI0
aa(lp2573
I1
aI0
aI2
aI0
aI0
aa(lp2574
I1
aI0
aI1
aI0
aI0
aa(lp2575
I0
aI0
aI1
aI0
aI0
aa(lp2576
I0
aI1
aI0
aI0
aI0
aa(lp2577
I0
aI3
aI0
aI0
aI0
aa(lp2578
I1
aI1
aI0
aI0
aI0
aa(lp2579
I2
aI1
aI1
aI0
aI0
aa(lp2580
I2
aI5
aI1
aI0
aI0
aa(lp2581
I2
aI2
aI1
aI0
aI0
aa(lp2582
I2
aI4
aI1
aI0
aI0
aa(lp2583
I0
aI0
aI1
aI0
aI0
aa(lp2584
I3
aI0
aI0
aI0
aI2
aa(lp2585
I3
aI2
aI0
aI0
aI3
aa(lp2586
I2
aI3
aI1
aI0
aI0
aa(lp2587
I1
aI1
aI1
aI0
aI0
aa(lp2588
I3
aI2
aI3
aI0
aI0
aa(lp2589
I2
aI2
aI2
aI0
aI0
aa(lp2590
I2
aI3
aI1
aI0
aI0
aa(lp2591
I0
aI2
aI0
aI0
aI0
aa(lp2592
I0
aI3
aI1
aI0
aI0
aa(lp2593
I3
aI3
aI1
aI0
aI1
aa(lp2594
I2
aI4
aI0
aI0
aI0
aa(lp2595
I3
aI2
aI0
aI0
aI1
aa(lp2596
I1
aI1
aI0
aI0
aI1
aa(lp2597
I1
aI0
aI0
aI0
aI1
aa(lp2598
I2
aI0
aI1
aI0
aI1
aa(lp2599
I1
aI0
aI1
aI0
aI0
aa(lp2600
I1
aI6
aI2
aI0
aI0
aa(lp2601
I0
aI2
aI0
aI0
aI0
aa(lp2602
I2
aI1
aI1
aI0
aI0
aa(lp2603
I2
aI4
aI0
aI0
aI0
aa(lp2604
I2
aI2
aI0
aI0
aI0
aa(lp2605
I0
aI0
aI0
aI0
aI0
aa(lp2606
I4
aI0
aI1
aI0
aI1
aa(lp2607
I3
aI1
aI1
aI0
aI0
aa(lp2608
I2
aI3
aI1
aI0
aI1
aa(lp2609
I2
aI4
aI0
aI0
aI1
aa(lp2610
I5
aI3
aI1
aI0
aI0
aa(lp2611
I0
aI2
aI1
aI0
aI0
aa(lp2612
I3
aI0
aI1
aI0
aI0
aa(lp2613
I3
aI1
aI0
aI0
aI1
aa(lp2614
I2
aI3
aI0
aI0
aI2
aa(lp2615
I1
aI3
aI1
aI0
aI0
aa(lp2616
I0
aI2
aI0
aI0
aI1
aa(lp2617
I3
aI1
aI1
aI0
aI0
aa(lp2618
I0
aI2
aI0
aI0
aI0
aa(lp2619
I1
aI0
aI2
aI0
aI1
aa(lp2620
I1
aI2
aI2
aI0
aI0
aa(lp2621
I1
aI0
aI2
aI0
aI0
aa(lp2622
I3
aI3
aI1
aI0
aI1
aa(lp2623
I0
aI0
aI2
aI0
aI0
aa(lp2624
I4
aI3
aI0
aI1
aI1
aa(lp2625
I3
aI2
aI0
aI1
aI1
aa(lp2626
I0
aI1
aI2
aI1
aI0
aa(lp2627
I3
aI3
aI1
aI0
aI0
aa(lp2628
I5
aI2
aI4
aI0
aI0
aa(lp2629
I2
aI2
aI0
aI0
aI0
aa(lp2630
I1
aI6
aI0
aI0
aI1
aa(lp2631
I3
aI3
aI1
aI0
aI0
aa(lp2632
I1
aI2
aI0
aI0
aI0
aa(lp2633
I1
aI4
aI1
aI1
aI0
aa(lp2634
I3
aI2
aI0
aI0
aI0
aa(lp2635
I1
aI4
aI0
aI0
aI1
aa(lp2636
I0
aI5
aI0
aI0
aI0
aa(lp2637
I2
aI4
aI0
aI1
aI0
aa(lp2638
I1
aI2
aI1
aI0
aI1
aa(lp2639
I1
aI0
aI2
aI0
aI0
aa(lp2640
I3
aI4
aI1
aI0
aI1
aa(lp2641
I5
aI1
aI1
aI0
aI3
aa(lp2642
I0
aI2
aI0
aI0
aI0
aa(lp2643
I1
aI1
aI0
aI0
aI0
aa(lp2644
I1
aI1
aI2
aI0
aI1
aa(lp2645
I0
aI1
aI0
aI0
aI1
aa(lp2646
I1
aI4
aI1
aI0
aI1
aa(lp2647
I3
aI1
aI0
aI0
aI0
aa(lp2648
I5
aI2
aI1
aI0
aI1
aa(lp2649
I1
aI0
aI1
aI0
aI1
aa(lp2650
I6
aI1
aI2
aI0
aI1
aa(lp2651
I1
aI6
aI0
aI0
aI0
aa(lp2652
I3
aI0
aI0
aI0
aI0
aa(lp2653
I0
aI1
aI0
aI0
aI1
aa(lp2654
I1
aI3
aI2
aI0
aI0
aa(lp2655
I4
aI2
aI1
aI0
aI0
aa(lp2656
I1
aI3
aI1
aI0
aI1
aa(lp2657
I0
aI0
aI5
aI0
aI0
aa(lp2658
I2
aI4
aI0
aI0
aI1
aa(lp2659
I2
aI4
aI1
aI0
aI0
aa(lp2660
I6
aI2
aI0
aI0
aI1
aa(lp2661
I2
aI2
aI2
aI1
aI1
aa(lp2662
I0
aI9
aI1
aI0
aI1
aa(lp2663
I6
aI6
aI1
aI1
aI1
aa(lp2664
I3
aI4
aI0
aI0
aI2
aa(lp2665
I2
aI1
aI3
aI0
aI2
aa(lp2666
I7
aI4
aI2
aI0
aI1
aa(lp2667
I5
aI2
aI2
aI0
aI0
aa(lp2668
I1
aI1
aI0
aI0
aI0
aa(lp2669
I1
aI1
aI0
aI0
aI1
aa(lp2670
I1
aI2
aI2
aI0
aI1
aa(lp2671
I3
aI5
aI0
aI0
aI2
aa(lp2672
I2
aI1
aI0
aI0
aI0
aa(lp2673
I1
aI1
aI2
aI0
aI0
aa(lp2674
I5
aI1
aI2
aI0
aI3
aa(lp2675
I1
aI4
aI2
aI0
aI1
aa(lp2676
I0
aI2
aI2
aI1
aI0
aa(lp2677
I3
aI2
aI0
aI0
aI0
aa(lp2678
I4
aI7
aI1
aI0
aI1
aa(lp2679
I2
aI2
aI1
aI0
aI2
aa(lp2680
I1
aI0
aI1
aI0
aI1
aa(lp2681
I2
aI4
aI1
aI0
aI2
aa(lp2682
I4
aI2
aI2
aI1
aI2
aa(lp2683
I1
aI5
aI3
aI0
aI2
aa(lp2684
I3
aI2
aI0
aI0
aI2
aa(lp2685
I3
aI2
aI3
aI0
aI1
aa(lp2686
I3
aI2
aI1
aI0
aI0
aa(lp2687
I4
aI4
aI6
aI1
aI2
aa(lp2688
I3
aI4
aI4
aI0
aI3
aa(lp2689
I2
aI3
aI0
aI0
aI1
aa(lp2690
I3
aI1
aI3
aI0
aI0
aa(lp2691
I1
aI2
aI0
aI0
aI1
aa(lp2692
I2
aI3
aI4
aI0
aI2
aa(lp2693
I2
aI2
aI5
aI0
aI1
aa(lp2694
I1
aI4
aI2
aI0
aI2
aa(lp2695
I3
aI0
aI0
aI0
aI1
aa(lp2696
I2
aI5
aI0
aI0
aI0
aa(lp2697
I3
aI5
aI0
aI0
aI0
aa(lp2698
I3
aI4
aI4
aI1
aI1
aa(lp2699
I3
aI1
aI1
aI1
aI0
aa(lp2700
I5
aI5
aI0
aI0
aI0
aa(lp2701
I2
aI5
aI0
aI0
aI2
aa(lp2702
I8
aI5
aI6
aI0
aI2
aa(lp2703
I0
aI2
aI0
aI0
aI0
aa(lp2704
I4
aI4
aI4
aI0
aI2
aa(lp2705
I6
aI1
aI2
aI0
aI0
aa(lp2706
I2
aI5
aI0
aI0
aI3
aa(lp2707
I5
aI6
aI1
aI0
aI0
aa(lp2708
I3
aI2
aI3
aI0
aI2
aa(lp2709
I8
aI3
aI3
aI0
aI2
aa(lp2710
I3
aI2
aI1
aI0
aI0
aa(lp2711
I2
aI6
aI3
aI0
aI1
aa(lp2712
I6
aI4
aI2
aI1
aI3
aa(lp2713
I1
aI5
aI3
aI0
aI2
aa(lp2714
I8
aI4
aI1
aI0
aI0
aa(lp2715
I2
aI2
aI5
aI2
aI1
aa(lp2716
I5
aI3
aI5
aI0
aI3
aa(lp2717
I4
aI2
aI1
aI0
aI1
aa(lp2718
I3
aI2
aI3
aI0
aI4
aa(lp2719
I3
aI3
aI1
aI1
aI1
aa(lp2720
I6
aI3
aI1
aI0
aI0
aa(lp2721
I3
aI2
aI2
aI0
aI2
aa(lp2722
I1
aI0
aI0
aI0
aI1
aa(lp2723
I1
aI1
aI0
aI0
aI1
aa(lp2724
I3
aI1
aI0
aI1
aI2
aa(lp2725
I6
aI3
aI5
aI0
aI2
aa(lp2726
I4
aI3
aI2
aI0
aI1
aa(lp2727
I5
aI3
aI3
aI0
aI0
aa(lp2728
I3
aI2
aI0
aI0
aI4
aa(lp2729
I2
aI3
aI5
aI0
aI3
aa(lp2730
I3
aI2
aI1
aI0
aI0
aa(lp2731
I4
aI4
aI4
aI0
aI1
aa(lp2732
I6
aI5
aI1
aI0
aI3
aa(lp2733
I5
aI5
aI4
aI1
aI3
aa(lp2734
I8
aI6
aI1
aI0
aI1
aa(lp2735
I5
aI4
aI1
aI0
aI2
aa(lp2736
I4
aI2
aI4
aI0
aI2
aa(lp2737
I1
aI1
aI3
aI0
aI1
aa(lp2738
I3
aI2
aI2
aI0
aI3
aa(lp2739
I3
aI1
aI7
aI0
aI2
aa(lp2740
I6
aI3
aI2
aI0
aI1
aa(lp2741
I5
aI3
aI2
aI0
aI1
aa(lp2742
I5
aI0
aI0
aI0
aI2
aa(lp2743
I2
aI4
aI2
aI0
aI0
aa(lp2744
I6
aI1
aI3
aI0
aI1
aa(lp2745
I6
aI5
aI2
aI0
aI1
aa(lp2746
I9
aI4
aI2
aI1
aI2
aa(lp2747
I4
aI5
aI0
aI0
aI2
aa(lp2748
I6
aI1
aI5
aI1
aI1
aa(lp2749
I10
aI4
aI3
aI0
aI2
aa(lp2750
I8
aI2
aI5
aI0
aI2
aa(lp2751
I2
aI1
aI1
aI0
aI1
aa(lp2752
I3
aI0
aI2
aI0
aI0
aa(lp2753
I0
aI8
aI3
aI0
aI0
aa(lp2754
I6
aI6
aI1
aI0
aI1
aa(lp2755
I3
aI7
aI4
aI1
aI2
aa(lp2756
I7
aI2
aI1
aI0
aI4
aa(lp2757
I6
aI6
aI2
aI0
aI2
aa(lp2758
I9
aI6
aI4
aI0
aI2
aa(lp2759
I1
aI2
aI3
aI0
aI2
aa(lp2760
I14
aI6
aI5
aI0
aI1
aa(lp2761
I7
aI2
aI2
aI0
aI3
aa(lp2762
I4
aI4
aI1
aI1
aI2
aa(lp2763
I5
aI2
aI3
aI0
aI1
aa(lp2764
I7
aI7
aI2
aI0
aI3
aa(lp2765
I4
aI1
aI0
aI0
aI1
aa(lp2766
I2
aI0
aI3
aI0
aI0
aa(lp2767
I3
aI3
aI4
aI0
aI1
aa(lp2768
I7
aI1
aI1
aI1
aI2
aa(lp2769
I1
aI4
aI0
aI0
aI6
aa(lp2770
I7
aI1
aI3
aI1
aI1
aa(lp2771
I15
aI4
aI3
aI0
aI1
aa(lp2772
I6
aI2
aI2
aI1
aI1
aa(lp2773
I5
aI4
aI2
aI0
aI1
aa(lp2774
I8
aI6
aI3
aI1
aI2
aa(lp2775
I7
aI6
aI4
aI0
aI1
aa(lp2776
I7
aI3
aI3
aI0
aI3
aa(lp2777
I3
aI6
aI4
aI0
aI1
aa(lp2778
I7
aI6
aI5
aI0
aI3
aa(lp2779
I4
aI0
aI1
aI0
aI3
aa(lp2780
I5
aI4
aI3
aI0
aI1
aa(lp2781
I7
aI1
aI6
aI0
aI2
aa(lp2782
I4
aI5
aI2
aI0
aI1
aa(lp2783
I3
aI4
aI3
aI0
aI1
aa(lp2784
I4
aI5
aI3
aI1
aI2
aa(lp2785
I5
aI4
aI3
aI1
aI2
aa(lp2786
I6
aI3
aI1
aI0
aI1
aa(lp2787
I3
aI0
aI3
aI0
aI1
aa(lp2788
I6
aI5
aI3
aI0
aI2
aa(lp2789
I7
aI4
aI5
aI0
aI1
aa(lp2790
I3
aI6
aI3
aI0
aI1
aa(lp2791
I2
aI6
aI3
aI0
aI3
aa(lp2792
I8
aI1
aI4
aI1
aI1
aa(lp2793
I4
aI2
aI3
aI0
aI2
aa(lp2794
I4
aI3
aI3
aI0
aI1
aa(lp2795
I11
aI4
aI2
aI0
aI2
aa(lp2796
I5
aI6
aI4
aI0
aI1
aa(lp2797
I11
aI2
aI3
aI0
aI3
aa(lp2798
I1
aI1
aI3
aI0
aI2
aa(lp2799
I3
aI3
aI4
aI1
aI1
aa(lp2800
I5
aI2
aI2
aI0
aI0
aa(lp2801
I5
aI1
aI1
aI0
aI1
aa(lp2802
I4
aI3
aI0
aI0
aI0
aa(lp2803
I0
aI5
aI2
aI1
aI2
aa(lp2804
I7
aI3
aI5
aI1
aI1
aa(lp2805
I8
aI5
aI4
aI1
aI2
aa(lp2806
I5
aI4
aI3
aI1
aI1
aa(lp2807
I11
aI2
aI2
aI0
aI0
aa(lp2808
I5
aI1
aI3
aI1
aI2
aa(lp2809
I6
aI4
aI2
aI0
aI2
aa(lp2810
I5
aI2
aI2
aI0
aI1
aa(lp2811
I2
aI0
aI3
aI0
aI1
aa(lp2812
I5
aI8
aI2
aI0
aI1
aa(lp2813
I9
aI5
aI2
aI0
aI1
aa(lp2814
I3
aI2
aI2
aI0
aI3
aa(lp2815
I3
aI4
aI1
aI0
aI0
aa(lp2816
I4
aI5
aI3
aI0
aI4
aa(lp2817
I0
aI6
aI6
aI2
aI2
aa(lp2818
I9
aI2
aI1
aI0
aI1
aa(lp2819
I4
aI4
aI2
aI1
aI0
aa(lp2820
I2
aI5
aI2
aI0
aI2
aa(lp2821
I7
aI5
aI4
aI0
aI4
aa(lp2822
I3
aI2
aI2
aI1
aI0
aa(lp2823
I5
aI6
aI4
aI0
aI0
aa(lp2824
I7
aI4
aI1
aI0
aI1
aa(lp2825
I1
aI3
aI1
aI0
aI1
aa(lp2826
I2
aI4
aI3
aI0
aI1
aa(lp2827
I2
aI2
aI3
aI0
aI1
aa(lp2828
I6
aI2
aI3
aI0
aI0
aa(lp2829
I3
aI3
aI3
aI0
aI1
aa(lp2830
I7
aI1
aI0
aI0
aI0
aa(lp2831
I6
aI2
aI0
aI0
aI1
aa(lp2832
I3
aI1
aI1
aI0
aI1
aa(lp2833
I5
aI6
aI1
aI0
aI1
aa(lp2834
I4
aI5
aI2
aI0
aI1
aa(lp2835
I7
aI2
aI0
aI1
aI2
aa(lp2836
I1
aI3
aI1
aI1
aI2
aa(lp2837
I2
aI4
aI2
aI0
aI0
aa(lp2838
I3
aI2
aI2
aI0
aI0
aa(lp2839
I3
aI2
aI0
aI1
aI2
aa(lp2840
I5
aI3
aI2
aI0
aI3
aa(lp2841
I4
aI5
aI0
aI0
aI0
aa(lp2842
I6
aI3
aI0
aI0
aI0
aa(lp2843
I3
aI1
aI0
aI0
aI1
aa(lp2844
I3
aI3
aI4
aI0
aI2
aa(lp2845
I2
aI4
aI0
aI0
aI2
aa(lp2846
I3
aI3
aI1
aI0
aI1
aa(lp2847
I6
aI3
aI3
aI1
aI0
aa(lp2848
I2
aI5
aI1
aI0
aI0
aa(lp2849
I3
aI3
aI0
aI0
aI1
aa(lp2850
I2
aI3
aI0
aI0
aI0
aa(lp2851
I4
aI1
aI1
aI1
aI2
aa(lp2852
I2
aI1
aI0
aI0
aI0
aa(lp2853
I3
aI4
aI1
aI0
aI0
aa(lp2854
I4
aI3
aI1
aI0
aI0
aa(lp2855
I1
aI3
aI0
aI0
aI0
aa(lp2856
I0
aI3
aI2
aI0
aI0
aa(lp2857
I5
aI1
aI2
aI0
aI1
aa(lp2858
I4
aI4
aI1
aI0
aI1
aa(lp2859
I2
aI2
aI1
aI0
aI2
aa(lp2860
I3
aI1
aI0
aI0
aI1
aa(lp2861
I1
aI0
aI1
aI0
aI1
aa(lp2862
I1
aI2
aI0
aI1
aI1
aa(lp2863
I1
aI3
aI1
aI0
aI2
aa(lp2864
I2
aI4
aI3
aI0
aI2
aa(lp2865
I1
aI1
aI1
aI0
aI0
aa(lp2866
I2
aI3
aI1
aI0
aI1
aa(lp2867
I0
aI4
aI0
aI0
aI0
aa(lp2868
I2
aI6
aI0
aI0
aI0
aa(lp2869
I2
aI1
aI3
aI0
aI0
aa(lp2870
I4
aI2
aI1
aI0
aI2
aa(lp2871
I6
aI3
aI1
aI0
aI1
aa(lp2872
I3
aI3
aI4
aI0
aI0
aa(lp2873
I0
aI2
aI0
aI0
aI0
aa(lp2874
I4
aI5
aI1
aI0
aI0
aa(lp2875
I0
aI1
aI1
aI0
aI0
aa(lp2876
I3
aI2
aI0
aI0
aI0
aa(lp2877
I1
aI2
aI0
aI0
aI0
aa(lp2878
I0
aI1
aI0
aI0
aI0
aa(lp2879
I2
aI2
aI2
aI0
aI0
aa(lp2880
I3
aI2
aI0
aI1
aI0
aa(lp2881
I3
aI3
aI2
aI0
aI0
aa(lp2882
I5
aI0
aI2
aI0
aI0
aa(lp2883
I3
aI4
aI1
aI0
aI1
aa(lp2884
I1
aI2
aI0
aI0
aI1
aa(lp2885
I0
aI2
aI1
aI0
aI0
aa(lp2886
I3
aI1
aI1
aI1
aI0
aa(lp2887
I2
aI6
aI1
aI0
aI1
aa(lp2888
I3
aI1
aI1
aI0
aI0
aa(lp2889
I1
aI2
aI2
aI0
aI0
aa(lp2890
I1
aI3
aI0
aI0
aI0
aa(lp2891
I0
aI0
aI0
aI0
aI1
aa(lp2892
I0
aI0
aI0
aI0
aI0
aa(lp2893
I2
aI1
aI1
aI0
aI0
aa(lp2894
I1
aI0
aI0
aI0
aI0
aa(lp2895
I1
aI4
aI0
aI0
aI1
aa(lp2896
I0
aI1
aI0
aI0
aI0
aa(lp2897
I1
aI2
aI0
aI0
aI0
aa(lp2898
I1
aI0
aI0
aI0
aI0
aa(lp2899
I2
aI2
aI1
aI0
aI0
aa(lp2900
I3
aI3
aI1
aI0
aI0
aa(lp2901
I2
aI1
aI0
aI0
aI0
aa(lp2902
I0
aI0
aI2
aI0
aI0
aa(lp2903
I2
aI2
aI0
aI0
aI0
aa(lp2904
I3
aI2
aI2
aI0
aI0
aa(lp2905
I1
aI2
aI0
aI0
aI0
aa(lp2906
I1
aI3
aI0
aI0
aI0
aa(lp2907
I3
aI0
aI0
aI0
aI2
aa(lp2908
I1
aI2
aI2
aI0
aI0
aa(lp2909
I1
aI1
aI1
aI0
aI0
aa(lp2910
I0
aI3
aI1
aI0
aI0
aa(lp2911
I2
aI1
aI1
aI0
aI0
aa(lp2912
I1
aI0
aI0
aI0
aI0
aa(lp2913
I1
aI0
aI3
aI0
aI0
aa(lp2914
I2
aI1
aI0
aI0
aI0
aa(lp2915
I2
aI2
aI0
aI0
aI0
aa(lp2916
I0
aI0
aI0
aI0
aI0
aa(lp2917
I0
aI3
aI0
aI0
aI0
aa(lp2918
I1
aI1
aI0
aI0
aI0
aa(lp2919
I0
aI1
aI0
aI0
aI1
aa(lp2920
I2
aI2
aI0
aI0
aI2
aa(lp2921
I2
aI0
aI1
aI0
aI0
aa(lp2922
I0
aI0
aI1
aI0
aI0
aa(lp2923
I0
aI0
aI1
aI0
aI0
aa(lp2924
I0
aI5
aI1
aI0
aI0
aa(lp2925
I1
aI2
aI1
aI0
aI1
aa(lp2926
I2
aI2
aI1
aI0
aI1
aa(lp2927
I1
aI2
aI0
aI0
aI0
aa(lp2928
I0
aI1
aI1
aI0
aI0
aa(lp2929
I2
aI1
aI1
aI0
aI0
aa(lp2930
I2
aI1
aI2
aI0
aI0
aa(lp2931
I2
aI0
aI2
aI0
aI0
aa(lp2932
I2
aI2
aI0
aI0
aI0
aa(lp2933
I1
aI1
aI0
aI1
aI1
aa(lp2934
I3
aI0
aI0
aI0
aI0
aa(lp2935
I0
aI2
aI3
aI1
aI0
aa(lp2936
I0
aI2
aI0
aI0
aI4
aa(lp2937
I0
aI1
aI2
aI0
aI0
aa(lp2938
I1
aI4
aI0
aI0
aI0
aa(lp2939
I1
aI2
aI0
aI0
aI0
aa(lp2940
I1
aI1
aI0
aI0
aI0
aa(lp2941
I1
aI1
aI0
aI0
aI0
aa(lp2942
I1
aI1
aI0
aI0
aI0
aa(lp2943
I1
aI2
aI2
aI0
aI0
aa(lp2944
I0
aI3
aI0
aI0
aI0
aa(lp2945
I0
aI0
aI0
aI0
aI1
aa(lp2946
I1
aI2
aI0
aI0
aI0
aa(lp2947
I1
aI0
aI0
aI0
aI1
aa(lp2948
I0
aI3
aI0
aI0
aI0
aa(lp2949
I2
aI0
aI1
aI0
aI1
aa(lp2950
I1
aI1
aI0
aI0
aI0
aa(lp2951
I0
aI2
aI0
aI0
aI0
aa(lp2952
I2
aI2
aI0
aI0
aI0
aa(lp2953
I0
aI2
aI0
aI0
aI0
aa(lp2954
I5
aI1
aI0
aI0
aI1
aa(lp2955
I2
aI1
aI1
aI0
aI0
aa(lp2956
I0
aI1
aI1
aI0
aI0
aa(lp2957
I2
aI5
aI0
aI0
aI0
aa(lp2958
I0
aI2
aI1
aI0
aI0
aa(lp2959
I3
aI2
aI0
aI0
aI1
aa(lp2960
I1
aI1
aI0
aI0
aI0
aa(lp2961
I0
aI0
aI0
aI0
aI0
aa(lp2962
I0
aI1
aI1
aI0
aI0
aa(lp2963
I1
aI1
aI0
aI0
aI0
aa(lp2964
I0
aI1
aI0
aI0
aI0
aa(lp2965
I1
aI3
aI0
aI0
aI0
aa(lp2966
I1
aI2
aI1
aI0
aI0
aa(lp2967
I1
aI4
aI0
aI0
aI0
aa(lp2968
I1
aI0
aI0
aI0
aI0
aa(lp2969
I0
aI0
aI0
aI0
aI0
aa(lp2970
I0
aI1
aI0
aI0
aI0
aa(lp2971
I0
aI1
aI0
aI0
aI0
aa(lp2972
I0
aI0
aI0
aI0
aI0
aa(lp2973
I1
aI1
aI1
aI0
aI0
aa(lp2974
I1
aI1
aI0
aI0
aI0
aa(lp2975
I0
aI2
aI0
aI0
aI0
aa(lp2976
I3
aI1
aI1
aI0
aI0
aa(lp2977
I0
aI0
aI1
aI0
aI1
aa(lp2978
I1
aI1
aI0
aI0
aI0
aa(lp2979
I1
aI3
aI0
aI0
aI0
aa(lp2980
I0
aI0
aI0
aI0
aI0
aa(lp2981
I3
aI1
aI2
aI0
aI1
aa(lp2982
I1
aI1
aI1
aI0
aI0
aa(lp2983
I1
aI3
aI0
aI0
aI1
aa(lp2984
I1
aI2
aI1
aI0
aI0
aa(lp2985
I1
aI2
aI0
aI0
aI0
aa(lp2986
I2
aI0
aI1
aI0
aI0
aa(lp2987
I0
aI0
aI0
aI0
aI0
aa(lp2988
I1
aI0
aI1
aI0
aI0
aa(lp2989
I1
aI1
aI1
aI0
aI1
aa(lp2990
I0
aI1
aI1
aI0
aI1
aa(lp2991
I1
aI2
aI1
aI0
aI0
aa(lp2992
I1
aI0
aI0
aI0
aI0
aa(lp2993
I1
aI3
aI0
aI0
aI0
aa(lp2994
I0
aI3
aI1
aI0
aI0
aa(lp2995
I2
aI3
aI0
aI0
aI0
aa(lp2996
I3
aI0
aI2
aI0
aI0
aa(lp2997
I2
aI1
aI0
aI0
aI0
aa(lp2998
I2
aI1
aI1
aI1
aI0
aa(lp2999
I5
aI0
aI2
aI0
aI1
aa(lp3000
I3
aI1
aI0
aI1
aI0
aa(lp3001
I1
aI3
aI0
aI0
aI0
aa(lp3002
I1
aI0
aI2
aI0
aI0
aa(lp3003
I2
aI1
aI0
aI0
aI0
aa(lp3004
I0
aI1
aI0
aI0
aI0
aa(lp3005
I1
aI4
aI2
aI0
aI0
aa(lp3006
I0
aI1
aI0
aI0
aI0
aa(lp3007
I4
aI4
aI0
aI0
aI0
aa(lp3008
I1
aI0
aI2
aI0
aI1
aa(lp3009
I2
aI5
aI0
aI0
aI0
aa(lp3010
I4
aI0
aI0
aI0
aI1
aa(lp3011
I0
aI0
aI0
aI0
aI0
aa(lp3012
I2
aI0
aI2
aI0
aI1
aa(lp3013
I0
aI1
aI2
aI0
aI0
aa(lp3014
I1
aI0
aI0
aI0
aI0
aa(lp3015
I2
aI2
aI1
aI0
aI0
aa(lp3016
I4
aI2
aI0
aI0
aI0
aa(lp3017
I0
aI1
aI1
aI0
aI0
aa(lp3018
I2
aI0
aI1
aI0
aI1
aa(lp3019
I0
aI0
aI0
aI0
aI0
aa(lp3020
I0
aI0
aI0
aI0
aI1
aa(lp3021
I3
aI0
aI0
aI1
aI0
aa(lp3022
I2
aI0
aI1
aI0
aI0
aa(lp3023
I0
aI0
aI0
aI0
aI0
aa(lp3024
I2
aI0
aI2
aI0
aI1
aa(lp3025
I2
aI1
aI1
aI0
aI1
aa(lp3026
I4
aI1
aI3
aI0
aI0
aa(lp3027
I3
aI4
aI2
aI0
aI1
aa(lp3028
I5
aI3
aI2
aI0
aI2
aa(lp3029
I1
aI2
aI0
aI0
aI0
aa(lp3030
I3
aI1
aI1
aI0
aI0
aa(lp3031
I1
aI4
aI0
aI0
aI0
aa(lp3032
I1
aI2
aI0
aI0
aI1
aa(lp3033
I5
aI2
aI1
aI0
aI0
aa(lp3034
I2
aI2
aI3
aI0
aI1
aa(lp3035
I1
aI2
aI1
aI0
aI3
aa(lp3036
I2
aI3
aI3
aI0
aI0
aa(lp3037
I0
aI2
aI3
aI1
aI0
aa(lp3038
I2
aI0
aI1
aI0
aI0
aa(lp3039
I3
aI3
aI1
aI0
aI0
aa(lp3040
I4
aI1
aI0
aI0
aI0
aa(lp3041
I4
aI0
aI1
aI0
aI0
aa(lp3042
I3
aI2
aI3
aI1
aI2
aa(lp3043
I3
aI1
aI1
aI0
aI0
aa(lp3044
I5
aI3
aI0
aI0
aI2
aa(lp3045
I2
aI1
aI2
aI0
aI1
aa(lp3046
I4
aI3
aI2
aI1
aI2
aa(lp3047
I2
aI3
aI2
aI0
aI0
aa(lp3048
I2
aI5
aI1
aI0
aI0
aa(lp3049
I3
aI4
aI0
aI0
aI2
aa(lp3050
I2
aI0
aI4
aI0
aI0
aa(lp3051
I8
aI7
aI1
aI0
aI1
aa(lp3052
I1
aI4
aI0
aI1
aI4
aa(lp3053
I2
aI2
aI0
aI0
aI2
aa(lp3054
I4
aI4
aI1
aI0
aI0
aa(lp3055
I3
aI4
aI1
aI0
aI2
aa(lp3056
I3
aI4
aI2
aI0
aI1
aa(lp3057
I2
aI2
aI1
aI0
aI2
aa(lp3058
I1
aI3
aI2
aI0
aI0
aa(lp3059
I2
aI1
aI1
aI0
aI0
aa(lp3060
I4
aI2
aI0
aI0
aI2
aa(lp3061
I4
aI1
aI4
aI0
aI2
aa(lp3062
I7
aI3
aI0
aI0
aI0
aa(lp3063
I4
aI4
aI1
aI0
aI1
aa(lp3064
I1
aI2
aI0
aI0
aI2
aa(lp3065
I3
aI3
aI2
aI0
aI0
aa(lp3066
I2
aI2
aI1
aI0
aI3
aa(lp3067
I0
aI2
aI2
aI0
aI1
aa(lp3068
I0
aI0
aI0
aI0
aI0
aa(lp3069
I4
aI3
aI0
aI0
aI0
aa(lp3070
I2
aI3
aI0
aI0
aI0
aa(lp3071
I1
aI4
aI3
aI0
aI2
aa(lp3072
I1
aI4
aI0
aI0
aI3
aa(lp3073
I3
aI2
aI1
aI0
aI0
aa(lp3074
I0
aI1
aI0
aI0
aI0
aa(lp3075
I7
aI3
aI0
aI0
aI0
aa(lp3076
I4
aI3
aI1
aI0
aI1
aa(lp3077
I2
aI2
aI0
aI0
aI1
aa(lp3078
I5
aI6
aI0
aI0
aI0
aa(lp3079
I3
aI6
aI3
aI0
aI2
aa(lp3080
I4
aI1
aI0
aI0
aI1
aa(lp3081
I5
aI3
aI0
aI0
aI0
aa(lp3082
I8
aI5
aI1
aI1
aI6
aa(lp3083
I0
aI7
aI0
aI0
aI0
aa(lp3084
I6
aI4
aI0
aI0
aI0
aa(lp3085
I6
aI4
aI1
aI0
aI1
aa(lp3086
I4
aI5
aI1
aI0
aI1
aa(lp3087
I5
aI4
aI1
aI0
aI1
aa(lp3088
I5
aI3
aI3
aI0
aI0
aa(lp3089
I6
aI3
aI3
aI0
aI1
aa(lp3090
I1
aI9
aI2
aI0
aI2
aa(lp3091
I1
aI0
aI1
aI0
aI0
aa(lp3092
I3
aI7
aI3
aI0
aI0
aa(lp3093
I6
aI3
aI3
aI0
aI0
aa(lp3094
I4
aI1
aI0
aI0
aI2
aa(lp3095
I4
aI1
aI4
aI0
aI0
aa(lp3096
I7
aI3
aI5
aI0
aI2
aa(lp3097
I5
aI0
aI1
aI0
aI3
aa(lp3098
I2
aI3
aI6
aI0
aI4
aa(lp3099
I3
aI0
aI2
aI0
aI4
aa(lp3100
I5
aI3
aI1
aI1
aI1
aa(lp3101
I5
aI4
aI5
aI1
aI3
aa(lp3102
I8
aI4
aI0
aI0
aI1
aa(lp3103
I6
aI6
aI3
aI0
aI4
aa(lp3104
I12
aI8
aI1
aI0
aI0
aa(lp3105
I9
aI4
aI2
aI0
aI2
aa(lp3106
I10
aI3
aI8
aI0
aI2
aa(lp3107
I5
aI0
aI2
aI1
aI1
aa(lp3108
I3
aI3
aI2
aI0
aI0
aa(lp3109
I4
aI2
aI1
aI1
aI2
aa(lp3110
I8
aI7
aI4
aI0
aI2
aa(lp3111
I4
aI6
aI6
aI0
aI2
aa(lp3112
I9
aI6
aI4
aI1
aI0
aa(lp3113
I3
aI7
aI1
aI0
aI1
aa(lp3114
I4
aI3
aI1
aI0
aI4
aa(lp3115
I9
aI2
aI3
aI1
aI2
aa(lp3116
I6
aI2
aI3
aI0
aI2
aa(lp3117
I6
aI5
aI1
aI2
aI3
aa(lp3118
I2
aI9
aI2
aI0
aI2
aa(lp3119
I3
aI2
aI1
aI0
aI2
aa(lp3120
I13
aI3
aI2
aI1
aI1
aa(lp3121
I8
aI3
aI2
aI0
aI3
aa(lp3122
I6
aI2
aI0
aI1
aI2
aa(lp3123
I6
aI2
aI2
aI0
aI1
aa(lp3124
I3
aI2
aI4
aI0
aI1
aa(lp3125
I3
aI7
aI3
aI0
aI1
aa(lp3126
I5
aI7
aI1
aI0
aI2
aa(lp3127
I8
aI3
aI3
aI0
aI1
aa(lp3128
I2
aI3
aI5
aI1
aI1
aa(lp3129
I5
aI3
aI5
aI0
aI3
aa(lp3130
I3
aI0
aI3
aI0
aI1
aa(lp3131
I4
aI0
aI8
aI0
aI3
aa(lp3132
I5
aI3
aI1
aI0
aI1
aa(lp3133
I3
aI5
aI4
aI1
aI2
aa(lp3134
I3
aI11
aI0
aI0
aI4
aa(lp3135
I2
aI3
aI0
aI0
aI0
aa(lp3136
I7
aI2
aI2
aI0
aI4
aa(lp3137
I5
aI4
aI1
aI0
aI0
aa(lp3138
I2
aI6
aI0
aI1
aI1
aa(lp3139
I5
aI2
aI1
aI0
aI0
aa(lp3140
I8
aI7
aI2
aI0
aI2
aa(lp3141
I6
aI4
aI2
aI0
aI2
aa(lp3142
I7
aI6
aI2
aI1
aI3
aa(lp3143
I4
aI2
aI3
aI0
aI1
aa(lp3144
I3
aI3
aI3
aI0
aI0
aa(lp3145
I7
aI7
aI0
aI0
aI1
aa(lp3146
I6
aI4
aI2
aI0
aI2
aa(lp3147
I8
aI1
aI4
aI1
aI2
aa(lp3148
I2
aI4
aI2
aI0
aI2
aa(lp3149
I4
aI0
aI5
aI0
aI1
aa(lp3150
I4
aI6
aI5
aI0
aI3
aa(lp3151
I3
aI1
aI3
aI0
aI0
aa(lp3152
I10
aI2
aI4
aI1
aI4
aa(lp3153
I5
aI4
aI1
aI0
aI0
aa(lp3154
I10
aI0
aI1
aI0
aI1
aa(lp3155
I8
aI4
aI4
aI1
aI1
aa(lp3156
I5
aI6
aI1
aI0
aI2
aa(lp3157
I8
aI1
aI3
aI0
aI2
aa(lp3158
I3
aI2
aI2
aI0
aI4
aa(lp3159
I10
aI4
aI3
aI0
aI0
aa(lp3160
I7
aI6
aI2
aI1
aI0
aa(lp3161
I4
aI4
aI3
aI0
aI0
aa(lp3162
I8
aI5
aI0
aI0
aI1
aa(lp3163
I5
aI3
aI3
aI0
aI1
aa(lp3164
I4
aI2
aI3
aI0
aI1
aa(lp3165
I3
aI1
aI2
aI0
aI0
aa(lp3166
I5
aI3
aI1
aI0
aI1
aa(lp3167
I1
aI2
aI0
aI0
aI2
aa(lp3168
I5
aI3
aI2
aI0
aI1
aa(lp3169
I4
aI0
aI1
aI0
aI2
aa(lp3170
I5
aI6
aI3
aI2
aI5
aa(lp3171
I5
aI4
aI0
aI0
aI4
aa(lp3172
I5
aI4
aI3
aI1
aI3
aa(lp3173
I3
aI3
aI1
aI0
aI3
aa(lp3174
I3
aI6
aI1
aI0
aI1
aa(lp3175
I4
aI3
aI1
aI0
aI1
aa(lp3176
I6
aI8
aI2
aI0
aI2
aa(lp3177
I3
aI4
aI4
aI0
aI1
aa(lp3178
I6
aI2
aI3
aI0
aI2
aa(lp3179
I2
aI3
aI5
aI0
aI1
aa(lp3180
I4
aI2
aI1
aI0
aI2
aa(lp3181
I2
aI3
aI2
aI0
aI0
aa(lp3182
I2
aI4
aI4
aI0
aI1
aa(lp3183
I3
aI5
aI2
aI0
aI1
aa(lp3184
I1
aI3
aI5
aI2
aI0
aa(lp3185
I8
aI2
aI1
aI3
aI2
aa(lp3186
I2
aI2
aI1
aI1
aI0
aa(lp3187
I8
aI4
aI1
aI0
aI1
aa(lp3188
I3
aI2
aI2
aI0
aI1
aa(lp3189
I3
aI2
aI2
aI1
aI4
aa(lp3190
I3
aI5
aI2
aI0
aI0
aa(lp3191
I3
aI6
aI2
aI0
aI0
aa(lp3192
I7
aI2
aI4
aI0
aI3
aa(lp3193
I2
aI0
aI0
aI0
aI0
aa(lp3194
I4
aI3
aI2
aI0
aI0
aa(lp3195
I4
aI3
aI0
aI0
aI2
aa(lp3196
I5
aI4
aI0
aI1
aI0
aa(lp3197
I2
aI1
aI1
aI0
aI1
aa(lp3198
I5
aI6
aI0
aI0
aI0
aa(lp3199
I2
aI2
aI0
aI0
aI0
aa(lp3200
I2
aI0
aI0
aI0
aI1
aa(lp3201
I6
aI1
aI1
aI0
aI1
aa(lp3202
I6
aI3
aI1
aI0
aI0
aa(lp3203
I1
aI3
aI1
aI0
aI1
aa(lp3204
I4
aI6
aI0
aI0
aI0
aa(lp3205
I5
aI5
aI2
aI0
aI1
aa(lp3206
I2
aI2
aI5
aI0
aI3
aa(lp3207
I1
aI1
aI4
aI0
aI2
aa(lp3208
I4
aI2
aI4
aI1
aI0
aa(lp3209
I5
aI4
aI2
aI0
aI0
aa(lp3210
I5
aI2
aI3
aI0
aI0
aa(lp3211
I2
aI0
aI1
aI0
aI0
aa(lp3212
I7
aI3
aI2
aI1
aI0
aa(lp3213
I6
aI2
aI1
aI0
aI0
aa(lp3214
I0
aI0
aI1
aI0
aI0
aa(lp3215
I3
aI7
aI1
aI1
aI2
aa(lp3216
I3
aI3
aI1
aI1
aI1
aa(lp3217
I1
aI3
aI2
aI0
aI0
aa(lp3218
I3
aI1
aI2
aI0
aI1
aa(lp3219
I5
aI2
aI0
aI0
aI1
aa(lp3220
I1
aI1
aI1
aI0
aI2
aa(lp3221
I2
aI2
aI0
aI0
aI0
aa(lp3222
I0
aI3
aI0
aI0
aI0
aa(lp3223
I2
aI2
aI2
aI0
aI0
aa(lp3224
I2
aI1
aI0
aI0
aI1
aa(lp3225
I2
aI6
aI1
aI0
aI0
aa(lp3226
I1
aI6
aI0
aI0
aI1
aa(lp3227
I3
aI1
aI0
aI0
aI1
aa(lp3228
I3
aI2
aI2
aI1
aI1
aa(lp3229
I0
aI4
aI0
aI0
aI0
aa(lp3230
I4
aI1
aI0
aI0
aI2
aa(lp3231
I1
aI2
aI0
aI0
aI0
aa(lp3232
I0
aI2
aI1
aI1
aI0
aa(lp3233
I3
aI3
aI0
aI0
aI0
aa(lp3234
I1
aI1
aI0
aI0
aI1
aa(lp3235
I3
aI0
aI1
aI0
aI0
aa(lp3236
I5
aI4
aI0
aI0
aI1
aa(lp3237
I1
aI3
aI0
aI0
aI0
aa(lp3238
I5
aI2
aI0
aI0
aI1
aa(lp3239
I3
aI3
aI2
aI0
aI0
aa(lp3240
I2
aI1
aI0
aI0
aI1
aa(lp3241
I4
aI1
aI1
aI0
aI0
aa(lp3242
I1
aI0
aI0
aI0
aI1
aa(lp3243
I5
aI2
aI4
aI0
aI0
aa(lp3244
I1
aI3
aI0
aI1
aI2
aa(lp3245
I2
aI2
aI3
aI0
aI1
aa(lp3246
I0
aI7
aI0
aI0
aI2
aa(lp3247
I1
aI6
aI1
aI0
aI1
aa(lp3248
I4
aI2
aI1
aI0
aI1
aa(lp3249
I1
aI3
aI2
aI0
aI0
aa(lp3250
I0
aI2
aI0
aI1
aI1
aa(lp3251
I1
aI2
aI1
aI0
aI0
aa(lp3252
I0
aI2
aI2
aI0
aI2
aa(lp3253
I2
aI0
aI0
aI0
aI1
aa(lp3254
I1
aI0
aI1
aI0
aI0
aa(lp3255
I1
aI3
aI1
aI0
aI0
aa(lp3256
I5
aI0
aI1
aI0
aI0
aa(lp3257
I0
aI1
aI1
aI0
aI0
aa(lp3258
I3
aI1
aI0
aI0
aI1
aa(lp3259
I0
aI2
aI0
aI0
aI0
aa(lp3260
I1
aI2
aI0
aI1
aI0
aa(lp3261
I0
aI3
aI0
aI0
aI0
aa(lp3262
I0
aI1
aI0
aI0
aI0
aa(lp3263
I0
aI0
aI1
aI0
aI0
aa(lp3264
I2
aI0
aI0
aI0
aI0
aa(lp3265
I0
aI2
aI0
aI0
aI0
aa(lp3266
I0
aI0
aI0
aI0
aI0
aa(lp3267
I1
aI0
aI0
aI0
aI0
aa(lp3268
I1
aI2
aI3
aI0
aI2
aa(lp3269
I0
aI2
aI0
aI0
aI0
aa(lp3270
I0
aI1
aI1
aI0
aI0
aa(lp3271
I1
aI0
aI0
aI0
aI0
aa(lp3272
I1
aI0
aI2
aI0
aI0
aa(lp3273
I2
aI3
aI0
aI0
aI0
aa(lp3274
I2
aI3
aI0
aI0
aI0
aa(lp3275
I2
aI1
aI0
aI0
aI1
aa(lp3276
I3
aI0
aI0
aI0
aI1
aa(lp3277
I4
aI2
aI0
aI0
aI0
aa(lp3278
I0
aI0
aI0
aI0
aI0
aa(lp3279
I1
aI2
aI1
aI0
aI1
aa(lp3280
I1
aI1
aI1
aI0
aI0
aa(lp3281
I1
aI0
aI0
aI0
aI0
aa(lp3282
I0
aI0
aI0
aI0
aI1
aa(lp3283
I2
aI2
aI0
aI0
aI1
aa(lp3284
I3
aI0
aI1
aI0
aI0
aa(lp3285
I2
aI2
aI1
aI0
aI0
aa(lp3286
I1
aI2
aI0
aI0
aI0
aa(lp3287
I2
aI0
aI1
aI0
aI0
aa(lp3288
I0
aI0
aI2
aI0
aI0
aa(lp3289
I0
aI2
aI1
aI0
aI1
aa(lp3290
I0
aI2
aI1
aI0
aI0
aa(lp3291
I1
aI3
aI0
aI0
aI0
aa(lp3292
I0
aI3
aI0
aI0
aI0
aa(lp3293
I1
aI2
aI1
aI0
aI0
aa(lp3294
I1
aI1
aI1
aI0
aI0
aa(lp3295
I3
aI1
aI1
aI0
aI0
aa(lp3296
I1
aI0
aI0
aI0
aI0
aa(lp3297
I0
aI1
aI0
aI0
aI1
aa(lp3298
I1
aI0
aI0
aI0
aI0
aa(lp3299
I2
aI1
aI0
aI0
aI0
aa(lp3300
I1
aI3
aI0
aI0
aI0
aa(lp3301
I2
aI0
aI0
aI0
aI0
aa(lp3302
I0
aI0
aI0
aI0
aI0
aa(lp3303
I1
aI2
aI0
aI0
aI0
aa(lp3304
I3
aI0
aI1
aI0
aI0
aa(lp3305
I1
aI1
aI0
aI0
aI0
aa(lp3306
I1
aI0
aI0
aI0
aI0
aa(lp3307
I0
aI0
aI0
aI0
aI0
aa(lp3308
I2
aI0
aI0
aI0
aI0
aa(lp3309
I2
aI1
aI1
aI0
aI1
aa(lp3310
I0
aI0
aI1
aI0
aI0
aa(lp3311
I1
aI1
aI0
aI0
aI1
aa(lp3312
I0
aI0
aI0
aI0
aI0
aa(lp3313
I1
aI0
aI0
aI0
aI0
aa(lp3314
I1
aI1
aI0
aI0
aI0
aa(lp3315
I0
aI0
aI0
aI0
aI0
aa(lp3316
I1
aI0
aI0
aI0
aI0
aa(lp3317
I0
aI2
aI0
aI0
aI0
aa(lp3318
I1
aI3
aI1
aI0
aI0
aa(lp3319
I1
aI1
aI1
aI0
aI1
aa(lp3320
I1
aI2
aI0
aI0
aI0
aa(lp3321
I1
aI2
aI0
aI0
aI1
aa(lp3322
I2
aI1
aI0
aI0
aI0
aa(lp3323
I1
aI1
aI3
aI0
aI0
aa(lp3324
I2
aI0
aI0
aI0
aI1
aa(lp3325
I0
aI2
aI2
aI0
aI0
aa(lp3326
I0
aI0
aI0
aI0
aI0
aa(lp3327
I1
aI2
aI0
aI0
aI0
aa(lp3328
I2
aI3
aI1
aI0
aI0
aa(lp3329
I5
aI2
aI0
aI0
aI0
aa(lp3330
I0
aI1
aI1
aI0
aI0
aa(lp3331
I1
aI0
aI3
aI0
aI0
aa(lp3332
I1
aI0
aI2
aI0
aI0
aa(lp3333
I0
aI0
aI1
aI0
aI0
aa(lp3334
I0
aI0
aI0
aI0
aI0
aa(lp3335
I1
aI3
aI1
aI0
aI0
aa(lp3336
I1
aI1
aI0
aI0
aI0
aa(lp3337
I3
aI1
aI1
aI0
aI0
aa(lp3338
I0
aI2
aI1
aI0
aI1
aa(lp3339
I0
aI3
aI1
aI0
aI0
aa(lp3340
I2
aI0
aI0
aI0
aI0
aa(lp3341
I1
aI2
aI1
aI0
aI1
aa(lp3342
I0
aI2
aI0
aI0
aI0
aa(lp3343
I2
aI0
aI0
aI0
aI1
aa(lp3344
I0
aI2
aI0
aI0
aI0
aa(lp3345
I1
aI1
aI0
aI1
aI0
aa(lp3346
I2
aI1
aI2
aI0
aI0
aa(lp3347
I1
aI2
aI0
aI0
aI0
aa(lp3348
I2
aI1
aI1
aI0
aI1
aa(lp3349
I0
aI0
aI0
aI0
aI0
aa(lp3350
I2
aI4
aI2
aI0
aI0
aa(lp3351
I5
aI1
aI0
aI0
aI0
aa(lp3352
I1
aI3
aI1
aI0
aI0
aa(lp3353
I0
aI0
aI1
aI0
aI0
aa(lp3354
I2
aI3
aI1
aI0
aI1
aa(lp3355
I0
aI1
aI0
aI0
aI0
aa(lp3356
I1
aI1
aI0
aI0
aI0
aa(lp3357
I0
aI1
aI0
aI1
aI2
aa(lp3358
I3
aI1
aI0
aI0
aI0
aa(lp3359
I0
aI2
aI0
aI0
aI0
aa(lp3360
I0
aI0
aI0
aI0
aI0
aa(lp3361
I1
aI1
aI0
aI0
aI0
aa(lp3362
I4
aI1
aI2
aI0
aI0
aa(lp3363
I1
aI1
aI1
aI0
aI1
aa(lp3364
I0
aI1
aI1
aI0
aI0
aa(lp3365
I4
aI1
aI3
aI0
aI0
aa(lp3366
I1
aI4
aI1
aI0
aI0
aa(lp3367
I1
aI4
aI1
aI0
aI0
aa(lp3368
I2
aI3
aI0
aI0
aI0
aa(lp3369
I2
aI0
aI1
aI0
aI0
aa(lp3370
I1
aI4
aI0
aI0
aI0
aa(lp3371
I1
aI3
aI3
aI0
aI0
aa(lp3372
I2
aI0
aI0
aI0
aI1
aa(lp3373
I0
aI2
aI0
aI0
aI0
aa(lp3374
I0
aI4
aI2
aI0
aI0
aa(lp3375
I0
aI1
aI2
aI0
aI0
aa(lp3376
I2
aI2
aI1
aI0
aI1
aa(lp3377
I1
aI1
aI2
aI0
aI1
aa(lp3378
I2
aI2
aI1
aI0
aI0
aa(lp3379
I3
aI4
aI0
aI0
aI1
aa(lp3380
I1
aI2
aI0
aI0
aI0
aa(lp3381
I0
aI1
aI1
aI0
aI1
aa(lp3382
I0
aI0
aI0
aI0
aI0
aa(lp3383
I0
aI3
aI2
aI0
aI0
aa(lp3384
I2
aI1
aI2
aI0
aI1
aa(lp3385
I3
aI1
aI1
aI0
aI0
aa(lp3386
I1
aI4
aI0
aI1
aI0
aa(lp3387
I2
aI3
aI2
aI0
aI3
aa(lp3388
I1
aI2
aI0
aI0
aI0
aa(lp3389
I1
aI1
aI0
aI0
aI0
aa(lp3390
I2
aI1
aI1
aI0
aI0
aa(lp3391
I0
aI2
aI0
aI0
aI0
aa(lp3392
I0
aI1
aI1
aI0
aI1
aa(lp3393
I1
aI3
aI2
aI0
aI1
aa(lp3394
I4
aI1
aI0
aI0
aI0
aa(lp3395
I1
aI2
aI0
aI0
aI1
aa(lp3396
I1
aI3
aI3
aI1
aI0
aa(lp3397
I3
aI0
aI0
aI0
aI2
aa(lp3398
I2
aI6
aI1
aI0
aI1
aa(lp3399
I0
aI2
aI1
aI0
aI2
aa(lp3400
I4
aI6
aI3
aI2
aI2
aa(lp3401
I2
aI2
aI1
aI0
aI0
aa(lp3402
I4
aI2
aI0
aI0
aI1
aa(lp3403
I2
aI1
aI0
aI0
aI2
aa(lp3404
I1
aI2
aI1
aI0
aI1
aa(lp3405
I10
aI4
aI1
aI0
aI0
aa(lp3406
I5
aI1
aI0
aI0
aI2
aa(lp3407
I4
aI4
aI0
aI0
aI1
aa(lp3408
I5
aI6
aI2
aI0
aI1
aa(lp3409
I2
aI3
aI4
aI0
aI0
aa(lp3410
I1
aI4
aI1
aI0
aI2
aa(lp3411
I0
aI0
aI1
aI1
aI1
aa(lp3412
I5
aI4
aI2
aI0
aI5
aa(lp3413
I1
aI4
aI1
aI0
aI1
aa(lp3414
I1
aI1
aI3
aI0
aI1
aa(lp3415
I3
aI0
aI0
aI0
aI0
aa(lp3416
I1
aI2
aI1
aI0
aI3
aa(lp3417
I4
aI2
aI2
aI0
aI1
aa(lp3418
I3
aI5
aI2
aI1
aI2
aa(lp3419
I2
aI3
aI4
aI0
aI0
aa(lp3420
I2
aI2
aI2
aI0
aI1
aa(lp3421
I6
aI3
aI2
aI0
aI3
aa(lp3422
I0
aI2
aI1
aI0
aI1
aa(lp3423
I6
aI6
aI1
aI0
aI4
aa(lp3424
I5
aI3
aI3
aI1
aI3
aa(lp3425
I3
aI2
aI1
aI1
aI2
aa(lp3426
I3
aI0
aI1
aI0
aI0
aa(lp3427
I2
aI2
aI2
aI0
aI0
aa(lp3428
I4
aI1
aI1
aI0
aI2
aa(lp3429
I5
aI3
aI2
aI0
aI1
aa(lp3430
I7
aI3
aI1
aI0
aI1
aa(lp3431
I5
aI2
aI0
aI0
aI0
aa(lp3432
I3
aI2
aI2
aI0
aI0
aa(lp3433
I8
aI2
aI1
aI0
aI1
aa(lp3434
I1
aI4
aI1
aI0
aI1
aa(lp3435
I2
aI4
aI3
aI0
aI1
aa(lp3436
I7
aI3
aI3
aI0
aI0
aa(lp3437
I4
aI4
aI1
aI0
aI2
aa(lp3438
I3
aI2
aI0
aI0
aI1
aa(lp3439
I3
aI3
aI3
aI0
aI1
aa(lp3440
I3
aI2
aI1
aI0
aI3
aa(lp3441
I2
aI1
aI1
aI0
aI0
aa(lp3442
I1
aI2
aI1
aI2
aI1
aa(lp3443
I4
aI3
aI1
aI0
aI3
aa(lp3444
I1
aI3
aI0
aI0
aI0
aa(lp3445
I3
aI1
aI1
aI0
aI2
aa(lp3446
I5
aI4
aI3
aI2
aI0
aa(lp3447
I5
aI0
aI2
aI2
aI0
aa(lp3448
I4
aI2
aI1
aI0
aI3
aa(lp3449
I13
aI6
aI2
aI0
aI2
aa(lp3450
I8
aI5
aI4
aI0
aI2
aa(lp3451
I5
aI6
aI1
aI1
aI0
aa(lp3452
I4
aI4
aI2
aI0
aI1
aa(lp3453
I6
aI2
aI1
aI0
aI1
aa(lp3454
I3
aI4
aI2
aI2
aI2
aa(lp3455
I2
aI3
aI2
aI0
aI2
aa(lp3456
I5
aI5
aI2
aI0
aI0
aa(lp3457
I5
aI2
aI3
aI1
aI0
aa(lp3458
I3
aI2
aI4
aI1
aI1
aa(lp3459
I7
aI2
aI2
aI0
aI2
aa(lp3460
I8
aI1
aI0
aI2
aI0
aa(lp3461
I4
aI4
aI2
aI0
aI0
aa(lp3462
I6
aI4
aI1
aI0
aI3
aa(lp3463
I5
aI4
aI6
aI0
aI0
aa(lp3464
I1
aI1
aI1
aI0
aI0
aa(lp3465
I9
aI6
aI3
aI0
aI3
aa(lp3466
I6
aI3
aI1
aI0
aI5
aa(lp3467
I3
aI2
aI3
aI0
aI1
aa(lp3468
I4
aI1
aI6
aI0
aI5
aa(lp3469
I4
aI9
aI5
aI0
aI0
aa(lp3470
I10
aI4
aI3
aI0
aI2
aa(lp3471
I6
aI4
aI3
aI0
aI3
aa(lp3472
I4
aI1
aI4
aI0
aI2
aa(lp3473
I5
aI1
aI0
aI0
aI1
aa(lp3474
I5
aI3
aI3
aI0
aI1
aa(lp3475
I2
aI2
aI1
aI0
aI2
aa(lp3476
I4
aI9
aI2
aI0
aI1
aa(lp3477
I5
aI1
aI0
aI0
aI1
aa(lp3478
I5
aI7
aI1
aI0
aI1
aa(lp3479
I5
aI0
aI3
aI0
aI3
aa(lp3480
I6
aI3
aI1
aI1
aI1
aa(lp3481
I2
aI3
aI0
aI0
aI2
aa(lp3482
I2
aI2
aI0
aI0
aI1
aa(lp3483
I4
aI1
aI2
aI0
aI3
aa(lp3484
I10
aI3
aI3
aI0
aI2
aa(lp3485
I5
aI4
aI3
aI0
aI0
aa(lp3486
I1
aI1
aI3
aI0
aI0
aa(lp3487
I4
aI2
aI2
aI0
aI0
aa(lp3488
I8
aI3
aI5
aI0
aI2
aa(lp3489
I7
aI5
aI1
aI1
aI0
aa(lp3490
I3
aI5
aI1
aI0
aI1
aa(lp3491
I4
aI3
aI2
aI1
aI2
aa(lp3492
I2
aI3
aI2
aI0
aI2
aa(lp3493
I5
aI2
aI1
aI0
aI1
aa(lp3494
I4
aI4
aI0
aI1
aI1
aa(lp3495
I9
aI7
aI1
aI1
aI2
aa(lp3496
I6
aI4
aI3
aI0
aI1
aa(lp3497
I4
aI2
aI3
aI0
aI2
aa(lp3498
I2
aI1
aI2
aI0
aI2
aa(lp3499
I5
aI8
aI4
aI3
aI1
aa(lp3500
I2
aI1
aI2
aI1
aI3
aa(lp3501
I4
aI2
aI0
aI0
aI0
aa(lp3502
I6
aI0
aI0
aI0
aI1
aa(lp3503
I8
aI4
aI2
aI0
aI2
aa(lp3504
I8
aI0
aI0
aI0
aI5
aa(lp3505
I4
aI4
aI5
aI0
aI5
aa(lp3506
I4
aI3
aI6
aI1
aI2
aa(lp3507
I4
aI2
aI2
aI0
aI1
aa(lp3508
I8
aI3
aI0
aI0
aI1
aa(lp3509
I7
aI5
aI2
aI0
aI2
aa(lp3510
I5
aI6
aI0
aI0
aI2
aa(lp3511
I1
aI3
aI4
aI0
aI0
aa(lp3512
I4
aI7
aI4
aI0
aI1
aa(lp3513
I2
aI2
aI2
aI0
aI1
aa(lp3514
I5
aI4
aI1
aI0
aI0
aa(lp3515
I0
aI0
aI2
aI0
aI0
aa(lp3516
I5
aI3
aI3
aI0
aI5
aa(lp3517
I10
aI2
aI2
aI0
aI0
aa(lp3518
I7
aI4
aI2
aI0
aI0
aa(lp3519
I5
aI2
aI0
aI0
aI3
aa(lp3520
I4
aI9
aI3
aI0
aI1
aa(lp3521
I5
aI4
aI2
aI1
aI1
aa(lp3522
I4
aI4
aI2
aI0
aI0
aa(lp3523
I4
aI6
aI1
aI0
aI0
aa(lp3524
I8
aI4
aI3
aI0
aI1
aa(lp3525
I6
aI4
aI2
aI0
aI2
aa(lp3526
I9
aI6
aI0
aI1
aI2
aa(lp3527
I12
aI3
aI4
aI1
aI0
aa(lp3528
I6
aI7
aI3
aI1
aI2
aa(lp3529
I6
aI2
aI2
aI0
aI2
aa(lp3530
I6
aI2
aI0
aI1
aI1
aa(lp3531
I5
aI3
aI1
aI1
aI1
aa(lp3532
I6
aI3
aI2
aI0
aI0
aa(lp3533
I2
aI6
aI3
aI0
aI2
aa(lp3534
I4
aI2
aI2
aI0
aI2
aa(lp3535
I5
aI0
aI2
aI1
aI3
aa(lp3536
I5
aI3
aI2
aI0
aI0
aa(lp3537
I3
aI4
aI2
aI0
aI0
aa(lp3538
I4
aI7
aI1
aI0
aI0
aa(lp3539
I5
aI5
aI0
aI0
aI2
aa(lp3540
I6
aI5
aI0
aI0
aI2
aa(lp3541
I4
aI4
aI5
aI0
aI2
aa(lp3542
I4
aI0
aI3
aI0
aI1
aa(lp3543
I1
aI6
aI3
aI0
aI3
aa(lp3544
I4
aI3
aI0
aI1
aI0
aa(lp3545
I5
aI0
aI2
aI0
aI0
aa(lp3546
I0
aI4
aI3
aI0
aI3
aa(lp3547
I1
aI5
aI3
aI0
aI1
aa(lp3548
I7
aI2
aI2
aI1
aI1
aa(lp3549
I1
aI1
aI0
aI0
aI0
aa(lp3550
I1
aI3
aI2
aI0
aI1
aa(lp3551
I3
aI5
aI1
aI0
aI1
aa(lp3552
I2
aI3
aI1
aI0
aI0
aa(lp3553
I2
aI8
aI2
aI0
aI4
aa(lp3554
I2
aI3
aI4
aI0
aI1
aa(lp3555
I8
aI5
aI4
aI0
aI1
aa(lp3556
I2
aI1
aI2
aI0
aI0
aa(lp3557
I4
aI3
aI1
aI0
aI1
aa(lp3558
I3
aI3
aI0
aI0
aI1
aa(lp3559
I1
aI3
aI3
aI0
aI0
aa(lp3560
I3
aI0
aI0
aI0
aI2
aa(lp3561
I3
aI0
aI0
aI0
aI2
aa(lp3562
I4
aI3
aI0
aI1
aI1
aa(lp3563
I3
aI1
aI1
aI1
aI1
aa(lp3564
I3
aI0
aI2
aI0
aI2
aa(lp3565
I5
aI4
aI0
aI0
aI0
aa(lp3566
I8
aI5
aI3
aI0
aI0
aa(lp3567
I1
aI3
aI1
aI0
aI2
aa(lp3568
I7
aI1
aI1
aI0
aI1
aa(lp3569
I6
aI3
aI3
aI0
aI2
aa(lp3570
I2
aI0
aI2
aI0
aI0
aa(lp3571
I1
aI1
aI5
aI0
aI2
aa(lp3572
I1
aI3
aI0
aI0
aI1
aa(lp3573
I2
aI2
aI0
aI0
aI1
aa(lp3574
I2
aI2
aI6
aI0
aI1
aa(lp3575
I1
aI7
aI1
aI0
aI3
aa(lp3576
I2
aI1
aI2
aI1
aI0
aa(lp3577
I3
aI1
aI0
aI0
aI0
aa(lp3578
I5
aI2
aI0
aI0
aI0
aa(lp3579
I2
aI1
aI0
aI0
aI1
aa(lp3580
I1
aI3
aI1
aI1
aI1
aa(lp3581
I0
aI4
aI1
aI0
aI0
aa(lp3582
I3
aI4
aI1
aI0
aI0
aa(lp3583
I2
aI1
aI2
aI0
aI0
aa(lp3584
I2
aI3
aI1
aI0
aI0
aa(lp3585
I1
aI3
aI0
aI0
aI1
aa(lp3586
I4
aI1
aI1
aI0
aI0
aa(lp3587
I0
aI0
aI1
aI0
aI0
aa(lp3588
I3
aI3
aI3
aI0
aI1
aa(lp3589
I5
aI3
aI2
aI0
aI2
aa(lp3590
I5
aI2
aI1
aI0
aI2
aa(lp3591
I3
aI0
aI5
aI0
aI0
aa(lp3592
I4
aI3
aI1
aI0
aI1
aa(lp3593
I3
aI5
aI0
aI0
aI1
aa(lp3594
I3
aI1
aI2
aI0
aI0
aa(lp3595
I5
aI4
aI2
aI0
aI0
aa(lp3596
I1
aI7
aI2
aI0
aI2
aa(lp3597
I2
aI3
aI0
aI0
aI3
aa(lp3598
I3
aI1
aI1
aI0
aI0
aa(lp3599
I0
aI2
aI0
aI1
aI1
aa(lp3600
I1
aI0
aI0
aI0
aI0
aa(lp3601
I2
aI2
aI1
aI0
aI1
aa(lp3602
I5
aI4
aI0
aI0
aI0
aa(lp3603
I1
aI1
aI1
aI0
aI0
aa(lp3604
I3
aI5
aI1
aI0
aI2
aa(lp3605
I0
aI1
aI3
aI0
aI1
aa(lp3606
I1
aI0
aI3
aI0
aI0
aa(lp3607
I2
aI2
aI1
aI0
aI0
aa(lp3608
I0
aI1
aI0
aI0
aI0
aa(lp3609
I3
aI1
aI1
aI0
aI1
aa(lp3610
I6
aI3
aI1
aI0
aI0
aa(lp3611
I3
aI1
aI1
aI1
aI1
aa(lp3612
I2
aI1
aI1
aI0
aI0
aa(lp3613
I1
aI0
aI0
aI0
aI0
aa(lp3614
I0
aI2
aI0
aI0
aI0
aa(lp3615
I4
aI5
aI0
aI0
aI0
aa(lp3616
I0
aI1
aI1
aI0
aI0
aa(lp3617
I1
aI0
aI0
aI0
aI0
aa(lp3618
I3
aI3
aI0
aI0
aI0
aa(lp3619
I3
aI0
aI1
aI1
aI1
aa(lp3620
I0
aI0
aI2
aI0
aI0
aa(lp3621
I4
aI3
aI0
aI0
aI0
aa(lp3622
I2
aI3
aI1
aI0
aI2
aa(lp3623
I1
aI2
aI0
aI0
aI0
aa(lp3624
I1
aI0
aI2
aI0
aI0
aa(lp3625
I3
aI1
aI0
aI0
aI1
aa(lp3626
I1
aI3
aI1
aI0
aI0
aa(lp3627
I4
aI1
aI0
aI0
aI0
aa(lp3628
I0
aI0
aI2
aI0
aI0
aa(lp3629
I2
aI1
aI1
aI0
aI0
aa(lp3630
I1
aI0
aI0
aI1
aI0
aa(lp3631
I2
aI0
aI0
aI0
aI0
aa(lp3632
I1
aI2
aI0
aI0
aI0
aa(lp3633
I3
aI1
aI2
aI0
aI1
aa(lp3634
I0
aI1
aI2
aI0
aI0
aa(lp3635
I3
aI2
aI0
aI0
aI0
aa(lp3636
I0
aI1
aI0
aI0
aI0
aa(lp3637
I0
aI2
aI0
aI0
aI0
aa(lp3638
I6
aI1
aI1
aI0
aI0
aa(lp3639
I2
aI2
aI0
aI1
aI0
aa(lp3640
I0
aI1
aI0
aI0
aI0
aa(lp3641
I4
aI1
aI0
aI0
aI2
aa(lp3642
I0
aI1
aI0
aI0
aI1
aa(lp3643
I1
aI4
aI0
aI0
aI0
aa(lp3644
I2
aI0
aI0
aI0
aI0
aa(lp3645
I2
aI2
aI1
aI0
aI0
aa(lp3646
I0
aI1
aI0
aI0
aI0
aa(lp3647
I1
aI1
aI0
aI0
aI0
aa(lp3648
I1
aI0
aI0
aI1
aI0
aa(lp3649
I1
aI0
aI0
aI0
aI0
aa(lp3650
I1
aI1
aI1
aI0
aI2
aa(lp3651
I1
aI1
aI1
aI0
aI0
aa(lp3652
I0
aI2
aI1
aI0
aI0
aa(lp3653
I0
aI3
aI0
aI0
aI0
aa(lp3654
I2
aI0
aI1
aI0
aI1
aa(lp3655
I2
aI2
aI0
aI0
aI1
aa(lp3656
I1
aI2
aI0
aI0
aI0
aa(lp3657
I1
aI2
aI0
aI0
aI0
aa(lp3658
I3
aI0
aI0
aI0
aI1
aa(lp3659
I2
aI0
aI1
aI0
aI0
aa(lp3660
I0
aI0
aI0
aI0
aI0
aa(lp3661
I2
aI0
aI0
aI0
aI0
aa(lp3662
I0
aI3
aI1
aI0
aI0
aa(lp3663
I2
aI1
aI1
aI0
aI0
aa(lp3664
I1
aI1
aI2
aI0
aI0
aa(lp3665
I0
aI3
aI0
aI0
aI0
aa(lp3666
I2
aI2
aI0
aI0
aI0
aa(lp3667
I1
aI0
aI0
aI0
aI0
aa(lp3668
I0
aI1
aI0
aI0
aI0
aa(lp3669
I2
aI0
aI0
aI0
aI0
aa(lp3670
I2
aI2
aI0
aI0
aI0
aa(lp3671
I0
aI2
aI0
aI0
aI0
aa(lp3672
I2
aI1
aI0
aI0
aI0
aa(lp3673
I0
aI2
aI0
aI0
aI0
aa(lp3674
I2
aI0
aI0
aI0
aI0
aa(lp3675
I0
aI1
aI0
aI0
aI0
aa(lp3676
I0
aI0
aI0
aI0
aI0
aa(lp3677
I2
aI1
aI0
aI0
aI0
aa(lp3678
I0
aI1
aI1
aI0
aI0
aa(lp3679
I1
aI1
aI1
aI0
aI0
aa(lp3680
I0
aI1
aI1
aI0
aI0
aa(lp3681
I0
aI1
aI1
aI0
aI0
aa(lp3682
I1
aI3
aI0
aI0
aI0
aa(lp3683
I0
aI0
aI0
aI0
aI0
aa(lp3684
I3
aI2
aI0
aI0
aI1
aa(lp3685
I2
aI3
aI1
aI0
aI0
aa(lp3686
I0
aI4
aI1
aI0
aI0
aa(lp3687
I1
aI1
aI1
aI0
aI0
aa(lp3688
I1
aI3
aI1
aI0
aI0
aa(lp3689
I1
aI0
aI1
aI0
aI0
aa(lp3690
I0
aI1
aI0
aI0
aI0
aa(lp3691
I3
aI4
aI0
aI0
aI1
aa(lp3692
I1
aI3
aI0
aI0
aI0
aa(lp3693
I1
aI1
aI0
aI0
aI0
aa(lp3694
I1
aI4
aI0
aI0
aI2
aa(lp3695
I1
aI0
aI1
aI0
aI0
aa(lp3696
I1
aI1
aI0
aI0
aI0
aa(lp3697
I1
aI2
aI1
aI0
aI0
aa(lp3698
I2
aI2
aI1
aI0
aI0
aa(lp3699
I2
aI4
aI1
aI0
aI0
aa(lp3700
I1
aI3
aI1
aI0
aI0
aa(lp3701
I0
aI1
aI0
aI0
aI0
aa(lp3702
I0
aI3
aI1
aI0
aI0
aa(lp3703
I1
aI1
aI0
aI0
aI0
aa(lp3704
I0
aI1
aI0
aI0
aI1
aa(lp3705
I0
aI2
aI0
aI0
aI0
aa(lp3706
I0
aI2
aI0
aI0
aI0
aa(lp3707
I0
aI2
aI0
aI0
aI0
aa(lp3708
I2
aI0
aI1
aI2
aI1
aa(lp3709
I0
aI3
aI1
aI0
aI0
aa(lp3710
I1
aI1
aI0
aI0
aI0
aa(lp3711
I1
aI1
aI0
aI1
aI0
aa(lp3712
I0
aI1
aI0
aI0
aI0
aa(lp3713
I0
aI0
aI0
aI0
aI0
aa(lp3714
I3
aI1
aI1
aI0
aI0
aa(lp3715
I1
aI2
aI0
aI0
aI1
aa(lp3716
I0
aI3
aI0
aI0
aI0
aa(lp3717
I0
aI1
aI1
aI0
aI2
aa(lp3718
I0
aI1
aI1
aI0
aI0
aa(lp3719
I2
aI2
aI2
aI0
aI0
aa(lp3720
I1
aI4
aI0
aI0
aI0
aa(lp3721
I3
aI1
aI0
aI0
aI0
aa(lp3722
I1
aI1
aI0
aI0
aI0
aa(lp3723
I0
aI1
aI3
aI0
aI0
aa(lp3724
I1
aI0
aI0
aI0
aI0
aa(lp3725
I0
aI2
aI0
aI0
aI0
aa(lp3726
I1
aI2
aI1
aI0
aI0
aa(lp3727
I1
aI2
aI0
aI1
aI0
aa(lp3728
I0
aI4
aI0
aI0
aI0
aa(lp3729
I2
aI1
aI0
aI0
aI0
aa(lp3730
I2
aI1
aI1
aI0
aI0
aa(lp3731
I3
aI0
aI1
aI0
aI0
aa(lp3732
I0
aI4
aI1
aI0
aI0
aa(lp3733
I1
aI0
aI2
aI0
aI0
aa(lp3734
I4
aI2
aI0
aI0
aI0
aa(lp3735
I0
aI2
aI1
aI0
aI0
aa(lp3736
I2
aI1
aI1
aI0
aI0
aa(lp3737
I3
aI1
aI1
aI0
aI0
aa(lp3738
I1
aI3
aI1
aI0
aI0
aa(lp3739
I1
aI1
aI0
aI0
aI0
aa(lp3740
I0
aI0
aI1
aI0
aI1
aa(lp3741
I3
aI0
aI0
aI0
aI0
aa(lp3742
I1
aI2
aI1
aI0
aI1
aa(lp3743
I1
aI3
aI1
aI0
aI0
aa(lp3744
I1
aI3
aI0
aI0
aI0
aa(lp3745
I2
aI3
aI0
aI0
aI0
aa(lp3746
I1
aI1
aI0
aI0
aI0
aa(lp3747
I2
aI0
aI1
aI0
aI0
aa(lp3748
I0
aI1
aI0
aI0
aI0
aa(lp3749
I3
aI2
aI0
aI0
aI0
aa(lp3750
I2
aI2
aI1
aI0
aI0
aa(lp3751
I2
aI3
aI2
aI0
aI0
aa(lp3752
I3
aI1
aI0
aI0
aI0
aa(lp3753
I2
aI3
aI2
aI0
aI0
aa(lp3754
I2
aI3
aI1
aI0
aI1
aa(lp3755
I3
aI4
aI1
aI0
aI0
aa(lp3756
I5
aI2
aI2
aI1
aI0
aa(lp3757
I2
aI1
aI1
aI0
aI0
aa(lp3758
I3
aI2
aI1
aI0
aI4
aa(lp3759
I3
aI2
aI1
aI0
aI0
aa(lp3760
I4
aI2
aI2
aI0
aI0
aa(lp3761
I4
aI2
aI0
aI1
aI1
aa(lp3762
I3
aI2
aI2
aI0
aI0
aa(lp3763
I5
aI5
aI2
aI0
aI1
aa(lp3764
I2
aI1
aI0
aI0
aI1
aa(lp3765
I3
aI1
aI1
aI0
aI1
aa(lp3766
I2
aI5
aI0
aI0
aI2
aa(lp3767
I2
aI3
aI1
aI0
aI1
aa(lp3768
I0
aI5
aI2
aI0
aI0
aa(lp3769
I2
aI3
aI0
aI1
aI4
aa(lp3770
I2
aI3
aI0
aI0
aI2
aa(lp3771
I8
aI4
aI2
aI0
aI1
aa(lp3772
I2
aI3
aI4
aI0
aI0
aa(lp3773
I0
aI1
aI2
aI0
aI1
aa(lp3774
I2
aI1
aI0
aI0
aI0
aa(lp3775
I2
aI1
aI1
aI0
aI2
aa(lp3776
I2
aI2
aI0
aI1
aI0
aa(lp3777
I2
aI5
aI1
aI0
aI1
aa(lp3778
I0
aI5
aI1
aI0
aI2
aa(lp3779
I7
aI1
aI1
aI0
aI1
aa(lp3780
I0
aI1
aI2
aI0
aI0
aa(lp3781
I2
aI2
aI0
aI0
aI0
aa(lp3782
I5
aI5
aI3
aI0
aI0
aa(lp3783
I6
aI3
aI1
aI2
aI2
aa(lp3784
I1
aI1
aI3
aI0
aI3
aa(lp3785
I4
aI4
aI0
aI0
aI0
aa(lp3786
I4
aI4
aI0
aI0
aI1
aa(lp3787
I4
aI2
aI0
aI1
aI0
aa(lp3788
I5
aI1
aI1
aI0
aI0
aa(lp3789
I2
aI4
aI1
aI1
aI1
aa(lp3790
I2
aI3
aI2
aI0
aI1
aa(lp3791
I3
aI2
aI0
aI0
aI0
aa(lp3792
I7
aI4
aI1
aI0
aI3
aa(lp3793
I0
aI2
aI2
aI0
aI0
aa(lp3794
I4
aI6
aI2
aI1
aI2
aa(lp3795
I1
aI1
aI3
aI0
aI0
aa(lp3796
I2
aI4
aI0
aI0
aI2
aa(lp3797
I5
aI5
aI0
aI0
aI1
aa(lp3798
I1
aI2
aI0
aI1
aI0
aa(lp3799
I1
aI1
aI0
aI0
aI2
aa(lp3800
I4
aI7
aI0
aI0
aI1
aa(lp3801
I0
aI1
aI2
aI0
aI0
aa(lp3802
I7
aI0
aI2
aI0
aI1
aa(lp3803
I5
aI5
aI1
aI0
aI1
aa(lp3804
I4
aI3
aI0
aI0
aI1
aa(lp3805
I2
aI3
aI3
aI0
aI1
aa(lp3806
I4
aI2
aI4
aI0
aI1
aa(lp3807
I4
aI2
aI6
aI0
aI2
aa(lp3808
I5
aI1
aI1
aI0
aI3
aa(lp3809
I6
aI5
aI1
aI1
aI1
aa(lp3810
I2
aI5
aI1
aI0
aI0
aa(lp3811
I8
aI4
aI5
aI1
aI1
aa(lp3812
I4
aI2
aI2
aI0
aI0
aa(lp3813
I12
aI6
aI5
aI1
aI1
aa(lp3814
I8
aI5
aI3
aI2
aI1
aa(lp3815
I3
aI2
aI2
aI0
aI0
aa(lp3816
I5
aI4
aI4
aI0
aI0
aa(lp3817
I2
aI3
aI5
aI0
aI4
aa(lp3818
I5
aI2
aI1
aI0
aI2
aa(lp3819
I4
aI5
aI2
aI0
aI0
aa(lp3820
I3
aI5
aI3
aI0
aI2
aa(lp3821
I2
aI3
aI4
aI1
aI1
aa(lp3822
I3
aI6
aI1
aI0
aI2
aa(lp3823
I4
aI1
aI5
aI0
aI0
aa(lp3824
I5
aI4
aI0
aI0
aI1
aa(lp3825
I3
aI3
aI3
aI0
aI1
aa(lp3826
I4
aI3
aI0
aI0
aI4
aa(lp3827
I6
aI3
aI0
aI1
aI0
aa(lp3828
I4
aI3
aI2
aI0
aI3
aa(lp3829
I10
aI8
aI1
aI0
aI0
aa(lp3830
I5
aI3
aI2
aI1
aI1
aa(lp3831
I4
aI4
aI0
aI0
aI2
aa(lp3832
I9
aI3
aI1
aI0
aI0
aa(lp3833
I2
aI4
aI0
aI0
aI1
aa(lp3834
I6
aI3
aI2
aI0
aI1
aa(lp3835
I4
aI1
aI3
aI0
aI2
aa(lp3836
I4
aI2
aI4
aI0
aI0
aa(lp3837
I6
aI1
aI2
aI0
aI1
aa(lp3838
I3
aI2
aI2
aI0
aI0
aa(lp3839
I4
aI5
aI5
aI0
aI1
aa(lp3840
I4
aI0
aI2
aI0
aI2
aa(lp3841
I3
aI3
aI2
aI0
aI0
aa(lp3842
I4
aI4
aI2
aI0
aI0
aa(lp3843
I2
aI4
aI1
aI0
aI1
aa(lp3844
I5
aI5
aI3
aI0
aI1
aa(lp3845
I5
aI4
aI3
aI0
aI0
aa(lp3846
I4
aI4
aI1
aI2
aI1
aa(lp3847
I2
aI5
aI0
aI0
aI0
aa(lp3848
I2
aI4
aI1
aI0
aI1
aa(lp3849
I2
aI4
aI0
aI0
aI2
aa(lp3850
I2
aI1
aI1
aI1
aI0
aa(lp3851
I1
aI2
aI2
aI0
aI0
aa(lp3852
I4
aI1
aI2
aI1
aI1
aa(lp3853
I8
aI5
aI0
aI0
aI1
aa(lp3854
I1
aI1
aI4
aI0
aI1
aa(lp3855
I8
aI5
aI3
aI1
aI1
aa(lp3856
I9
aI2
aI2
aI1
aI0
aa(lp3857
I3
aI1
aI4
aI2
aI3
aa(lp3858
I6
aI2
aI1
aI1
aI1
aa(lp3859
I6
aI1
aI3
aI0
aI1
aa(lp3860
I7
aI7
aI5
aI1
aI2
aa(lp3861
I4
aI4
aI0
aI0
aI1
aa(lp3862
I9
aI2
aI0
aI0
aI0
aa(lp3863
I5
aI3
aI2
aI0
aI0
aa(lp3864
I8
aI1
aI1
aI0
aI1
aa(lp3865
I4
aI1
aI0
aI0
aI1
aa(lp3866
I5
aI2
aI0
aI0
aI1
aa(lp3867
I3
aI2
aI2
aI0
aI0
aa(lp3868
I3
aI4
aI3
aI1
aI0
aa(lp3869
I6
aI5
aI1
aI0
aI0
aa(lp3870
I2
aI5
aI2
aI0
aI0
aa(lp3871
I7
aI1
aI2
aI1
aI1
aa(lp3872
I3
aI4
aI3
aI0
aI2
aa(lp3873
I5
aI2
aI2
aI0
aI1
aa(lp3874
I4
aI3
aI3
aI0
aI1
aa(lp3875
I7
aI2
aI1
aI0
aI3
aa(lp3876
I7
aI3
aI3
aI0
aI1
aa(lp3877
I6
aI2
aI5
aI0
aI1
aa(lp3878
I7
aI2
aI1
aI0
aI0
aa(lp3879
I6
aI1
aI1
aI0
aI0
aa(lp3880
I4
aI1
aI0
aI0
aI0
aa(lp3881
I2
aI3
aI1
aI0
aI2
aa(lp3882
I6
aI1
aI2
aI1
aI0
aa(lp3883
I6
aI3
aI4
aI0
aI1
aa(lp3884
I3
aI3
aI2
aI0
aI2
aa(lp3885
I6
aI3
aI4
aI1
aI2
aa(lp3886
I5
aI5
aI1
aI0
aI2
aa(lp3887
I3
aI2
aI1
aI0
aI0
aa(lp3888
I5
aI3
aI5
aI0
aI1
aa(lp3889
I5
aI8
aI5
aI0
aI1
aa(lp3890
I6
aI2
aI3
aI0
aI1
aa(lp3891
I4
aI3
aI4
aI0
aI1
aa(lp3892
I3
aI3
aI3
aI0
aI1
aa(lp3893
I3
aI2
aI2
aI0
aI0
aa(lp3894
I2
aI3
aI5
aI0
aI0
aa(lp3895
I4
aI4
aI1
aI1
aI1
aa(lp3896
I1
aI3
aI3
aI0
aI2
aa(lp3897
I3
aI3
aI2
aI0
aI2
aa(lp3898
I10
aI3
aI3
aI0
aI1
aa(lp3899
I5
aI6
aI3
aI0
aI2
aa(lp3900
I7
aI4
aI6
aI0
aI1
aa(lp3901
I2
aI3
aI1
aI0
aI0
aa(lp3902
I3
aI5
aI0
aI0
aI2
aa(lp3903
I8
aI2
aI5
aI0
aI5
aa(lp3904
I4
aI5
aI1
aI0
aI0
aa(lp3905
I11
aI4
aI4
aI0
aI0
aa(lp3906
I7
aI2
aI3
aI1
aI3
aa(lp3907
I1
aI2
aI1
aI1
aI4
aa(lp3908
I5
aI2
aI4
aI0
aI1
aa(lp3909
I5
aI4
aI2
aI0
aI1
aa(lp3910
I3
aI2
aI2
aI0
aI2
aa(lp3911
I2
aI4
aI2
aI0
aI1
aa(lp3912
I2
aI6
aI3
aI0
aI4
aa(lp3913
I7
aI2
aI0
aI0
aI1
aa(lp3914
I3
aI6
aI0
aI0
aI0
aa(lp3915
I4
aI2
aI1
aI0
aI0
aa(lp3916
I3
aI5
aI2
aI1
aI1
aa(lp3917
I1
aI3
aI4
aI1
aI2
aa(lp3918
I2
aI7
aI0
aI0
aI2
aa(lp3919
I3
aI3
aI1
aI0
aI1
aa(lp3920
I2
aI0
aI2
aI0
aI2
aa(lp3921
I5
aI3
aI2
aI0
aI1
aa(lp3922
I1
aI5
aI0
aI0
aI1
aa(lp3923
I4
aI4
aI3
aI0
aI1
aa(lp3924
I3
aI2
aI1
aI0
aI2
aa(lp3925
I1
aI3
aI2
aI1
aI0
aa(lp3926
I5
aI1
aI1
aI0
aI1
aa(lp3927
I4
aI3
aI3
aI0
aI0
aa(lp3928
I5
aI2
aI2
aI0
aI0
aa(lp3929
I6
aI3
aI0
aI0
aI0
aa(lp3930
I2
aI0
aI2
aI0
aI2
aa(lp3931
I2
aI2
aI2
aI0
aI0
aa(lp3932
I4
aI5
aI5
aI0
aI0
aa(lp3933
I4
aI1
aI0
aI0
aI1
aa(lp3934
I0
aI0
aI2
aI0
aI1
aa(lp3935
I1
aI3
aI1
aI0
aI0
aa(lp3936
I3
aI2
aI1
aI0
aI0
aa(lp3937
I3
aI1
aI1
aI1
aI0
aa(lp3938
I3
aI2
aI1
aI0
aI0
aa(lp3939
I1
aI0
aI1
aI0
aI0
aa(lp3940
I2
aI3
aI0
aI0
aI0
aa(lp3941
I2
aI3
aI1
aI1
aI0
aa(lp3942
I3
aI2
aI1
aI0
aI2
aa(lp3943
I1
aI3
aI3
aI0
aI2
aa(lp3944
I3
aI2
aI1
aI1
aI1
aa(lp3945
I1
aI5
aI2
aI0
aI0
aa(lp3946
I4
aI3
aI1
aI2
aI0
aa(lp3947
I1
aI1
aI0
aI0
aI2
aa(lp3948
I1
aI2
aI1
aI0
aI0
aa(lp3949
I0
aI1
aI2
aI1
aI0
aa(lp3950
I1
aI1
aI4
aI0
aI0
aa(lp3951
I3
aI1
aI2
aI0
aI0
aa(lp3952
I1
aI2
aI1
aI0
aI1
aa(lp3953
I2
aI2
aI0
aI0
aI0
aa(lp3954
I3
aI5
aI0
aI0
aI0
aa(lp3955
I0
aI5
aI3
aI0
aI1
aa(lp3956
I1
aI1
aI0
aI0
aI0
aa(lp3957
I2
aI1
aI2
aI1
aI0
aa(lp3958
I1
aI2
aI1
aI0
aI1
aa(lp3959
I2
aI6
aI3
aI0
aI1
aa(lp3960
I9
aI2
aI2
aI0
aI1
aa(lp3961
I2
aI5
aI4
aI0
aI0
aa(lp3962
I4
aI2
aI2
aI0
aI0
aa(lp3963
I3
aI1
aI2
aI0
aI0
aa(lp3964
I6
aI1
aI0
aI0
aI0
aa(lp3965
I3
aI1
aI0
aI0
aI0
aa(lp3966
I3
aI2
aI0
aI0
aI0
aa(lp3967
I2
aI2
aI1
aI0
aI1
aa(lp3968
I0
aI2
aI1
aI0
aI0
aa(lp3969
I4
aI3
aI1
aI0
aI0
aa(lp3970
I0
aI3
aI2
aI0
aI0
aa(lp3971
I3
aI3
aI1
aI0
aI0
aa(lp3972
I5
aI5
aI0
aI1
aI2
aa(lp3973
I1
aI5
aI0
aI0
aI1
aa(lp3974
I4
aI3
aI3
aI0
aI0
aa(lp3975
I3
aI1
aI0
aI0
aI0
aa(lp3976
I2
aI1
aI1
aI0
aI0
aa(lp3977
I3
aI2
aI2
aI0
aI0
aa(lp3978
I3
aI1
aI0
aI0
aI1
aa(lp3979
I3
aI1
aI0
aI0
aI1
aa(lp3980
I0
aI2
aI0
aI0
aI0
aa(lp3981
I0
aI0
aI1
aI0
aI0
aa(lp3982
I1
aI0
aI3
aI0
aI0
aa(lp3983
I0
aI0
aI1
aI0
aI0
aa(lp3984
I0
aI0
aI2
aI0
aI0
aa(lp3985
I1
aI2
aI1
aI0
aI0
aa(lp3986
I3
aI2
aI1
aI0
aI0
aa(lp3987
I5
aI1
aI1
aI0
aI0
aa(lp3988
I3
aI2
aI1
aI0
aI0
aa(lp3989
I1
aI4
aI0
aI0
aI2
aa(lp3990
I0
aI1
aI0
aI0
aI0
aa(lp3991
I0
aI0
aI0
aI0
aI1
aa(lp3992
I2
aI1
aI0
aI0
aI0
aa(lp3993
I2
aI1
aI1
aI0
aI1
aa(lp3994
I1
aI1
aI1
aI0
aI0
aa(lp3995
I2
aI2
aI1
aI0
aI0
aa(lp3996
I2
aI3
aI1
aI0
aI0
aa(lp3997
I0
aI1
aI0
aI0
aI0
aa(lp3998
I2
aI1
aI1
aI0
aI0
aa(lp3999
I3
aI2
aI0
aI0
aI1
aa(lp4000
I1
aI0
aI0
aI0
aI0
aa(lp4001
I2
aI1
aI0
aI0
aI0
aa(lp4002
I2
aI2
aI0
aI0
aI0
aa(lp4003
I1
aI5
aI1
aI0
aI0
aa(lp4004
I2
aI2
aI2
aI0
aI0
aa(lp4005
I0
aI2
aI1
aI0
aI0
aa(lp4006
I0
aI3
aI1
aI0
aI0
aa(lp4007
I5
aI3
aI1
aI0
aI1
aa(lp4008
I4
aI5
aI2
aI0
aI0
aa(lp4009
I4
aI5
aI1
aI0
aI0
aa(lp4010
I1
aI2
aI2
aI0
aI0
aa(lp4011
I0
aI3
aI1
aI1
aI0
aa(lp4012
I2
aI0
aI0
aI0
aI0
aa(lp4013
I0
aI1
aI1
aI1
aI0
aa(lp4014
I1
aI1
aI1
aI0
aI1
aa(lp4015
I5
aI0
aI0
aI0
aI1
aa(lp4016
I0
aI1
aI1
aI1
aI0
aa(lp4017
I1
aI0
aI0
aI0
aI1
aa(lp4018
I1
aI1
aI1
aI0
aI0
aa(lp4019
I1
aI0
aI1
aI0
aI0
aa(lp4020
I0
aI1
aI0
aI0
aI0
aa(lp4021
I3
aI1
aI2
aI0
aI0
aa(lp4022
I1
aI3
aI0
aI0
aI0
aa(lp4023
I1
aI4
aI0
aI0
aI0
aa(lp4024
I1
aI2
aI0
aI0
aI0
aa(lp4025
I0
aI2
aI1
aI0
aI1
aa(lp4026
I1
aI2
aI1
aI0
aI1
aa(lp4027
I0
aI2
aI0
aI0
aI3
aa(lp4028
I2
aI3
aI0
aI0
aI0
aa(lp4029
I3
aI1
aI1
aI1
aI0
aa(lp4030
I1
aI4
aI3
aI0
aI0
aa(lp4031
I3
aI3
aI0
aI0
aI0
aa(lp4032
I4
aI1
aI0
aI0
aI0
aa(lp4033
I0
aI0
aI1
aI0
aI0
aa(lp4034
I1
aI1
aI0
aI0
aI1
aa(lp4035
I1
aI2
aI0
aI0
aI0
aa(lp4036
I1
aI0
aI0
aI0
aI0
aa(lp4037
I1
aI3
aI1
aI0
aI0
aa(lp4038
I2
aI1
aI1
aI0
aI0
aa(lp4039
I0
aI4
aI1
aI0
aI1
aa(lp4040
I1
aI1
aI1
aI0
aI0
aa(lp4041
I1
aI2
aI0
aI0
aI0
aa(lp4042
I4
aI3
aI0
aI0
aI2
aa(lp4043
I0
aI1
aI0
aI0
aI0
aa(lp4044
I0
aI2
aI0
aI0
aI1
aa(lp4045
I5
aI3
aI1
aI1
aI0
aa(lp4046
I3
aI1
aI2
aI0
aI1
aa(lp4047
I2
aI1
aI0
aI0
aI0
aa(lp4048
I0
aI4
aI0
aI0
aI0
aa(lp4049
I0
aI3
aI0
aI0
aI0
aa(lp4050
I1
aI1
aI1
aI0
aI0
aa(lp4051
I0
aI2
aI0
aI0
aI2
aa(lp4052
I0
aI4
aI0
aI0
aI0
aa(lp4053
I2
aI1
aI1
aI0
aI2
aa(lp4054
I1
aI1
aI0
aI0
aI0
aa(lp4055
I2
aI3
aI0
aI0
aI0
aa(lp4056
I1
aI1
aI0
aI0
aI0
aa(lp4057
I1
aI0
aI0
aI0
aI0
aa(lp4058
I0
aI2
aI0
aI0
aI0
aa(lp4059
I2
aI0
aI0
aI0
aI0
aa(lp4060
I1
aI0
aI1
aI0
aI1
aa(lp4061
I1
aI0
aI0
aI0
aI0
aa(lp4062
I0
aI0
aI0
aI0
aI0
aa(lp4063
I0
aI1
aI0
aI0
aI0
aa(lp4064
I1
aI0
aI0
aI0
aI0
aa(lp4065
I0
aI4
aI1
aI0
aI0
aa(lp4066
I1
aI4
aI0
aI0
aI1
aa(lp4067
I0
aI1
aI1
aI0
aI1
aa(lp4068
I1
aI0
aI0
aI0
aI0
aa(lp4069
I2
aI2
aI1
aI0
aI0
aa(lp4070
I1
aI2
aI1
aI0
aI0
aa(lp4071
I1
aI2
aI0
aI0
aI0
aa(lp4072
I0
aI2
aI0
aI0
aI0
aa(lp4073
I2
aI1
aI0
aI0
aI1
aa(lp4074
I0
aI4
aI0
aI0
aI0
aa(lp4075
I0
aI2
aI0
aI0
aI0
aa(lp4076
I0
aI1
aI1
aI0
aI0
aa(lp4077
I2
aI1
aI0
aI0
aI0
aa(lp4078
I3
aI3
aI0
aI0
aI1
aa(lp4079
I1
aI0
aI0
aI0
aI0
aa(lp4080
I2
aI2
aI0
aI0
aI0
aa(lp4081
I2
aI0
aI0
aI0
aI0
aa(lp4082
I1
aI2
aI1
aI0
aI0
aa(lp4083
I1
aI1
aI1
aI0
aI0
aa(lp4084
I1
aI0
aI0
aI0
aI0
aa(lp4085
I0
aI1
aI0
aI0
aI1
aa(lp4086
I1
aI2
aI0
aI0
aI0
aa(lp4087
I2
aI4
aI2
aI0
aI0
aa(lp4088
I0
aI2
aI0
aI0
aI0
aa(lp4089
I1
aI2
aI0
aI0
aI0
aa(lp4090
I3
aI2
aI0
aI0
aI2
aa(lp4091
I2
aI3
aI1
aI0
aI2
aa(lp4092
I2
aI5
aI1
aI0
aI0
aa(lp4093
I1
aI2
aI1
aI1
aI0
aa(lp4094
I1
aI2
aI1
aI0
aI0
aa(lp4095
I1
aI3
aI0
aI0
aI0
aa(lp4096
I1
aI3
aI0
aI0
aI0
aa(lp4097
I3
aI0
aI1
aI0
aI0
aa(lp4098
I2
aI1
aI1
aI0
aI1
aa(lp4099
I0
aI0
aI1
aI0
aI0
aa(lp4100
I2
aI2
aI0
aI0
aI1
aa(lp4101
I4
aI0
aI0
aI0
aI0
aa(lp4102
I3
aI0
aI0
aI0
aI0
aa(lp4103
I1
aI0
aI1
aI0
aI1
aa(lp4104
I1
aI2
aI1
aI0
aI0
aa(lp4105
I1
aI2
aI0
aI0
aI0
aa(lp4106
I0
aI4
aI0
aI0
aI0
aa(lp4107
I1
aI5
aI1
aI0
aI2
aa(lp4108
I5
aI1
aI0
aI0
aI1
aa(lp4109
I3
aI2
aI2
aI0
aI1
aa(lp4110
I3
aI3
aI1
aI1
aI0
aa(lp4111
I1
aI3
aI1
aI0
aI2
aa(lp4112
I2
aI5
aI0
aI0
aI0
aa(lp4113
I2
aI3
aI1
aI0
aI2
aa(lp4114
I2
aI1
aI1
aI0
aI1
aa(lp4115
I1
aI4
aI0
aI0
aI0
aa(lp4116
I3
aI3
aI1
aI0
aI0
aa(lp4117
I5
aI0
aI0
aI0
aI1
aa(lp4118
I0
aI3
aI1
aI0
aI1
aa(lp4119
I1
aI4
aI2
aI0
aI1
aa(lp4120
I0
aI4
aI0
aI0
aI1
aa(lp4121
I3
aI4
aI1
aI0
aI0
aa(lp4122
I2
aI2
aI2
aI0
aI2
aa(lp4123
I3
aI1
aI0
aI0
aI1
aa(lp4124
I3
aI1
aI2
aI0
aI0
aa(lp4125
I1
aI0
aI1
aI0
aI1
aa(lp4126
I4
aI3
aI5
aI0
aI0
aa(lp4127
I3
aI3
aI2
aI1
aI2
aa(lp4128
I6
aI5
aI3
aI0
aI2
aa(lp4129
I1
aI2
aI1
aI0
aI1
aa(lp4130
I1
aI3
aI0
aI1
aI0
aa(lp4131
I0
aI2
aI0
aI0
aI0
aa(lp4132
I2
aI3
aI1
aI0
aI1
aa(lp4133
I0
aI0
aI1
aI0
aI0
aa(lp4134
I5
aI5
aI0
aI0
aI0
aa(lp4135
I2
aI2
aI0
aI0
aI1
aa(lp4136
I3
aI4
aI1
aI0
aI1
aa(lp4137
I2
aI2
aI1
aI0
aI1
aa(lp4138
I5
aI3
aI2
aI0
aI1
aa(lp4139
I2
aI4
aI2
aI0
aI4
aa(lp4140
I2
aI4
aI0
aI0
aI0
aa(lp4141
I2
aI5
aI1
aI0
aI1
aa(lp4142
I6
aI4
aI1
aI2
aI0
aa(lp4143
I1
aI5
aI2
aI0
aI2
aa(lp4144
I0
aI3
aI2
aI0
aI2
aa(lp4145
I1
aI2
aI2
aI0
aI0
aa(lp4146
I6
aI2
aI0
aI0
aI3
aa(lp4147
I3
aI3
aI0
aI0
aI1
aa(lp4148
I3
aI2
aI0
aI0
aI0
aa(lp4149
I0
aI7
aI0
aI0
aI0
aa(lp4150
I2
aI7
aI3
aI0
aI2
aa(lp4151
I4
aI2
aI3
aI0
aI1
aa(lp4152
I0
aI2
aI2
aI0
aI0
aa(lp4153
I4
aI3
aI1
aI1
aI0
aa(lp4154
I2
aI2
aI0
aI0
aI0
aa(lp4155
I4
aI3
aI2
aI0
aI1
aa(lp4156
I2
aI1
aI2
aI1
aI0
aa(lp4157
I3
aI3
aI1
aI0
aI0
aa(lp4158
I2
aI4
aI2
aI0
aI0
aa(lp4159
I5
aI1
aI0
aI0
aI2
aa(lp4160
I4
aI6
aI2
aI0
aI1
aa(lp4161
I4
aI3
aI1
aI0
aI1
aa(lp4162
I2
aI2
aI1
aI0
aI2
aa(lp4163
I6
aI4
aI1
aI0
aI1
aa(lp4164
I2
aI5
aI3
aI1
aI1
aa(lp4165
I3
aI3
aI3
aI0
aI1
aa(lp4166
I1
aI2
aI1
aI0
aI1
aa(lp4167
I6
aI2
aI1
aI0
aI0
aa(lp4168
I1
aI4
aI1
aI0
aI0
aa(lp4169
I4
aI4
aI1
aI1
aI0
aa(lp4170
I3
aI8
aI1
aI0
aI1
aa(lp4171
I2
aI2
aI0
aI0
aI0
aa(lp4172
I6
aI1
aI2
aI0
aI0
aa(lp4173
I2
aI3
aI3
aI0
aI1
aa(lp4174
I4
aI1
aI0
aI0
aI0
aa(lp4175
I3
aI4
aI0
aI0
aI3
aa(lp4176
I1
aI1
aI0
aI0
aI0
aa(lp4177
I1
aI1
aI0
aI0
aI0
aa(lp4178
I3
aI2
aI1
aI0
aI1
aa(lp4179
I1
aI3
aI2
aI0
aI1
aa(lp4180
I5
aI0
aI3
aI0
aI2
aa(lp4181
I3
aI3
aI1
aI0
aI1
aa(lp4182
I5
aI2
aI5
aI0
aI2
aa(lp4183
I5
aI5
aI0
aI1
aI0
aa(lp4184
I4
aI5
aI1
aI0
aI0
aa(lp4185
I6
aI0
aI1
aI0
aI0
aa(lp4186
I6
aI3
aI3
aI0
aI2
aa(lp4187
I6
aI2
aI2
aI0
aI1
aa(lp4188
I6
aI1
aI0
aI1
aI0
aa(lp4189
I4
aI5
aI1
aI0
aI0
aa(lp4190
I3
aI5
aI3
aI0
aI1
aa(lp4191
I4
aI4
aI7
aI1
aI0
aa(lp4192
I7
aI4
aI2
aI0
aI0
aa(lp4193
I0
aI3
aI2
aI0
aI1
aa(lp4194
I1
aI1
aI1
aI0
aI0
aa(lp4195
I0
aI2
aI4
aI0
aI1
aa(lp4196
I4
aI8
aI2
aI0
aI1
aa(lp4197
I7
aI7
aI3
aI0
aI1
aa(lp4198
I4
aI1
aI1
aI0
aI1
aa(lp4199
I5
aI1
aI5
aI0
aI1
aa(lp4200
I2
aI2
aI2
aI0
aI3
aa(lp4201
I3
aI2
aI0
aI0
aI1
aa(lp4202
I0
aI4
aI2
aI0
aI2
aa(lp4203
I3
aI3
aI1
aI0
aI4
aa(lp4204
I3
aI2
aI2
aI0
aI1
aa(lp4205
I4
aI4
aI3
aI0
aI1
aa(lp4206
I4
aI1
aI0
aI0
aI5
aa(lp4207
I3
aI5
aI1
aI1
aI0
aa(lp4208
I1
aI4
aI2
aI0
aI1
aa(lp4209
I4
aI5
aI2
aI0
aI4
aa(lp4210
I5
aI2
aI1
aI0
aI2
aa(lp4211
I0
aI3
aI1
aI0
aI2
aa(lp4212
I6
aI4
aI2
aI0
aI2
aa(lp4213
I6
aI6
aI1
aI0
aI1
aa(lp4214
I5
aI2
aI0
aI0
aI1
aa(lp4215
I2
aI1
aI2
aI2
aI1
aa(lp4216
I7
aI2
aI2
aI0
aI1
aa(lp4217
I7
aI2
aI3
aI0
aI1
aa(lp4218
I7
aI4
aI0
aI0
aI0
aa(lp4219
I0
aI3
aI2
aI0
aI2
aa(lp4220
I2
aI4
aI4
aI0
aI2
aa(lp4221
I5
aI1
aI1
aI0
aI1
aa(lp4222
I5
aI5
aI3
aI0
aI2
aa(lp4223
I6
aI3
aI0
aI1
aI2
aa(lp4224
I3
aI3
aI4
aI0
aI2
aa(lp4225
I4
aI5
aI2
aI1
aI2
aa(lp4226
I1
aI4
aI5
aI0
aI0
aa(lp4227
I4
aI1
aI0
aI1
aI0
aa(lp4228
I7
aI0
aI0
aI0
aI1
aa(lp4229
I1
aI3
aI3
aI0
aI1
aa(lp4230
I3
aI5
aI4
aI0
aI0
aa(lp4231
I4
aI1
aI2
aI0
aI1
aa(lp4232
I5
aI2
aI2
aI0
aI1
aa(lp4233
I3
aI1
aI0
aI1
aI0
aa(lp4234
I3
aI7
aI0
aI1
aI0
aa(lp4235
I2
aI2
aI2
aI1
aI1
aa(lp4236
I4
aI2
aI1
aI0
aI1
aa(lp4237
I2
aI2
aI0
aI0
aI1
aa(lp4238
I5
aI4
aI2
aI0
aI4
aa(lp4239
I4
aI3
aI2
aI0
aI0
aa(lp4240
I3
aI5
aI3
aI0
aI3
aa(lp4241
I8
aI4
aI4
aI1
aI4
aa(lp4242
I6
aI4
aI1
aI0
aI1
aa(lp4243
I4
aI5
aI4
aI0
aI2
aa(lp4244
I4
aI5
aI1
aI0
aI0
aa(lp4245
I7
aI3
aI2
aI0
aI0
aa(lp4246
I5
aI3
aI4
aI0
aI0
aa(lp4247
I4
aI10
aI3
aI0
aI2
aa(lp4248
I6
aI4
aI2
aI0
aI3
aa(lp4249
I5
aI1
aI0
aI0
aI2
aa(lp4250
I3
aI2
aI1
aI0
aI1
aa(lp4251
I2
aI3
aI2
aI0
aI1
aa(lp4252
I5
aI4
aI2
aI0
aI0
aa(lp4253
I6
aI4
aI3
aI0
aI3
aa(lp4254
I6
aI3
aI2
aI0
aI0
aa(lp4255
I3
aI5
aI3
aI0
aI0
aa(lp4256
I3
aI1
aI4
aI0
aI0
aa(lp4257
I5
aI0
aI2
aI0
aI0
aa(lp4258
I5
aI3
aI4
aI0
aI0
aa(lp4259
I4
aI1
aI2
aI0
aI0
aa(lp4260
I3
aI3
aI0
aI0
aI2
aa(lp4261
I6
aI3
aI2
aI0
aI2
aa(lp4262
I3
aI1
aI1
aI0
aI2
aa(lp4263
I2
aI4
aI2
aI0
aI1
aa(lp4264
I3
aI2
aI1
aI0
aI0
aa(lp4265
I3
aI1
aI0
aI0
aI0
aa(lp4266
I2
aI2
aI2
aI0
aI0
aa(lp4267
I6
aI0
aI3
aI0
aI1
aa(lp4268
I6
aI1
aI0
aI0
aI1
aa(lp4269
I6
aI5
aI1
aI0
aI0
aa(lp4270
I2
aI2
aI1
aI0
aI2
aa(lp4271
I2
aI2
aI0
aI0
aI1
aa(lp4272
I4
aI1
aI3
aI0
aI0
aa(lp4273
I3
aI5
aI1
aI0
aI1
aa(lp4274
I1
aI0
aI1
aI0
aI1
aa(lp4275
I1
aI5
aI0
aI1
aI0
aa(lp4276
I6
aI3
aI0
aI0
aI1
aa(lp4277
I8
aI4
aI1
aI0
aI3
aa(lp4278
I2
aI4
aI1
aI0
aI3
aa(lp4279
I7
aI2
aI4
aI0
aI1
aa(lp4280
I3
aI6
aI2
aI2
aI2
aa(lp4281
I3
aI3
aI3
aI0
aI1
aa(lp4282
I5
aI4
aI2
aI1
aI2
aa(lp4283
I3
aI5
aI2
aI0
aI0
aa(lp4284
I1
aI5
aI0
aI0
aI3
aa(lp4285
I3
aI3
aI0
aI0
aI0
aa(lp4286
I3
aI1
aI2
aI0
aI0
aa(lp4287
I5
aI4
aI1
aI0
aI1
aa(lp4288
I2
aI2
aI1
aI0
aI2
aa(lp4289
I2
aI5
aI3
aI0
aI1
aa(lp4290
I5
aI1
aI0
aI0
aI0
aa(lp4291
I9
aI3
aI1
aI0
aI1
aa(lp4292
I2
aI2
aI0
aI0
aI1
aa(lp4293
I1
aI8
aI1
aI0
aI2
aa(lp4294
I4
aI4
aI2
aI0
aI1
aa(lp4295
I2
aI5
aI4
aI0
aI1
aa(lp4296
I4
aI3
aI1
aI1
aI0
aa(lp4297
I0
aI3
aI1
aI0
aI0
aa(lp4298
I1
aI4
aI1
aI0
aI0
aa(lp4299
I3
aI2
aI1
aI0
aI3
aa(lp4300
I2
aI3
aI1
aI0
aI0
aa(lp4301
I4
aI5
aI0
aI0
aI1
aa(lp4302
I4
aI4
aI1
aI0
aI0
aa(lp4303
I1
aI0
aI0
aI0
aI0
aa(lp4304
I3
aI4
aI0
aI0
aI2
aa(lp4305
I4
aI2
aI1
aI0
aI0
aa(lp4306
I1
aI3
aI2
aI0
aI1
aa(lp4307
I0
aI2
aI2
aI0
aI1
aa(lp4308
I3
aI1
aI1
aI0
aI0
aa(lp4309
I4
aI4
aI3
aI0
aI0
aa(lp4310
I0
aI1
aI1
aI0
aI1
aa(lp4311
I4
aI3
aI0
aI0
aI0
aa(lp4312
I2
aI0
aI3
aI0
aI0
aa(lp4313
I3
aI2
aI0
aI0
aI1
aa(lp4314
I2
aI3
aI0
aI0
aI1
aa(lp4315
I2
aI0
aI2
aI0
aI0
aa(lp4316
I0
aI8
aI1
aI0
aI0
aa(lp4317
I0
aI4
aI2
aI0
aI2
aa(lp4318
I4
aI3
aI1
aI0
aI0
aa(lp4319
I1
aI3
aI1
aI0
aI1
aa(lp4320
I2
aI3
aI1
aI0
aI0
aa(lp4321
I1
aI2
aI3
aI0
aI2
aa(lp4322
I4
aI2
aI0
aI0
aI0
aa(lp4323
I4
aI4
aI1
aI0
aI0
aa(lp4324
I2
aI1
aI1
aI1
aI1
aa(lp4325
I3
aI0
aI1
aI0
aI1
aa(lp4326
I3
aI0
aI0
aI0
aI2
aa(lp4327
I0
aI3
aI0
aI0
aI0
aa(lp4328
I0
aI2
aI2
aI0
aI1
aa(lp4329
I4
aI0
aI1
aI0
aI0
aa(lp4330
I3
aI1
aI3
aI0
aI0
aa(lp4331
I0
aI3
aI2
aI0
aI0
aa(lp4332
I4
aI6
aI1
aI0
aI0
aa(lp4333
I5
aI1
aI2
aI1
aI0
aa(lp4334
I0
aI6
aI2
aI0
aI1
aa(lp4335
I3
aI3
aI0
aI0
aI0
aa(lp4336
I1
aI2
aI1
aI0
aI0
aa(lp4337
I2
aI4
aI1
aI0
aI0
aa(lp4338
I1
aI4
aI0
aI0
aI1
aa(lp4339
I3
aI2
aI1
aI0
aI0
aa(lp4340
I2
aI4
aI0
aI0
aI0
aa(lp4341
I0
aI2
aI0
aI0
aI0
aa(lp4342
I1
aI7
aI1
aI0
aI0
aa(lp4343
I1
aI5
aI3
aI0
aI0
aa(lp4344
I4
aI2
aI0
aI0
aI1
aa(lp4345
I2
aI0
aI0
aI0
aI0
aa(lp4346
I1
aI1
aI0
aI1
aI0
aa(lp4347
I1
aI1
aI2
aI0
aI1
aa(lp4348
I1
aI0
aI1
aI0
aI0
aa(lp4349
I2
aI0
aI0
aI0
aI1
aa(lp4350
I2
aI4
aI1
aI0
aI2
aa(lp4351
I4
aI5
aI0
aI0
aI0
aa(lp4352
I2
aI6
aI0
aI0
aI0
aa(lp4353
I1
aI3
aI0
aI0
aI0
aa(lp4354
I0
aI2
aI1
aI0
aI1
aa(lp4355
I0
aI2
aI0
aI0
aI0
aa(lp4356
I1
aI2
aI1
aI0
aI0
aa(lp4357
I2
aI2
aI0
aI0
aI1
aa(lp4358
I1
aI3
aI0
aI0
aI1
aa(lp4359
I0
aI4
aI1
aI0
aI0
aa(lp4360
I1
aI1
aI0
aI0
aI0
aa(lp4361
I1
aI1
aI1
aI0
aI0
aa(lp4362
I0
aI1
aI0
aI0
aI0
aa(lp4363
I1
aI0
aI1
aI0
aI0
aa(lp4364
I1
aI2
aI0
aI0
aI0
aa(lp4365
I2
aI2
aI0
aI0
aI1
aa(lp4366
I5
aI6
aI0
aI0
aI0
aa(lp4367
I2
aI3
aI2
aI0
aI0
aa(lp4368
I1
aI1
aI1
aI0
aI0
aa(lp4369
I2
aI1
aI2
aI0
aI0
aa(lp4370
I0
aI2
aI1
aI0
aI0
aa(lp4371
I1
aI2
aI3
aI0
aI0
aa(lp4372
I0
aI0
aI1
aI0
aI1
aa(lp4373
I2
aI4
aI0
aI0
aI0
aa(lp4374
I3
aI1
aI3
aI0
aI1
aa(lp4375
I0
aI2
aI1
aI0
aI1
aa(lp4376
I1
aI0
aI1
aI0
aI0
aa(lp4377
I0
aI3
aI2
aI0
aI1
aa(lp4378
I3
aI1
aI1
aI0
aI0
aa(lp4379
I3
aI6
aI0
aI0
aI0
aa(lp4380
I0
aI6
aI2
aI0
aI0
aa(lp4381
I0
aI1
aI0
aI0
aI0
aa(lp4382
I1
aI2
aI0
aI0
aI0
aa(lp4383
I0
aI1
aI1
aI0
aI0
aa(lp4384
I1
aI0
aI0
aI0
aI2
aa(lp4385
I0
aI0
aI1
aI0
aI1
aa(lp4386
I1
aI2
aI0
aI0
aI0
aa(lp4387
I2
aI4
aI0
aI0
aI0
aa(lp4388
I0
aI4
aI1
aI1
aI1
aa(lp4389
I2
aI0
aI2
aI0
aI0
aa(lp4390
I0
aI3
aI0
aI0
aI0
aa(lp4391
I0
aI0
aI1
aI0
aI1
aa(lp4392
I1
aI5
aI0
aI0
aI0
aa(lp4393
I0
aI3
aI0
aI1
aI0
aa(lp4394
I1
aI2
aI1
aI0
aI1
aa(lp4395
I0
aI2
aI1
aI0
aI1
aa(lp4396
I0
aI4
aI1
aI0
aI0
aa(lp4397
I0
aI1
aI2
aI0
aI0
aa(lp4398
I0
aI0
aI0
aI0
aI0
aa(lp4399
I3
aI1
aI0
aI0
aI0
aa(lp4400
I1
aI3
aI2
aI0
aI0
aa(lp4401
I1
aI5
aI0
aI0
aI0
aa(lp4402
I2
aI4
aI1
aI0
aI0
aa(lp4403
I3
aI1
aI1
aI0
aI0
aa(lp4404
I1
aI0
aI0
aI0
aI0
aa(lp4405
I3
aI1
aI0
aI0
aI1
aa(lp4406
I0
aI1
aI1
aI0
aI0
aa(lp4407
I1
aI0
aI0
aI0
aI0
aa(lp4408
I1
aI1
aI0
aI0
aI0
aa(lp4409
I3
aI3
aI1
aI0
aI1
aa(lp4410
I1
aI0
aI0
aI0
aI0
aa(lp4411
I0
aI1
aI1
aI0
aI1
aa(lp4412
I1
aI4
aI0
aI0
aI1
aa(lp4413
I1
aI3
aI1
aI0
aI1
aa(lp4414
I1
aI0
aI1
aI0
aI1
aa(lp4415
I2
aI2
aI0
aI0
aI0
aa(lp4416
I3
aI2
aI1
aI0
aI0
aa(lp4417
I1
aI2
aI0
aI0
aI0
aa(lp4418
I0
aI1
aI0
aI0
aI0
aa(lp4419
I0
aI1
aI1
aI0
aI0
aa(lp4420
I1
aI1
aI0
aI0
aI0
aa(lp4421
I1
aI2
aI1
aI1
aI0
aa(lp4422
I1
aI1
aI1
aI0
aI0
aa(lp4423
I0
aI1
aI0
aI0
aI0
aa(lp4424
I0
aI1
aI0
aI0
aI0
aa(lp4425
I1
aI0
aI1
aI0
aI0
aa(lp4426
I3
aI0
aI0
aI0
aI0
aa(lp4427
I2
aI4
aI0
aI0
aI0
aa(lp4428
I0
aI0
aI0
aI0
aI0
aa(lp4429
I1
aI1
aI1
aI0
aI0
aa(lp4430
I0
aI1
aI1
aI0
aI0
aa(lp4431
I3
aI0
aI0
aI0
aI0
aa(lp4432
I0
aI0
aI1
aI0
aI0
aa(lp4433
I1
aI1
aI0
aI0
aI0
aa(lp4434
I0
aI1
aI1
aI0
aI0
aa(lp4435
I2
aI2
aI0
aI0
aI0
aa(lp4436
I0
aI2
aI0
aI0
aI0
aa(lp4437
I1
aI2
aI0
aI0
aI0
aa(lp4438
I1
aI0
aI1
aI0
aI0
aa(lp4439
I0
aI1
aI0
aI0
aI0
aa(lp4440
I1
aI0
aI0
aI0
aI1
aa(lp4441
I0
aI0
aI0
aI0
aI0
aa(lp4442
I2
aI2
aI2
aI0
aI0
aa(lp4443
I0
aI5
aI0
aI0
aI0
aa(lp4444
I1
aI2
aI0
aI0
aI0
aa(lp4445
I1
aI1
aI0
aI0
aI0
aa(lp4446
I1
aI0
aI0
aI0
aI0
aa(lp4447
I1
aI2
aI0
aI0
aI0
aa(lp4448
I0
aI1
aI0
aI0
aI0
aa(lp4449
I2
aI0
aI0
aI0
aI0
aa(lp4450
I1
aI3
aI1
aI0
aI0
aa(lp4451
I1
aI1
aI1
aI0
aI0
aa(lp4452
I0
aI2
aI0
aI1
aI1
aa(lp4453
I1
aI4
aI1
aI0
aI0
aa(lp4454
I1
aI0
aI0
aI0
aI0
aa(lp4455
I3
aI1
aI1
aI0
aI0
aa(lp4456
I0
aI5
aI0
aI0
aI0
aa(lp4457
I2
aI1
aI2
aI0
aI0
aa(lp4458
I0
aI1
aI0
aI0
aI0
aa(lp4459
I0
aI2
aI0
aI0
aI0
aa(lp4460
I0
aI4
aI1
aI0
aI1
aa(lp4461
I2
aI2
aI1
aI0
aI1
aa(lp4462
I2
aI1
aI0
aI0
aI1
aa(lp4463
I3
aI0
aI0
aI0
aI0
aa(lp4464
I0
aI1
aI0
aI1
aI1
aa(lp4465
I0
aI1
aI1
aI0
aI0
aa(lp4466
I3
aI2
aI1
aI1
aI0
aa(lp4467
I0
aI3
aI2
aI0
aI0
aa(lp4468
I1
aI1
aI0
aI0
aI0
aa(lp4469
I4
aI5
aI0
aI0
aI1
aa(lp4470
I3
aI3
aI0
aI0
aI0
aa(lp4471
I4
aI2
aI0
aI0
aI0
aa(lp4472
I2
aI4
aI1
aI0
aI0
aa(lp4473
I0
aI5
aI0
aI0
aI0
aa(lp4474
I3
aI1
aI0
aI0
aI2
aa(lp4475
I3
aI1
aI0
aI0
aI1
aa(lp4476
I3
aI5
aI0
aI0
aI2
aa(lp4477
I0
aI3
aI0
aI1
aI1
aa(lp4478
I1
aI2
aI2
aI0
aI1
aa(lp4479
I0
aI0
aI0
aI0
aI0
aa(lp4480
I2
aI2
aI0
aI0
aI0
aa(lp4481
I0
aI2
aI0
aI0
aI0
aa(lp4482
I0
aI2
aI2
aI0
aI2
aa(lp4483
I1
aI1
aI0
aI0
aI0
aa(lp4484
I0
aI1
aI1
aI0
aI0
aa(lp4485
I1
aI3
aI1
aI0
aI0
aa(lp4486
I1
aI1
aI0
aI0
aI0
aa(lp4487
I1
aI1
aI1
aI0
aI1
aa(lp4488
I1
aI1
aI0
aI0
aI0
aa(lp4489
I0
aI0
aI0
aI0
aI0
aa(lp4490
I2
aI3
aI1
aI0
aI0
aa(lp4491
I1
aI3
aI1
aI0
aI0
aa(lp4492
I6
aI1
aI0
aI0
aI0
aa(lp4493
I3
aI1
aI2
aI0
aI0
aa(lp4494
I5
aI0
aI1
aI0
aI0
aa(lp4495
I3
aI2
aI0
aI0
aI1
aa(lp4496
I1
aI2
aI1
aI0
aI1
aa(lp4497
I2
aI1
aI1
aI0
aI1
aa(lp4498
I1
aI0
aI1
aI0
aI0
aa(lp4499
I2
aI2
aI0
aI0
aI0
aa(lp4500
I1
aI2
aI2
aI0
aI2
aa(lp4501
I0
aI1
aI2
aI0
aI0
aa(lp4502
I5
aI1
aI2
aI0
aI0
aa(lp4503
I4
aI2
aI2
aI0
aI3
aa(lp4504
I4
aI3
aI2
aI0
aI1
aa(lp4505
I3
aI2
aI2
aI0
aI1
aa(lp4506
I4
aI3
aI1
aI0
aI1
aa(lp4507
I3
aI1
aI2
aI0
aI0
aa(lp4508
I3
aI6
aI2
aI0
aI1
aa(lp4509
I1
aI2
aI2
aI0
aI0
aa(lp4510
I5
aI3
aI3
aI0
aI0
aa(lp4511
I3
aI2
aI2
aI0
aI2
aa(lp4512
I7
aI1
aI0
aI0
aI1
aa(lp4513
I5
aI3
aI1
aI2
aI1
aa(lp4514
I1
aI2
aI1
aI1
aI0
aa(lp4515
I4
aI1
aI2
aI0
aI1
aa(lp4516
I3
aI1
aI0
aI0
aI2
aa(lp4517
I2
aI2
aI1
aI1
aI0
aa(lp4518
I5
aI4
aI2
aI0
aI2
aa(lp4519
I3
aI2
aI2
aI0
aI0
aa(lp4520
I1
aI4
aI0
aI0
aI0
aa(lp4521
I0
aI2
aI1
aI0
aI1
aa(lp4522
I2
aI2
aI1
aI0
aI0
aa(lp4523
I4
aI4
aI0
aI0
aI1
aa(lp4524
I4
aI1
aI2
aI0
aI1
aa(lp4525
I3
aI4
aI0
aI0
aI0
aa(lp4526
I4
aI1
aI1
aI0
aI0
aa(lp4527
I0
aI4
aI1
aI0
aI0
aa(lp4528
I1
aI4
aI3
aI1
aI0
aa(lp4529
I4
aI2
aI2
aI0
aI0
aa(lp4530
I4
aI4
aI1
aI0
aI4
aa(lp4531
I5
aI1
aI2
aI0
aI2
aa(lp4532
I4
aI4
aI4
aI0
aI1
aa(lp4533
I1
aI0
aI3
aI0
aI0
aa(lp4534
I5
aI3
aI3
aI0
aI1
aa(lp4535
I3
aI6
aI1
aI0
aI4
aa(lp4536
I6
aI0
aI3
aI0
aI1
aa(lp4537
I2
aI2
aI0
aI0
aI1
aa(lp4538
I4
aI1
aI3
aI0
aI0
aa(lp4539
I1
aI6
aI1
aI0
aI1
aa(lp4540
I7
aI0
aI2
aI1
aI2
aa(lp4541
I1
aI7
aI4
aI0
aI0
aa(lp4542
I4
aI3
aI0
aI0
aI0
aa(lp4543
I6
aI3
aI2
aI0
aI2
aa(lp4544
I0
aI3
aI1
aI0
aI1
aa(lp4545
I4
aI3
aI2
aI0
aI1
aa(lp4546
I3
aI6
aI3
aI1
aI2
aa(lp4547
I3
aI3
aI3
aI0
aI0
aa(lp4548
I3
aI2
aI1
aI0
aI2
aa(lp4549
I5
aI2
aI1
aI0
aI1
aa(lp4550
I3
aI3
aI2
aI0
aI2
aa(lp4551
I5
aI2
aI1
aI0
aI0
aa(lp4552
I1
aI5
aI1
aI0
aI0
aa(lp4553
I1
aI8
aI2
aI0
aI1
aa(lp4554
I4
aI3
aI2
aI0
aI2
aa(lp4555
I1
aI3
aI1
aI0
aI0
aa(lp4556
I8
aI2
aI5
aI0
aI2
aa(lp4557
I5
aI2
aI1
aI0
aI1
aa(lp4558
I4
aI0
aI3
aI0
aI1
aa(lp4559
I4
aI3
aI3
aI1
aI1
aa(lp4560
I5
aI3
aI4
aI0
aI2
aa(lp4561
I4
aI2
aI1
aI0
aI0
aa(lp4562
I7
aI3
aI1
aI0
aI2
aa(lp4563
I5
aI2
aI1
aI0
aI0
aa(lp4564
I3
aI0
aI3
aI0
aI0
aa(lp4565
I6
aI0
aI3
aI0
aI0
aa(lp4566
I3
aI4
aI4
aI0
aI1
aa(lp4567
I8
aI7
aI2
aI0
aI1
aa(lp4568
I4
aI4
aI0
aI0
aI0
aa(lp4569
I3
aI3
aI2
aI0
aI0
aa(lp4570
I5
aI0
aI1
aI0
aI2
aa(lp4571
I4
aI4
aI2
aI0
aI2
aa(lp4572
I4
aI1
aI0
aI0
aI1
aa(lp4573
I4
aI2
aI2
aI0
aI1
aa(lp4574
I3
aI2
aI2
aI0
aI0
aa(lp4575
I4
aI4
aI1
aI0
aI0
aa(lp4576
I6
aI6
aI2
aI0
aI1
aa(lp4577
I2
aI3
aI2
aI0
aI1
aa(lp4578
I1
aI1
aI3
aI0
aI2
aa(lp4579
I2
aI1
aI2
aI0
aI0
aa(lp4580
I4
aI1
aI3
aI0
aI1
aa(lp4581
I5
aI2
aI3
aI0
aI1
aa(lp4582
I4
aI4
aI1
aI0
aI0
aa(lp4583
I3
aI4
aI1
aI0
aI2
aa(lp4584
I3
aI4
aI0
aI0
aI3
aa(lp4585
I4
aI2
aI0
aI0
aI1
aa(lp4586
I3
aI4
aI2
aI0
aI1
aa(lp4587
I3
aI0
aI0
aI0
aI3
aa(lp4588
I4
aI5
aI1
aI1
aI1
aa(lp4589
I7
aI4
aI0
aI1
aI2
aa(lp4590
I4
aI3
aI2
aI0
aI4
aa(lp4591
I3
aI5
aI2
aI0
aI3
aa(lp4592
I1
aI2
aI0
aI0
aI0
aa(lp4593
I3
aI1
aI0
aI0
aI0
aa(lp4594
I7
aI4
aI3
aI0
aI1
aa(lp4595
I4
aI7
aI1
aI1
aI1
aa(lp4596
I2
aI1
aI2
aI0
aI1
aa(lp4597
I6
aI3
aI0
aI0
aI2
aa(lp4598
I5
aI2
aI6
aI0
aI1
aa(lp4599
I7
aI4
aI1
aI1
aI3
aa(lp4600
I4
aI2
aI3
aI0
aI4
aa(lp4601
I3
aI2
aI0
aI0
aI2
aa(lp4602
I1
aI3
aI0
aI0
aI4
aa(lp4603
I6
aI4
aI0
aI0
aI2
aa(lp4604
I4
aI8
aI1
aI0
aI4
aa(lp4605
I0
aI4
aI0
aI0
aI1
aa(lp4606
I4
aI3
aI1
aI0
aI3
aa(lp4607
I1
aI2
aI1
aI0
aI0
aa(lp4608
I8
aI9
aI3
aI0
aI1
aa(lp4609
I4
aI5
aI1
aI0
aI1
aa(lp4610
I5
aI3
aI2
aI0
aI3
aa(lp4611
I3
aI4
aI4
aI0
aI2
aa(lp4612
I7
aI5
aI3
aI1
aI3
aa(lp4613
I5
aI5
aI1
aI2
aI0
aa(lp4614
I2
aI0
aI1
aI0
aI1
aa(lp4615
I1
aI2
aI2
aI0
aI1
aa(lp4616
I0
aI3
aI2
aI0
aI1
aa(lp4617
I4
aI2
aI0
aI0
aI0
aa(lp4618
I6
aI5
aI0
aI0
aI0
aa(lp4619
I5
aI7
aI3
aI0
aI0
aa(lp4620
I7
aI1
aI1
aI0
aI1
aa(lp4621
I5
aI1
aI3
aI0
aI2
aa(lp4622
I4
aI4
aI0
aI0
aI2
aa(lp4623
I1
aI7
aI2
aI0
aI1
aa(lp4624
I6
aI2
aI3
aI0
aI2
aa(lp4625
I7
aI5
aI1
aI0
aI2
aa(lp4626
I3
aI2
aI1
aI0
aI1
aa(lp4627
I4
aI4
aI5
aI0
aI1
aa(lp4628
I4
aI4
aI2
aI0
aI3
aa(lp4629
I1
aI3
aI3
aI0
aI1
aa(lp4630
I5
aI2
aI1
aI0
aI1
aa(lp4631
I5
aI2
aI2
aI1
aI4
aa(lp4632
I5
aI6
aI1
aI0
aI2
aa(lp4633
I4
aI6
aI0
aI0
aI1
aa(lp4634
I5
aI7
aI2
aI0
aI0
aa(lp4635
I1
aI0
aI0
aI0
aI1
aa(lp4636
I3
aI2
aI1
aI1
aI0
aa(lp4637
I3
aI3
aI0
aI0
aI2
aa(lp4638
I4
aI3
aI2
aI0
aI0
aa(lp4639
I4
aI3
aI0
aI0
aI1
aa(lp4640
I2
aI3
aI2
aI0
aI3
aa(lp4641
I4
aI2
aI1
aI1
aI3
aa(lp4642
I1
aI0
aI3
aI0
aI1
aa(lp4643
I2
aI4
aI2
aI0
aI2
aa(lp4644
I2
aI5
aI2
aI1
aI1
aa(lp4645
I5
aI3
aI3
aI0
aI0
aa(lp4646
I6
aI2
aI0
aI1
aI1
aa(lp4647
I5
aI2
aI4
aI0
aI2
aa(lp4648
I5
aI4
aI3
aI0
aI3
aa(lp4649
I3
aI0
aI1
aI0
aI0
aa(lp4650
I0
aI2
aI4
aI0
aI3
aa(lp4651
I2
aI5
aI0
aI1
aI1
aa(lp4652
I5
aI5
aI1
aI0
aI0
aa(lp4653
I3
aI4
aI2
aI2
aI2
aa(lp4654
I4
aI7
aI2
aI0
aI3
aa(lp4655
I3
aI3
aI4
aI0
aI0
aa(lp4656
I1
aI1
aI1
aI0
aI1
aa(lp4657
I3
aI3
aI1
aI0
aI2
aa(lp4658
I5
aI3
aI0
aI0
aI0
aa(lp4659
I0
aI5
aI2
aI0
aI1
aa(lp4660
I4
aI4
aI0
aI0
aI1
aa(lp4661
I2
aI7
aI1
aI1
aI2
aa(lp4662
I3
aI4
aI3
aI0
aI0
aa(lp4663
I6
aI5
aI0
aI0
aI0
aa(lp4664
I5
aI3
aI3
aI0
aI3
aa(lp4665
I3
aI3
aI1
aI0
aI3
aa(lp4666
I3
aI2
aI3
aI0
aI2
aa(lp4667
I6
aI5
aI0
aI0
aI0
aa(lp4668
I2
aI3
aI1
aI0
aI0
aa(lp4669
I9
aI2
aI2
aI0
aI1
aa(lp4670
I5
aI1
aI0
aI0
aI1
aa(lp4671
I4
aI3
aI1
aI0
aI0
aa(lp4672
I3
aI3
aI0
aI0
aI1
aa(lp4673
I7
aI2
aI0
aI0
aI2
aa(lp4674
I6
aI6
aI0
aI0
aI1
aa(lp4675
I4
aI3
aI2
aI1
aI1
aa(lp4676
I0
aI1
aI1
aI0
aI0
aa(lp4677
I1
aI3
aI0
aI0
aI3
aa(lp4678
I5
aI5
aI2
aI0
aI2
aa(lp4679
I7
aI3
aI0
aI0
aI2
aa(lp4680
I2
aI4
aI2
aI0
aI1
aa(lp4681
I0
aI1
aI1
aI0
aI1
aa(lp4682
I4
aI1
aI1
aI0
aI1
aa(lp4683
I2
aI5
aI1
aI0
aI0
aa(lp4684
I3
aI3
aI2
aI0
aI0
aa(lp4685
I1
aI2
aI0
aI0
aI2
aa(lp4686
I3
aI4
aI0
aI0
aI0
aa(lp4687
I7
aI6
aI4
aI0
aI1
aa(lp4688
I4
aI2
aI0
aI0
aI2
aa(lp4689
I5
aI3
aI0
aI0
aI0
aa(lp4690
I1
aI2
aI1
aI0
aI0
aa(lp4691
I3
aI2
aI0
aI0
aI0
aa(lp4692
I2
aI10
aI0
aI0
aI0
aa(lp4693
I2
aI3
aI0
aI0
aI0
aa(lp4694
I2
aI3
aI0
aI0
aI1
aa(lp4695
I2
aI3
aI1
aI0
aI1
aa(lp4696
I4
aI4
aI1
aI0
aI0
aa(lp4697
I1
aI0
aI0
aI0
aI1
aa(lp4698
I2
aI2
aI1
aI0
aI0
aa(lp4699
I2
aI4
aI0
aI0
aI0
aa(lp4700
I4
aI4
aI1
aI0
aI1
aa(lp4701
I1
aI3
aI1
aI0
aI1
aa(lp4702
I0
aI0
aI0
aI0
aI0
aa(lp4703
I2
aI3
aI1
aI0
aI1
aa(lp4704
I0
aI1
aI0
aI0
aI0
aa(lp4705
I0
aI2
aI0
aI0
aI1
aa(lp4706
I4
aI2
aI0
aI0
aI1
aa(lp4707
I3
aI3
aI3
aI0
aI0
aa(lp4708
I3
aI1
aI1
aI0
aI0
aa(lp4709
I3
aI1
aI1
aI0
aI0
aa(lp4710
I2
aI2
aI1
aI0
aI1
aa(lp4711
I5
aI4
aI0
aI0
aI1
aa(lp4712
I0
aI4
aI1
aI0
aI0
aa(lp4713
I3
aI2
aI0
aI0
aI0
aa(lp4714
I3
aI4
aI1
aI0
aI0
aa(lp4715
I1
aI3
aI1
aI0
aI0
aa(lp4716
I6
aI1
aI1
aI0
aI0
aa(lp4717
I1
aI2
aI2
aI1
aI1
aa(lp4718
I1
aI3
aI0
aI0
aI0
aa(lp4719
I1
aI2
aI0
aI0
aI0
aa(lp4720
I4
aI4
aI2
aI0
aI0
aa(lp4721
I0
aI1
aI0
aI0
aI0
aa(lp4722
I0
aI2
aI0
aI0
aI0
aa(lp4723
I2
aI5
aI1
aI0
aI0
aa(lp4724
I1
aI4
aI0
aI0
aI0
aa(lp4725
I1
aI3
aI1
aI0
aI0
aa(lp4726
I0
aI1
aI0
aI0
aI0
aa(lp4727
I1
aI0
aI1
aI0
aI1
aa(lp4728
I1
aI3
aI2
aI0
aI0
aa(lp4729
I1
aI1
aI1
aI0
aI0
aa(lp4730
I1
aI1
aI1
aI0
aI0
aa(lp4731
I5
aI4
aI1
aI0
aI1
aa(lp4732
I4
aI3
aI0
aI0
aI0
aa(lp4733
I1
aI0
aI0
aI0
aI0
aa(lp4734
I4
aI1
aI1
aI0
aI1
aa(lp4735
I3
aI3
aI0
aI0
aI0
aa(lp4736
I1
aI3
aI1
aI0
aI0
aa(lp4737
I7
aI2
aI1
aI0
aI1
aa(lp4738
I2
aI2
aI2
aI0
aI0
aa(lp4739
I0
aI2
aI1
aI0
aI0
aa(lp4740
I2
aI0
aI0
aI0
aI0
aa(lp4741
I2
aI2
aI0
aI0
aI0
aa(lp4742
I1
aI0
aI1
aI0
aI0
aa(lp4743
I3
aI1
aI1
aI0
aI0
aa(lp4744
I1
aI2
aI1
aI0
aI1
aa(lp4745
I0
aI1
aI0
aI0
aI0
aa(lp4746
I1
aI0
aI0
aI0
aI0
aa(lp4747
I1
aI0
aI1
aI0
aI0
aa(lp4748
I0
aI1
aI0
aI0
aI0
aa(lp4749
I0
aI1
aI1
aI0
aI0
aa(lp4750
I0
aI1
aI2
aI0
aI1
aa(lp4751
I2
aI5
aI0
aI0
aI0
aa(lp4752
I1
aI3
aI0
aI0
aI0
aa(lp4753
I2
aI0
aI1
aI0
aI0
aa(lp4754
I0
aI1
aI0
aI0
aI0
aa(lp4755
I2
aI2
aI2
aI0
aI0
aa(lp4756
I2
aI2
aI2
aI0
aI0
aa(lp4757
I2
aI0
aI1
aI0
aI0
aa(lp4758
I2
aI1
aI1
aI0
aI2
aa(lp4759
I2
aI2
aI1
aI0
aI0
aa(lp4760
I5
aI0
aI0
aI0
aI0
aa(lp4761
I0
aI1
aI1
aI1
aI0
aa(lp4762
I1
aI0
aI0
aI0
aI1
aa(lp4763
I1
aI3
aI1
aI0
aI1
aa(lp4764
I2
aI0
aI0
aI0
aI0
aa(lp4765
I1
aI2
aI0
aI0
aI0
aa(lp4766
I4
aI0
aI0
aI0
aI1
aa(lp4767
I1
aI0
aI3
aI0
aI0
aa(lp4768
I0
aI0
aI1
aI0
aI0
aa(lp4769
I1
aI1
aI1
aI0
aI0
aa(lp4770
I0
aI2
aI0
aI0
aI0
aa(lp4771
I0
aI2
aI0
aI0
aI1
aa(lp4772
I2
aI1
aI1
aI0
aI0
aa(lp4773
I1
aI3
aI1
aI0
aI0
aa(lp4774
I0
aI0
aI0
aI0
aI0
aa(lp4775
I1
aI0
aI0
aI0
aI0
aa(lp4776
I2
aI3
aI2
aI0
aI0
aa(lp4777
I3
aI3
aI0
aI0
aI0
aa(lp4778
I2
aI6
aI0
aI0
aI0
aa(lp4779
I3
aI2
aI0
aI0
aI1
aa(lp4780
I1
aI2
aI0
aI0
aI1
aa(lp4781
I1
aI0
aI2
aI0
aI0
aa(lp4782
I1
aI1
aI1
aI0
aI0
aa(lp4783
I2
aI0
aI0
aI0
aI0
aa(lp4784
I0
aI1
aI1
aI0
aI0
aa(lp4785
I0
aI1
aI0
aI0
aI1
aa(lp4786
I4
aI3
aI0
aI0
aI0
aa(lp4787
I0
aI0
aI0
aI0
aI0
aa(lp4788
I1
aI1
aI1
aI0
aI0
aa(lp4789
I0
aI0
aI2
aI1
aI0
aa(lp4790
I1
aI1
aI1
aI0
aI0
aa(lp4791
I2
aI1
aI1
aI0
aI0
aa(lp4792
I2
aI2
aI0
aI0
aI0
aa(lp4793
I2
aI1
aI1
aI0
aI2
aa(lp4794
I4
aI0
aI1
aI0
aI0
aa(lp4795
I0
aI0
aI1
aI0
aI0
aa(lp4796
I3
aI4
aI1
aI0
aI0
aa(lp4797
I1
aI1
aI2
aI0
aI0
aa(lp4798
I1
aI1
aI0
aI0
aI1
aa(lp4799
I1
aI2
aI0
aI0
aI0
aa(lp4800
I1
aI2
aI1
aI0
aI1
aa(lp4801
I0
aI0
aI0
aI0
aI0
aa(lp4802
I1
aI2
aI0
aI0
aI0
aa(lp4803
I0
aI1
aI0
aI0
aI1
aa(lp4804
I2
aI1
aI1
aI0
aI0
aa(lp4805
I3
aI2
aI1
aI0
aI0
aa(lp4806
I2
aI1
aI0
aI0
aI0
aa(lp4807
I2
aI2
aI1
aI0
aI0
aa(lp4808
I0
aI2
aI1
aI0
aI1
aa(lp4809
I0
aI1
aI0
aI0
aI0
aa(lp4810
I0
aI0
aI0
aI0
aI0
aa(lp4811
I1
aI4
aI0
aI0
aI0
aa(lp4812
I1
aI0
aI1
aI0
aI1
aa(lp4813
I3
aI1
aI1
aI0
aI2
aa(lp4814
I0
aI0
aI0
aI0
aI0
aa(lp4815
I3
aI2
aI0
aI0
aI0
aa(lp4816
I0
aI2
aI1
aI0
aI0
aa(lp4817
I0
aI1
aI1
aI0
aI0
aa(lp4818
I1
aI2
aI2
aI0
aI0
aa(lp4819
I1
aI3
aI0
aI0
aI1
aa(lp4820
I2
aI2
aI1
aI0
aI1
aa(lp4821
I0
aI2
aI1
aI0
aI0
aa(lp4822
I4
aI2
aI1
aI0
aI1
aa(lp4823
I1
aI1
aI0
aI0
aI0
aa(lp4824
I1
aI0
aI1
aI0
aI0
aa(lp4825
I4
aI0
aI1
aI0
aI0
aa(lp4826
I0
aI4
aI1
aI0
aI0
aa(lp4827
I0
aI3
aI1
aI0
aI0
aa(lp4828
I2
aI3
aI0
aI0
aI0
aa(lp4829
I0
aI1
aI1
aI0
aI1
aa(lp4830
I1
aI1
aI0
aI0
aI1
aa(lp4831
I2
aI2
aI0
aI0
aI0
aa(lp4832
I2
aI2
aI0
aI0
aI0
aa(lp4833
I3
aI1
aI1
aI0
aI0
aa(lp4834
I0
aI2
aI0
aI0
aI0
aa(lp4835
I2
aI0
aI0
aI0
aI0
aa(lp4836
I4
aI2
aI1
aI0
aI0
aa(lp4837
I0
aI7
aI2
aI0
aI1
aa(lp4838
I1
aI2
aI0
aI0
aI1
aa(lp4839
I1
aI1
aI0
aI0
aI0
aa(lp4840
I3
aI4
aI2
aI0
aI0
aa(lp4841
I1
aI3
aI1
aI0
aI0
aa(lp4842
I4
aI4
aI0
aI0
aI1
aa(lp4843
I2
aI4
aI0
aI1
aI2
aa(lp4844
I1
aI1
aI1
aI0
aI0
aa(lp4845
I1
aI1
aI0
aI0
aI0
aa(lp4846
I1
aI0
aI0
aI0
aI0
aa(lp4847
I3
aI5
aI1
aI0
aI0
aa(lp4848
I3
aI0
aI0
aI0
aI1
aa(lp4849
I1
aI2
aI0
aI0
aI1
aa(lp4850
I1
aI2
aI0
aI1
aI0
aa(lp4851
I2
aI0
aI1
aI0
aI0
aa(lp4852
I3
aI0
aI0
aI0
aI1
aa(lp4853
I1
aI6
aI3
aI1
aI0
aa(lp4854
I3
aI3
aI1
aI1
aI0
aa(lp4855
I2
aI4
aI0
aI0
aI0
aa(lp4856
I2
aI1
aI3
aI0
aI0
aa(lp4857
I2
aI4
aI2
aI0
aI2
aa(lp4858
I5
aI5
aI1
aI0
aI0
aa(lp4859
I1
aI4
aI0
aI0
aI0
aa(lp4860
I5
aI2
aI2
aI0
aI2
aa(lp4861
I2
aI2
aI1
aI0
aI1
aa(lp4862
I4
aI4
aI1
aI0
aI1
aa(lp4863
I9
aI2
aI2
aI2
aI2
aa(lp4864
I4
aI7
aI0
aI0
aI0
aa(lp4865
I4
aI0
aI2
aI0
aI3
aa(lp4866
I3
aI0
aI1
aI0
aI1
aa(lp4867
I2
aI1
aI0
aI0
aI0
aa(lp4868
I3
aI0
aI1
aI0
aI0
aa(lp4869
I5
aI6
aI4
aI0
aI1
aa(lp4870
I3
aI3
aI0
aI0
aI0
aa(lp4871
I4
aI5
aI2
aI0
aI0
aa(lp4872
I3
aI3
aI0
aI0
aI0
aa(lp4873
I5
aI1
aI3
aI1
aI1
aa(lp4874
I7
aI2
aI1
aI0
aI2
aa(lp4875
I3
aI3
aI1
aI0
aI0
aa(lp4876
I3
aI4
aI1
aI0
aI0
aa(lp4877
I4
aI2
aI1
aI1
aI0
aa(lp4878
I1
aI1
aI1
aI0
aI0
aa(lp4879
I2
aI2
aI2
aI0
aI3
aa(lp4880
I2
aI3
aI3
aI1
aI2
aa(lp4881
I3
aI0
aI2
aI0
aI0
aa(lp4882
I7
aI7
aI1
aI0
aI2
aa(lp4883
I2
aI2
aI0
aI0
aI1
aa(lp4884
I4
aI9
aI2
aI0
aI1
aa(lp4885
I4
aI3
aI2
aI0
aI0
aa(lp4886
I2
aI2
aI3
aI0
aI2
aa(lp4887
I3
aI4
aI1
aI0
aI2
aa(lp4888
I2
aI2
aI1
aI0
aI3
aa(lp4889
I2
aI1
aI0
aI0
aI2
aa(lp4890
I4
aI6
aI1
aI0
aI2
aa(lp4891
I1
aI3
aI0
aI0
aI1
aa(lp4892
I3
aI5
aI2
aI1
aI0
aa(lp4893
I0
aI1
aI2
aI0
aI1
aa(lp4894
I6
aI2
aI1
aI0
aI2
aa(lp4895
I2
aI4
aI5
aI0
aI1
aa(lp4896
I6
aI5
aI3
aI0
aI0
aa(lp4897
I3
aI4
aI1
aI0
aI1
aa(lp4898
I3
aI5
aI1
aI0
aI1
aa(lp4899
I8
aI1
aI1
aI1
aI0
aa(lp4900
I6
aI2
aI0
aI1
aI0
aa(lp4901
I5
aI5
aI1
aI0
aI4
aa(lp4902
I5
aI5
aI5
aI0
aI3
aa(lp4903
I5
aI2
aI0
aI0
aI1
aa(lp4904
I5
aI4
aI0
aI0
aI0
aa(lp4905
I5
aI9
aI2
aI0
aI2
aa(lp4906
I4
aI1
aI2
aI0
aI1
aa(lp4907
I1
aI4
aI4
aI0
aI3
aa(lp4908
I4
aI1
aI2
aI0
aI1
aa(lp4909
I1
aI3
aI2
aI0
aI2
aa(lp4910
I4
aI3
aI2
aI0
aI1
aa(lp4911
I3
aI7
aI3
aI0
aI0
aa(lp4912
I5
aI1
aI3
aI0
aI2
aa(lp4913
I4
aI0
aI5
aI0
aI2
aa(lp4914
I6
aI1
aI1
aI0
aI0
aa(lp4915
I2
aI1
aI1
aI0
aI4
aa(lp4916
I4
aI6
aI1
aI0
aI0
aa(lp4917
I2
aI2
aI0
aI0
aI1
aa(lp4918
I2
aI2
aI0
aI0
aI2
aa(lp4919
I5
aI8
aI2
aI0
aI2
aa(lp4920
I1
aI6
aI1
aI0
aI1
aa(lp4921
I5
aI5
aI2
aI1
aI2
aa(lp4922
I2
aI5
aI1
aI0
aI3
aa(lp4923
I5
aI6
aI0
aI1
aI2
aa(lp4924
I7
aI1
aI2
aI0
aI3
aa(lp4925
I3
aI6
aI3
aI0
aI2
aa(lp4926
I2
aI1
aI1
aI0
aI2
aa(lp4927
I5
aI6
aI3
aI0
aI1
aa(lp4928
I11
aI4
aI5
aI2
aI0
aa(lp4929
I4
aI2
aI1
aI0
aI4
aa(lp4930
I1
aI2
aI1
aI1
aI2
aa(lp4931
I7
aI3
aI0
aI0
aI2
aa(lp4932
I6
aI4
aI4
aI1
aI1
aa(lp4933
I7
aI3
aI1
aI0
aI3
aa(lp4934
I3
aI3
aI2
aI0
aI1
aa(lp4935
I8
aI3
aI0
aI0
aI1
aa(lp4936
I1
aI0
aI2
aI0
aI2
aa(lp4937
I5
aI4
aI0
aI1
aI0
aa(lp4938
I8
aI5
aI4
aI0
aI3
aa(lp4939
I5
aI2
aI2
aI0
aI1
aa(lp4940
I2
aI4
aI1
aI0
aI0
aa(lp4941
I9
aI4
aI5
aI0
aI0
aa(lp4942
I4
aI0
aI1
aI0
aI1
aa(lp4943
I2
aI1
aI4
aI0
aI1
aa(lp4944
I10
aI4
aI0
aI0
aI1
aa(lp4945
I4
aI4
aI5
aI0
aI2
aa(lp4946
I5
aI4
aI4
aI0
aI0
aa(lp4947
I3
aI5
aI5
aI0
aI2
aa(lp4948
I11
aI1
aI1
aI0
aI0
aa(lp4949
I4
aI1
aI4
aI0
aI0
aa(lp4950
I3
aI1
aI2
aI0
aI1
aa(lp4951
I1
aI4
aI2
aI0
aI3
aa(lp4952
I3
aI7
aI1
aI1
aI2
aa(lp4953
I2
aI1
aI3
aI0
aI0
aa(lp4954
I2
aI6
aI2
aI0
aI2
aa(lp4955
I1
aI3
aI2
aI1
aI1
aa(lp4956
I5
aI2
aI2
aI0
aI1
aa(lp4957
I1
aI2
aI2
aI0
aI0
aa(lp4958
I3
aI3
aI1
aI0
aI1
aa(lp4959
I6
aI2
aI5
aI0
aI3
aa(lp4960
I10
aI3
aI4
aI0
aI1
aa(lp4961
I2
aI6
aI1
aI1
aI0
aa(lp4962
I7
aI2
aI2
aI0
aI0
aa(lp4963
I5
aI4
aI3
aI0
aI0
aa(lp4964
I3
aI5
aI2
aI1
aI0
aa(lp4965
I6
aI5
aI1
aI1
aI3
aa(lp4966
I6
aI3
aI6
aI0
aI1
aa(lp4967
I4
aI5
aI0
aI0
aI1
aa(lp4968
I5
aI5
aI8
aI1
aI2
aa(lp4969
I6
aI5
aI2
aI0
aI2
aa(lp4970
I4
aI3
aI0
aI0
aI2
aa(lp4971
I6
aI3
aI1
aI0
aI1
aa(lp4972
I4
aI4
aI3
aI1
aI1
aa(lp4973
I4
aI5
aI2
aI0
aI1
aa(lp4974
I4
aI5
aI2
aI0
aI1
aa(lp4975
I5
aI4
aI3
aI0
aI1
aa(lp4976
I2
aI2
aI5
aI0
aI1
aa(lp4977
I8
aI3
aI4
aI0
aI2
aa(lp4978
I2
aI0
aI1
aI0
aI2
aa(lp4979
I4
aI5
aI1
aI0
aI1
aa(lp4980
I10
aI6
aI2
aI0
aI3
aa(lp4981
I4
aI8
aI1
aI0
aI4
aa(lp4982
I0
aI4
aI1
aI0
aI1
aa(lp4983
I7
aI6
aI0
aI0
aI1
aa(lp4984
I8
aI2
aI1
aI0
aI0
aa(lp4985
I7
aI3
aI0
aI1
aI2
aa(lp4986
I5
aI2
aI3
aI0
aI2
aa(lp4987
I6
aI7
aI0
aI0
aI2
aa(lp4988
I5
aI1
aI2
aI0
aI0
aa(lp4989
I2
aI3
aI2
aI0
aI4
aa(lp4990
I6
aI4
aI2
aI0
aI1
aa(lp4991
I1
aI3
aI2
aI0
aI1
aa(lp4992
I6
aI1
aI2
aI0
aI0
aa(lp4993
I3
aI0
aI1
aI1
aI2
aa(lp4994
I6
aI2
aI1
aI0
aI0
aa(lp4995
I4
aI5
aI5
aI0
aI2
aa(lp4996
I5
aI2
aI3
aI1
aI1
aa(lp4997
I3
aI3
aI2
aI0
aI0
aa(lp4998
I5
aI2
aI1
aI1
aI1
aa(lp4999
I4
aI5
aI0
aI0
aI1
aa(lp5000
I5
aI2
aI5
aI0
aI1
aa(lp5001
I6
aI4
aI2
aI0
aI2
aa(lp5002
I8
aI3
aI2
aI1
aI1
aa(lp5003
I3
aI2
aI0
aI0
aI2
aa(lp5004
I1
aI4
aI0
aI0
aI0
aa(lp5005
I8
aI3
aI3
aI0
aI1
aa(lp5006
I2
aI0
aI3
aI0
aI2
aa(lp5007
I8
aI2
aI5
aI0
aI0
aa(lp5008
I8
aI3
aI2
aI2
aI1
aa(lp5009
I8
aI2
aI1
aI0
aI0
aa(lp5010
I11
aI3
aI0
aI0
aI0
aa(lp5011
I5
aI2
aI1
aI1
aI2
aa(lp5012
I2
aI5
aI4
aI0
aI2
aa(lp5013
I2
aI4
aI0
aI1
aI2
aa(lp5014
I1
aI5
aI0
aI0
aI1
aa(lp5015
I7
aI2
aI3
aI0
aI0
aa(lp5016
I1
aI5
aI1
aI0
aI0
aa(lp5017
I5
aI4
aI2
aI0
aI1
aa(lp5018
I0
aI2
aI2
aI0
aI1
aa(lp5019
I5
aI2
aI1
aI0
aI0
aa(lp5020
I1
aI2
aI0
aI0
aI0
aa(lp5021
I6
aI3
aI3
aI0
aI2
aa(lp5022
I3
aI2
aI2
aI1
aI0
aa(lp5023
I3
aI2
aI0
aI2
aI1
aa(lp5024
I4
aI5
aI0
aI1
aI0
aa(lp5025
I3
aI4
aI2
aI0
aI0
aa(lp5026
I4
aI5
aI1
aI1
aI0
aa(lp5027
I2
aI4
aI0
aI1
aI1
aa(lp5028
I6
aI5
aI2
aI0
aI0
aa(lp5029
I6
aI4
aI0
aI0
aI1
aa(lp5030
I3
aI7
aI0
aI0
aI1
aa(lp5031
I7
aI3
aI4
aI0
aI0
aa(lp5032
I7
aI2
aI5
aI0
aI1
aa(lp5033
I5
aI3
aI1
aI0
aI2
aa(lp5034
I4
aI3
aI1
aI0
aI1
aa(lp5035
I4
aI5
aI3
aI0
aI1
aa(lp5036
I3
aI5
aI1
aI0
aI0
aa(lp5037
I5
aI6
aI0
aI0
aI2
aa(lp5038
I6
aI3
aI3
aI1
aI0
aa(lp5039
I3
aI2
aI2
aI0
aI0
aa(lp5040
I5
aI4
aI1
aI0
aI0
aa(lp5041
I2
aI1
aI0
aI0
aI0
aa(lp5042
I3
aI5
aI3
aI0
aI0
aa(lp5043
I5
aI2
aI3
aI0
aI2
aa(lp5044
I2
aI4
aI0
aI0
aI0
aa(lp5045
I1
aI6
aI1
aI0
aI0
aa(lp5046
I4
aI2
aI2
aI0
aI1
aa(lp5047
I7
aI0
aI2
aI0
aI2
aa(lp5048
I4
aI0
aI4
aI0
aI1
aa(lp5049
I4
aI5
aI0
aI0
aI0
aa(lp5050
I4
aI3
aI0
aI0
aI0
aa(lp5051
I2
aI2
aI0
aI0
aI1
aa(lp5052
I3
aI4
aI0
aI0
aI0
aa(lp5053
I2
aI3
aI1
aI0
aI0
aa(lp5054
I1
aI4
aI2
aI1
aI0
aa(lp5055
I4
aI2
aI1
aI0
aI0
aa(lp5056
I2
aI1
aI2
aI0
aI0
aa(lp5057
I5
aI3
aI1
aI0
aI2
aa(lp5058
I1
aI1
aI0
aI0
aI0
aa(lp5059
I1
aI3
aI1
aI0
aI0
aa(lp5060
I5
aI3
aI0
aI0
aI0
aa(lp5061
I3
aI3
aI1
aI1
aI0
aa(lp5062
I1
aI1
aI3
aI0
aI1
aa(lp5063
I2
aI0
aI2
aI0
aI1
aa(lp5064
I4
aI2
aI1
aI0
aI1
aa(lp5065
I2
aI3
aI0
aI0
aI0
aa(lp5066
I4
aI0
aI1
aI0
aI1
aa(lp5067
I4
aI2
aI2
aI0
aI0
aa(lp5068
I2
aI0
aI1
aI0
aI0
aa(lp5069
I1
aI0
aI2
aI0
aI0
aa(lp5070
I1
aI0
aI1
aI0
aI2
aa(lp5071
I0
aI1
aI0
aI0
aI1
aa(lp5072
I1
aI3
aI0
aI0
aI0
aa(lp5073
I2
aI5
aI0
aI0
aI0
aa(lp5074
I1
aI5
aI1
aI0
aI0
aa(lp5075
I0
aI1
aI0
aI0
aI0
aa(lp5076
I0
aI1
aI0
aI0
aI0
aa(lp5077
I3
aI2
aI1
aI0
aI0
aa(lp5078
I1
aI3
aI2
aI0
aI0
aa(lp5079
I2
aI0
aI1
aI0
aI1
aa(lp5080
I0
aI0
aI0
aI0
aI1
aa(lp5081
I3
aI4
aI1
aI0
aI0
aa(lp5082
I1
aI0
aI0
aI0
aI0
aa(lp5083
I0
aI3
aI0
aI0
aI0
aa(lp5084
I1
aI2
aI0
aI0
aI0
aa(lp5085
I2
aI1
aI1
aI0
aI0
aa(lp5086
I1
aI0
aI0
aI0
aI0
aa(lp5087
I3
aI1
aI0
aI0
aI2
aa(lp5088
I0
aI2
aI0
aI0
aI0
aa(lp5089
I1
aI0
aI2
aI0
aI0
aa(lp5090
I0
aI0
aI0
aI0
aI0
aa(lp5091
I1
aI1
aI4
aI0
aI0
aa(lp5092
I2
aI2
aI2
aI0
aI0
aa(lp5093
I1
aI1
aI1
aI0
aI0
aa(lp5094
I3
aI1
aI2
aI0
aI0
aa(lp5095
I2
aI1
aI1
aI1
aI0
aa(lp5096
I3
aI0
aI1
aI0
aI1
aa(lp5097
I1
aI0
aI0
aI0
aI1
aa(lp5098
I3
aI1
aI2
aI0
aI0
aa(lp5099
I2
aI3
aI0
aI0
aI0
aa(lp5100
I0
aI1
aI1
aI0
aI0
aa(lp5101
I2
aI2
aI0
aI0
aI2
aa(lp5102
I0
aI2
aI0
aI0
aI0
aa(lp5103
I0
aI1
aI0
aI0
aI0
aa(lp5104
I1
aI0
aI0
aI0
aI0
aa(lp5105
I2
aI1
aI0
aI0
aI0
aa(lp5106
I0
aI1
aI2
aI0
aI0
aa(lp5107
I2
aI1
aI0
aI0
aI0
aa(lp5108
I3
aI0
aI0
aI0
aI0
aa(lp5109
I1
aI0
aI0
aI0
aI0
aa(lp5110
I1
aI2
aI0
aI0
aI0
aa(lp5111
I2
aI3
aI1
aI0
aI0
aa(lp5112
I1
aI3
aI1
aI0
aI0
aa(lp5113
I3
aI0
aI1
aI0
aI0
aa(lp5114
I1
aI0
aI0
aI0
aI0
aa(lp5115
I1
aI2
aI0
aI0
aI0
aa(lp5116
I3
aI1
aI2
aI0
aI0
aa(lp5117
I0
aI1
aI0
aI0
aI0
aa(lp5118
I2
aI0
aI1
aI0
aI0
aa(lp5119
I2
aI1
aI0
aI0
aI0
aa(lp5120
I2
aI3
aI0
aI0
aI1
aa(lp5121
I4
aI1
aI1
aI0
aI0
aa(lp5122
I1
aI0
aI0
aI0
aI1
aa(lp5123
I3
aI3
aI0
aI0
aI0
aa(lp5124
I0
aI0
aI0
aI0
aI0
aa(lp5125
I0
aI0
aI0
aI0
aI0
aa(lp5126
I0
aI3
aI1
aI0
aI0
aa(lp5127
I2
aI1
aI2
aI0
aI0
aa(lp5128
I3
aI1
aI2
aI0
aI0
aa(lp5129
I0
aI2
aI0
aI0
aI0
aa(lp5130
I1
aI0
aI3
aI0
aI0
aa(lp5131
I1
aI1
aI0
aI0
aI0
aa(lp5132
I0
aI0
aI0
aI0
aI0
aa(lp5133
I0
aI0
aI2
aI0
aI0
aa(lp5134
I2
aI2
aI2
aI0
aI1
aa(lp5135
I0
aI1
aI1
aI0
aI0
aa(lp5136
I0
aI3
aI0
aI0
aI0
aa(lp5137
I2
aI1
aI0
aI1
aI0
aa(lp5138
I0
aI1
aI1
aI0
aI0
aa(lp5139
I0
aI0
aI0
aI0
aI0
aa(lp5140
I2
aI1
aI0
aI0
aI0
aa(lp5141
I0
aI1
aI1
aI0
aI0
aa(lp5142
I0
aI2
aI1
aI0
aI0
aa(lp5143
I1
aI0
aI0
aI0
aI0
aa(lp5144
I1
aI0
aI0
aI0
aI0
aa(lp5145
I1
aI0
aI0
aI0
aI0
aa(lp5146
I3
aI0
aI1
aI0
aI1
aa(lp5147
I1
aI3
aI0
aI0
aI0
aa(lp5148
I0
aI1
aI3
aI0
aI0
aa(lp5149
I1
aI2
aI1
aI0
aI0
aa(lp5150
I0
aI0
aI1
aI0
aI0
aa(lp5151
I2
aI2
aI0
aI0
aI0
aa(lp5152
I1
aI2
aI0
aI1
aI0
aa(lp5153
I3
aI1
aI1
aI0
aI0
aa(lp5154
I0
aI1
aI1
aI0
aI1
aa(lp5155
I0
aI0
aI3
aI0
aI2
aa(lp5156
I0
aI3
aI1
aI0
aI1
aa(lp5157
I2
aI0
aI0
aI0
aI0
aa(lp5158
I2
aI2
aI0
aI0
aI0
aa(lp5159
I2
aI2
aI2
aI0
aI1
aa(lp5160
I0
aI0
aI1
aI0
aI0
aa(lp5161
I1
aI1
aI1
aI0
aI0
aa(lp5162
I0
aI1
aI1
aI0
aI0
aa(lp5163
I2
aI1
aI0
aI0
aI0
aa(lp5164
I3
aI2
aI1
aI0
aI0
aa(lp5165
I1
aI0
aI3
aI0
aI0
aa(lp5166
I2
aI2
aI0
aI0
aI0
aa(lp5167
I0
aI0
aI0
aI0
aI0
aa(lp5168
I0
aI2
aI0
aI0
aI1
aa(lp5169
I1
aI2
aI1
aI0
aI1
aa(lp5170
I4
aI5
aI0
aI0
aI1
aa(lp5171
I0
aI1
aI1
aI0
aI1
aa(lp5172
I2
aI2
aI2
aI0
aI0
aa(lp5173
I0
aI2
aI0
aI0
aI0
aa(lp5174
I2
aI1
aI0
aI0
aI0
aa(lp5175
I0
aI0
aI0
aI0
aI0
aa(lp5176
I0
aI3
aI0
aI0
aI0
aa(lp5177
I0
aI0
aI1
aI0
aI0
aa(lp5178
I4
aI0
aI0
aI0
aI0
aa(lp5179
I1
aI1
aI1
aI0
aI0
aa(lp5180
I2
aI2
aI2
aI0
aI0
aa(lp5181
I1
aI2
aI1
aI0
aI0
aa(lp5182
I2
aI2
aI1
aI0
aI0
aa(lp5183
I2
aI0
aI0
aI0
aI0
aa(lp5184
I3
aI1
aI1
aI0
aI1
aa(lp5185
I2
aI1
aI1
aI0
aI0
aa(lp5186
I3
aI3
aI2
aI0
aI2
aa(lp5187
I0
aI1
aI0
aI0
aI0
aa(lp5188
I4
aI2
aI0
aI0
aI0
aa(lp5189
I2
aI1
aI1
aI0
aI0
aa(lp5190
I2
aI3
aI0
aI0
aI0
aa(lp5191
I4
aI0
aI3
aI1
aI0
aa(lp5192
I1
aI1
aI3
aI0
aI0
aa(lp5193
I2
aI1
aI1
aI0
aI1
aa(lp5194
I5
aI0
aI2
aI0
aI1
aa(lp5195
I0
aI4
aI2
aI0
aI0
aa(lp5196
I2
aI2
aI1
aI0
aI0
aa(lp5197
I2
aI5
aI0
aI0
aI1
aa(lp5198
I2
aI1
aI0
aI0
aI1
aa(lp5199
I0
aI5
aI2
aI0
aI0
aa(lp5200
I3
aI1
aI1
aI0
aI0
aa(lp5201
I2
aI1
aI3
aI0
aI0
aa(lp5202
I1
aI1
aI0
aI0
aI0
aa(lp5203
I2
aI2
aI2
aI0
aI1
aa(lp5204
I3
aI2
aI1
aI0
aI2
aa(lp5205
I0
aI5
aI0
aI0
aI1
aa(lp5206
I4
aI0
aI1
aI0
aI1
aa(lp5207
I5
aI2
aI2
aI0
aI1
aa(lp5208
I0
aI2
aI2
aI0
aI0
aa(lp5209
I0
aI2
aI1
aI0
aI1
aa(lp5210
I1
aI3
aI2
aI0
aI0
aa(lp5211
I2
aI3
aI0
aI0
aI0
aa(lp5212
I0
aI0
aI0
aI0
aI0
aa(lp5213
I0
aI2
aI3
aI0
aI1
aa(lp5214
I1
aI1
aI0
aI0
aI0
aa(lp5215
I2
aI3
aI0
aI0
aI0
aa(lp5216
I1
aI2
aI0
aI0
aI0
aa(lp5217
I0
aI2
aI1
aI0
aI1
aa(lp5218
I0
aI3
aI1
aI0
aI0
aa(lp5219
I1
aI3
aI2
aI0
aI1
aa(lp5220
I3
aI2
aI1
aI0
aI2
aa(lp5221
I4
aI6
aI1
aI0
aI1
aa(lp5222
I3
aI0
aI0
aI0
aI0
aa(lp5223
I1
aI4
aI0
aI0
aI1
aa(lp5224
I4
aI1
aI0
aI0
aI0
aa(lp5225
I1
aI1
aI0
aI0
aI0
aa(lp5226
I4
aI2
aI1
aI0
aI1
aa(lp5227
I2
aI1
aI1
aI0
aI2
aa(lp5228
I1
aI2
aI2
aI0
aI0
aa(lp5229
I6
aI4
aI4
aI0
aI2
aa(lp5230
I6
aI3
aI0
aI0
aI0
aa(lp5231
I9
aI4
aI0
aI0
aI0
aa(lp5232
I6
aI4
aI2
aI0
aI0
aa(lp5233
I5
aI4
aI2
aI0
aI1
aa(lp5234
I4
aI4
aI0
aI0
aI0
aa(lp5235
I1
aI0
aI2
aI0
aI1
aa(lp5236
I3
aI5
aI2
aI1
aI3
aa(lp5237
I6
aI0
aI0
aI0
aI0
aa(lp5238
I4
aI3
aI1
aI0
aI1
aa(lp5239
I1
aI2
aI0
aI0
aI0
aa(lp5240
I4
aI4
aI3
aI0
aI1
aa(lp5241
I4
aI3
aI1
aI0
aI0
aa(lp5242
I4
aI3
aI1
aI0
aI1
aa(lp5243
I7
aI6
aI1
aI0
aI0
aa(lp5244
I7
aI1
aI1
aI0
aI1
aa(lp5245
I5
aI3
aI0
aI1
aI0
aa(lp5246
I1
aI1
aI4
aI0
aI0
aa(lp5247
I3
aI1
aI2
aI0
aI2
aa(lp5248
I1
aI4
aI1
aI0
aI2
aa(lp5249
I9
aI5
aI4
aI0
aI0
aa(lp5250
I3
aI1
aI0
aI0
aI0
aa(lp5251
I1
aI0
aI2
aI0
aI0
aa(lp5252
I5
aI1
aI1
aI0
aI1
aa(lp5253
I3
aI3
aI5
aI0
aI1
aa(lp5254
I3
aI4
aI0
aI0
aI3
aa(lp5255
I3
aI4
aI2
aI1
aI1
aa(lp5256
I5
aI4
aI1
aI1
aI1
aa(lp5257
I5
aI0
aI1
aI0
aI0
aa(lp5258
I0
aI2
aI3
aI0
aI0
aa(lp5259
I4
aI1
aI2
aI0
aI1
aa(lp5260
I4
aI3
aI0
aI0
aI0
aa(lp5261
I2
aI1
aI3
aI0
aI0
aa(lp5262
I4
aI1
aI0
aI0
aI1
aa(lp5263
I2
aI2
aI1
aI0
aI3
aa(lp5264
I0
aI5
aI2
aI1
aI3
aa(lp5265
I2
aI3
aI1
aI1
aI2
aa(lp5266
I4
aI4
aI4
aI0
aI2
aa(lp5267
I1
aI2
aI0
aI0
aI1
aa(lp5268
I6
aI2
aI2
aI0
aI0
aa(lp5269
I6
aI7
aI0
aI0
aI0
aa(lp5270
I2
aI1
aI1
aI0
aI1
aa(lp5271
I6
aI3
aI2
aI0
aI1
aa(lp5272
I8
aI4
aI2
aI0
aI3
aa(lp5273
I3
aI1
aI1
aI0
aI1
aa(lp5274
I2
aI1
aI3
aI0
aI1
aa(lp5275
I4
aI8
aI0
aI0
aI0
aa(lp5276
I4
aI4
aI3
aI0
aI1
aa(lp5277
I7
aI0
aI1
aI0
aI0
aa(lp5278
I5
aI1
aI0
aI3
aI0
aa(lp5279
I2
aI0
aI2
aI0
aI2
aa(lp5280
I5
aI4
aI3
aI0
aI1
aa(lp5281
I5
aI2
aI3
aI0
aI0
aa(lp5282
I7
aI6
aI0
aI0
aI4
aa(lp5283
I7
aI3
aI2
aI1
aI0
aa(lp5284
I2
aI4
aI1
aI0
aI1
aa(lp5285
I0
aI4
aI1
aI0
aI1
aa(lp5286
I3
aI1
aI2
aI0
aI0
aa(lp5287
I3
aI5
aI3
aI0
aI2
aa(lp5288
I2
aI1
aI1
aI0
aI0
aa(lp5289
I3
aI5
aI2
aI0
aI1
aa(lp5290
I5
aI3
aI3
aI1
aI3
aa(lp5291
I4
aI8
aI5
aI0
aI0
aa(lp5292
I4
aI1
aI0
aI0
aI2
aa(lp5293
I6
aI1
aI1
aI0
aI1
aa(lp5294
I6
aI3
aI2
aI0
aI1
aa(lp5295
I7
aI6
aI2
aI0
aI3
aa(lp5296
I2
aI2
aI4
aI1
aI3
aa(lp5297
I6
aI3
aI2
aI0
aI1
aa(lp5298
I3
aI2
aI8
aI1
aI1
aa(lp5299
I6
aI4
aI5
aI0
aI1
aa(lp5300
I3
aI1
aI2
aI0
aI0
aa(lp5301
I1
aI4
aI2
aI0
aI2
aa(lp5302
I3
aI1
aI3
aI0
aI1
aa(lp5303
I6
aI4
aI5
aI0
aI2
aa(lp5304
I2
aI6
aI6
aI0
aI0
aa(lp5305
I4
aI4
aI4
aI0
aI1
aa(lp5306
I3
aI4
aI0
aI1
aI3
aa(lp5307
I5
aI2
aI6
aI0
aI2
aa(lp5308
I8
aI3
aI3
aI1
aI3
aa(lp5309
I2
aI4
aI5
aI0
aI1
aa(lp5310
I12
aI1
aI5
aI0
aI2
aa(lp5311
I7
aI4
aI1
aI0
aI0
aa(lp5312
I12
aI1
aI5
aI0
aI2
aa(lp5313
I3
aI5
aI0
aI1
aI1
aa(lp5314
I2
aI1
aI2
aI0
aI1
aa(lp5315
I4
aI0
aI0
aI1
aI2
aa(lp5316
I1
aI4
aI4
aI0
aI1
aa(lp5317
I6
aI1
aI3
aI0
aI0
aa(lp5318
I6
aI3
aI0
aI0
aI1
aa(lp5319
I6
aI6
aI4
aI0
aI1
aa(lp5320
I4
aI4
aI0
aI0
aI1
aa(lp5321
I6
aI2
aI2
aI0
aI2
aa(lp5322
I6
aI2
aI3
aI0
aI0
aa(lp5323
I9
aI6
aI4
aI1
aI2
aa(lp5324
I5
aI3
aI3
aI0
aI1
aa(lp5325
I3
aI3
aI5
aI0
aI1
aa(lp5326
I5
aI3
aI1
aI0
aI1
aa(lp5327
I4
aI2
aI6
aI0
aI0
aa(lp5328
I3
aI0
aI1
aI0
aI1
aa(lp5329
I4
aI7
aI4
aI0
aI3
aa(lp5330
I7
aI2
aI5
aI0
aI4
aa(lp5331
I6
aI3
aI2
aI0
aI1
aa(lp5332
I5
aI6
aI1
aI0
aI1
aa(lp5333
I6
aI1
aI1
aI2
aI0
aa(lp5334
I6
aI4
aI2
aI0
aI2
aa(lp5335
I3
aI0
aI1
aI0
aI0
aa(lp5336
I10
aI2
aI3
aI0
aI2
aa(lp5337
I4
aI4
aI6
aI0
aI1
aa(lp5338
I8
aI1
aI1
aI0
aI2
aa(lp5339
I8
aI3
aI0
aI0
aI1
aa(lp5340
I1
aI5
aI2
aI0
aI4
aa(lp5341
I6
aI5
aI0
aI0
aI1
aa(lp5342
I5
aI3
aI4
aI0
aI0
aa(lp5343
I8
aI7
aI5
aI0
aI1
aa(lp5344
I9
aI1
aI5
aI0
aI3
aa(lp5345
I7
aI3
aI0
aI1
aI1
aa(lp5346
I4
aI2
aI3
aI0
aI2
aa(lp5347
I3
aI4
aI1
aI1
aI0
aa(lp5348
I4
aI3
aI6
aI0
aI1
aa(lp5349
I5
aI2
aI0
aI0
aI3
aa(lp5350
I7
aI4
aI2
aI0
aI1
aa(lp5351
I13
aI4
aI2
aI0
aI2
aa(lp5352
I10
aI2
aI1
aI0
aI0
aa(lp5353
I6
aI6
aI2
aI1
aI1
aa(lp5354
I6
aI4
aI2
aI0
aI2
aa(lp5355
I5
aI2
aI3
aI0
aI0
aa(lp5356
I4
aI5
aI2
aI1
aI0
aa(lp5357
I5
aI4
aI1
aI0
aI0
aa(lp5358
I2
aI5
aI2
aI1
aI1
aa(lp5359
I4
aI4
aI1
aI1
aI1
aa(lp5360
I4
aI4
aI1
aI1
aI1
aa(lp5361
I7
aI4
aI3
aI0
aI1
aa(lp5362
I4
aI2
aI8
aI0
aI5
aa(lp5363
I6
aI5
aI3
aI0
aI1
aa(lp5364
I5
aI2
aI0
aI1
aI1
aa(lp5365
I8
aI3
aI1
aI0
aI0
aa(lp5366
I3
aI3
aI1
aI0
aI1
aa(lp5367
I4
aI3
aI3
aI0
aI3
aa(lp5368
I1
aI1
aI1
aI2
aI0
aa(lp5369
I2
aI2
aI0
aI0
aI0
aa(lp5370
I4
aI2
aI6
aI0
aI1
aa(lp5371
I4
aI2
aI0
aI0
aI1
aa(lp5372
I3
aI7
aI0
aI0
aI1
aa(lp5373
I3
aI3
aI1
aI0
aI0
aa(lp5374
I2
aI4
aI1
aI0
aI0
aa(lp5375
I7
aI0
aI3
aI1
aI1
aa(lp5376
I3
aI2
aI1
aI0
aI2
aa(lp5377
I3
aI3
aI3
aI0
aI0
aa(lp5378
I1
aI2
aI1
aI0
aI1
aa(lp5379
I4
aI3
aI3
aI0
aI0
aa(lp5380
I5
aI1
aI1
aI0
aI0
aa(lp5381
I3
aI2
aI1
aI0
aI1
aa(lp5382
I6
aI3
aI1
aI1
aI2
aa(lp5383
I3
aI2
aI2
aI0
aI2
aa(lp5384
I3
aI2
aI1
aI0
aI1
aa(lp5385
I2
aI4
aI2
aI0
aI1
aa(lp5386
I6
aI0
aI4
aI0
aI1
aa(lp5387
I5
aI5
aI0
aI0
aI1
aa(lp5388
I7
aI5
aI0
aI1
aI1
aa(lp5389
I1
aI3
aI0
aI0
aI0
aa(lp5390
I2
aI4
aI1
aI1
aI0
aa(lp5391
I5
aI2
aI2
aI0
aI0
aa(lp5392
I1
aI2
aI0
aI0
aI2
aa(lp5393
I7
aI0
aI2
aI1
aI3
aa(lp5394
I2
aI4
aI3
aI0
aI0
aa(lp5395
I6
aI4
aI0
aI0
aI0
aa(lp5396
I4
aI1
aI5
aI1
aI1
aa(lp5397
I0
aI2
aI3
aI0
aI0
aa(lp5398
I1
aI1
aI2
aI0
aI2
aa(lp5399
I1
aI0
aI2
aI0
aI0
aa(lp5400
I3
aI2
aI1
aI0
aI1
aa(lp5401
I1
aI4
aI2
aI0
aI0
aa(lp5402
I6
aI0
aI2
aI0
aI0
aa(lp5403
I6
aI2
aI0
aI0
aI0
aa(lp5404
I3
aI1
aI1
aI0
aI1
aa(lp5405
I0
aI2
aI1
aI0
aI0
aa(lp5406
I1
aI6
aI0
aI0
aI2
aa(lp5407
I5
aI4
aI2
aI0
aI1
aa(lp5408
I5
aI2
aI4
aI1
aI2
aa(lp5409
I6
aI2
aI2
aI0
aI1
aa(lp5410
I4
aI0
aI3
aI0
aI1
aa(lp5411
I1
aI7
aI3
aI0
aI1
aa(lp5412
I2
aI2
aI0
aI1
aI1
aa(lp5413
I4
aI5
aI2
aI0
aI0
aa(lp5414
I6
aI1
aI1
aI0
aI0
aa(lp5415
I2
aI3
aI0
aI0
aI2
aa(lp5416
I4
aI3
aI3
aI0
aI2
aa(lp5417
I4
aI2
aI1
aI0
aI1
aa(lp5418
I3
aI5
aI1
aI0
aI0
aa(lp5419
I1
aI0
aI2
aI0
aI0
aa(lp5420
I3
aI3
aI1
aI0
aI0
aa(lp5421
I6
aI1
aI3
aI0
aI0
aa(lp5422
I3
aI5
aI2
aI0
aI1
aa(lp5423
I2
aI0
aI2
aI0
aI0
aa(lp5424
I3
aI2
aI1
aI0
aI1
aa(lp5425
I3
aI3
aI2
aI1
aI1
aa(lp5426
I2
aI2
aI2
aI0
aI0
aa(lp5427
I5
aI5
aI3
aI0
aI1
aa(lp5428
I1
aI6
aI3
aI0
aI0
aa(lp5429
I2
aI0
aI0
aI0
aI2
aa(lp5430
I3
aI3
aI2
aI0
aI0
aa(lp5431
I5
aI1
aI0
aI0
aI0
aa(lp5432
I3
aI1
aI0
aI0
aI1
aa(lp5433
I4
aI2
aI0
aI0
aI0
aa(lp5434
I3
aI1
aI3
aI0
aI0
aa(lp5435
I1
aI3
aI2
aI0
aI0
aa(lp5436
I3
aI4
aI1
aI0
aI0
aa(lp5437
I5
aI1
aI2
aI0
aI1
aa(lp5438
I3
aI3
aI4
aI0
aI0
aa(lp5439
I1
aI3
aI3
aI1
aI0
aa(lp5440
I4
aI4
aI3
aI0
aI1
aa(lp5441
I2
aI5
aI0
aI0
aI0
aa(lp5442
I5
aI1
aI2
aI0
aI1
aa(lp5443
I7
aI4
aI3
aI0
aI1
aa(lp5444
I0
aI0
aI2
aI0
aI0
aa(lp5445
I2
aI0
aI0
aI0
aI0
aa(lp5446
I2
aI0
aI2
aI0
aI0
aa(lp5447
I0
aI0
aI3
aI0
aI0
aa(lp5448
I1
aI3
aI3
aI0
aI1
aa(lp5449
I2
aI1
aI1
aI0
aI0
aa(lp5450
I3
aI3
aI1
aI0
aI0
aa(lp5451
I0
aI2
aI1
aI0
aI1
aa(lp5452
I3
aI1
aI1
aI0
aI0
aa(lp5453
I2
aI1
aI0
aI0
aI0
aa(lp5454
I1
aI2
aI2
aI0
aI0
aa(lp5455
I2
aI2
aI0
aI0
aI0
aa(lp5456
I1
aI2
aI0
aI0
aI1
aa(lp5457
I1
aI0
aI0
aI0
aI1
aa(lp5458
I2
aI1
aI3
aI0
aI1
aa(lp5459
I1
aI3
aI0
aI0
aI0
aa(lp5460
I0
aI2
aI2
aI0
aI0
aa(lp5461
I4
aI0
aI0
aI0
aI2
aa(lp5462
I2
aI4
aI0
aI0
aI0
aa(lp5463
I3
aI2
aI2
aI0
aI0
aa(lp5464
I2
aI5
aI0
aI0
aI0
aa(lp5465
I1
aI4
aI1
aI0
aI0
aa(lp5466
I1
aI0
aI0
aI0
aI1
aa(lp5467
I2
aI3
aI0
aI0
aI1
aa(lp5468
I0
aI1
aI0
aI0
aI0
aa(lp5469
I0
aI0
aI0
aI0
aI0
aa(lp5470
I1
aI2
aI0
aI0
aI0
aa(lp5471
I0
aI1
aI0
aI0
aI2
aa(lp5472
I0
aI1
aI0
aI0
aI0
aa(lp5473
I0
aI0
aI0
aI0
aI0
aa(lp5474
I1
aI0
aI0
aI0
aI2
aa(lp5475
I1
aI0
aI0
aI0
aI0
aa(lp5476
I1
aI1
aI0
aI0
aI0
aa(lp5477
I1
aI0
aI0
aI0
aI0
aa(lp5478
I1
aI0
aI2
aI0
aI0
aa(lp5479
I0
aI1
aI1
aI0
aI0
aa.