(lp0
(lp1
I0
aI2
aI1
aI2
aI0
aa(lp2
I2
aI0
aI0
aI0
aI0
aa(lp3
I0
aI1
aI4
aI0
aI0
aa(lp4
I1
aI0
aI4
aI0
aI0
aa(lp5
I0
aI0
aI1
aI0
aI0
aa(lp6
I0
aI1
aI5
aI1
aI0
aa(lp7
I0
aI1
aI2
aI0
aI0
aa(lp8
I0
aI0
aI0
aI0
aI0
aa(lp9
I0
aI0
aI1
aI1
aI0
aa(lp10
I0
aI1
aI2
aI1
aI0
aa(lp11
I1
aI1
aI3
aI0
aI0
aa(lp12
I0
aI2
aI4
aI1
aI0
aa(lp13
I1
aI1
aI4
aI0
aI0
aa(lp14
I0
aI1
aI0
aI2
aI0
aa(lp15
I0
aI0
aI2
aI0
aI0
aa(lp16
I0
aI1
aI5
aI1
aI0
aa(lp17
I0
aI4
aI4
aI0
aI1
aa(lp18
I1
aI0
aI1
aI0
aI0
aa(lp19
I0
aI2
aI3
aI2
aI0
aa(lp20
I0
aI1
aI2
aI1
aI0
aa(lp21
I0
aI1
aI2
aI3
aI0
aa(lp22
I1
aI0
aI0
aI0
aI0
aa(lp23
I0
aI4
aI2
aI0
aI0
aa(lp24
I0
aI0
aI0
aI0
aI0
aa(lp25
I0
aI0
aI3
aI2
aI0
aa(lp26
I3
aI0
aI3
aI1
aI0
aa(lp27
I1
aI0
aI5
aI1
aI0
aa(lp28
I1
aI0
aI2
aI1
aI0
aa(lp29
I1
aI3
aI3
aI0
aI0
aa(lp30
I0
aI1
aI1
aI0
aI0
aa(lp31
I1
aI2
aI4
aI1
aI0
aa(lp32
I0
aI2
aI1
aI0
aI0
aa(lp33
I0
aI2
aI3
aI1
aI0
aa(lp34
I0
aI0
aI4
aI0
aI0
aa(lp35
I0
aI0
aI0
aI1
aI0
aa(lp36
I0
aI0
aI0
aI0
aI0
aa(lp37
I0
aI1
aI3
aI0
aI0
aa(lp38
I0
aI0
aI1
aI0
aI0
aa(lp39
I0
aI0
aI2
aI0
aI0
aa(lp40
I0
aI0
aI3
aI1
aI0
aa(lp41
I0
aI0
aI5
aI0
aI0
aa(lp42
I0
aI1
aI0
aI0
aI0
aa(lp43
I0
aI0
aI2
aI0
aI0
aa(lp44
I0
aI0
aI2
aI1
aI0
aa(lp45
I0
aI1
aI3
aI0
aI0
aa(lp46
I0
aI2
aI1
aI0
aI0
aa(lp47
I0
aI3
aI2
aI1
aI0
aa(lp48
I1
aI3
aI5
aI0
aI0
aa(lp49
I0
aI1
aI0
aI0
aI0
aa(lp50
I1
aI1
aI2
aI1
aI0
aa(lp51
I1
aI1
aI1
aI0
aI0
aa(lp52
I0
aI1
aI5
aI0
aI0
aa(lp53
I0
aI0
aI4
aI0
aI0
aa(lp54
I1
aI2
aI4
aI0
aI0
aa(lp55
I0
aI2
aI1
aI0
aI0
aa(lp56
I1
aI3
aI1
aI0
aI0
aa(lp57
I1
aI0
aI3
aI0
aI0
aa(lp58
I0
aI1
aI1
aI1
aI0
aa(lp59
I1
aI1
aI6
aI0
aI0
aa(lp60
I0
aI2
aI5
aI0
aI0
aa(lp61
I0
aI1
aI2
aI1
aI0
aa(lp62
I0
aI1
aI1
aI0
aI1
aa(lp63
I0
aI2
aI2
aI2
aI0
aa(lp64
I1
aI0
aI1
aI1
aI0
aa(lp65
I0
aI1
aI2
aI1
aI0
aa(lp66
I0
aI2
aI3
aI0
aI0
aa(lp67
I0
aI1
aI6
aI1
aI0
aa(lp68
I0
aI2
aI4
aI0
aI0
aa(lp69
I0
aI2
aI3
aI0
aI1
aa(lp70
I1
aI1
aI2
aI1
aI0
aa(lp71
I0
aI4
aI1
aI1
aI0
aa(lp72
I0
aI6
aI4
aI3
aI0
aa(lp73
I1
aI1
aI8
aI2
aI0
aa(lp74
I2
aI4
aI6
aI0
aI0
aa(lp75
I0
aI2
aI1
aI2
aI0
aa(lp76
I2
aI5
aI4
aI1
aI0
aa(lp77
I0
aI2
aI1
aI2
aI0
aa(lp78
I0
aI0
aI3
aI4
aI0
aa(lp79
I0
aI2
aI1
aI2
aI0
aa(lp80
I0
aI0
aI4
aI2
aI0
aa(lp81
I4
aI3
aI3
aI0
aI0
aa(lp82
I1
aI4
aI3
aI0
aI0
aa(lp83
I0
aI1
aI4
aI1
aI0
aa(lp84
I0
aI1
aI1
aI1
aI0
aa(lp85
I1
aI0
aI4
aI2
aI0
aa(lp86
I3
aI2
aI2
aI2
aI0
aa(lp87
I0
aI4
aI6
aI5
aI0
aa(lp88
I1
aI3
aI7
aI2
aI0
aa(lp89
I0
aI0
aI3
aI2
aI2
aa(lp90
I1
aI5
aI3
aI2
aI0
aa(lp91
I2
aI2
aI1
aI3
aI0
aa(lp92
I0
aI0
aI1
aI1
aI0
aa(lp93
I3
aI2
aI9
aI3
aI0
aa(lp94
I3
aI3
aI5
aI1
aI0
aa(lp95
I1
aI1
aI10
aI1
aI0
aa(lp96
I0
aI2
aI3
aI0
aI0
aa(lp97
I1
aI2
aI5
aI2
aI1
aa(lp98
I0
aI4
aI5
aI0
aI0
aa(lp99
I0
aI0
aI5
aI1
aI0
aa(lp100
I1
aI1
aI2
aI1
aI0
aa(lp101
I1
aI1
aI7
aI2
aI0
aa(lp102
I1
aI4
aI2
aI1
aI0
aa(lp103
I1
aI6
aI7
aI2
aI0
aa(lp104
I2
aI4
aI5
aI1
aI0
aa(lp105
I1
aI6
aI0
aI5
aI2
aa(lp106
I1
aI2
aI0
aI0
aI0
aa(lp107
I1
aI4
aI7
aI3
aI1
aa(lp108
I1
aI5
aI3
aI2
aI0
aa(lp109
I4
aI6
aI8
aI5
aI1
aa(lp110
I2
aI5
aI5
aI4
aI0
aa(lp111
I0
aI2
aI3
aI5
aI0
aa(lp112
I2
aI8
aI6
aI4
aI0
aa(lp113
I1
aI4
aI2
aI1
aI0
aa(lp114
I2
aI6
aI5
aI3
aI0
aa(lp115
I3
aI6
aI4
aI2
aI1
aa(lp116
I0
aI5
aI6
aI3
aI0
aa(lp117
I1
aI4
aI5
aI2
aI0
aa(lp118
I4
aI3
aI7
aI2
aI0
aa(lp119
I1
aI3
aI4
aI1
aI3
aa(lp120
I1
aI1
aI4
aI1
aI1
aa(lp121
I2
aI3
aI1
aI0
aI0
aa(lp122
I3
aI4
aI4
aI3
aI0
aa(lp123
I5
aI5
aI4
aI1
aI0
aa(lp124
I4
aI3
aI3
aI4
aI0
aa(lp125
I1
aI7
aI6
aI2
aI1
aa(lp126
I3
aI10
aI4
aI5
aI1
aa(lp127
I4
aI4
aI1
aI4
aI0
aa(lp128
I4
aI7
aI7
aI3
aI0
aa(lp129
I3
aI4
aI5
aI0
aI1
aa(lp130
I2
aI1
aI3
aI2
aI0
aa(lp131
I0
aI4
aI3
aI2
aI0
aa(lp132
I2
aI3
aI6
aI2
aI0
aa(lp133
I3
aI4
aI5
aI1
aI0
aa(lp134
I0
aI7
aI2
aI3
aI1
aa(lp135
I0
aI1
aI4
aI2
aI0
aa(lp136
I1
aI5
aI10
aI1
aI0
aa(lp137
I1
aI3
aI5
aI1
aI0
aa(lp138
I0
aI3
aI6
aI1
aI0
aa(lp139
I2
aI10
aI5
aI3
aI0
aa(lp140
I3
aI6
aI7
aI5
aI1
aa(lp141
I5
aI2
aI2
aI7
aI1
aa(lp142
I5
aI6
aI6
aI4
aI1
aa(lp143
I3
aI6
aI7
aI6
aI1
aa(lp144
I4
aI5
aI7
aI3
aI0
aa(lp145
I3
aI5
aI3
aI3
aI1
aa(lp146
I4
aI10
aI7
aI2
aI0
aa(lp147
I3
aI4
aI4
aI6
aI1
aa(lp148
I0
aI3
aI5
aI2
aI0
aa(lp149
I4
aI3
aI6
aI3
aI0
aa(lp150
I2
aI5
aI3
aI6
aI1
aa(lp151
I3
aI5
aI7
aI4
aI1
aa(lp152
I4
aI10
aI7
aI3
aI1
aa(lp153
I3
aI5
aI0
aI4
aI0
aa(lp154
I3
aI6
aI4
aI3
aI1
aa(lp155
I4
aI2
aI3
aI3
aI2
aa(lp156
I1
aI7
aI5
aI1
aI0
aa(lp157
I2
aI8
aI7
aI4
aI0
aa(lp158
I3
aI11
aI8
aI5
aI2
aa(lp159
I4
aI10
aI6
aI9
aI1
aa(lp160
I3
aI5
aI3
aI7
aI0
aa(lp161
I2
aI10
aI1
aI9
aI0
aa(lp162
I2
aI4
aI4
aI1
aI0
aa(lp163
I2
aI3
aI7
aI5
aI0
aa(lp164
I2
aI5
aI6
aI4
aI0
aa(lp165
I1
aI9
aI1
aI5
aI0
aa(lp166
I2
aI10
aI5
aI6
aI2
aa(lp167
I4
aI6
aI4
aI5
aI1
aa(lp168
I3
aI2
aI7
aI2
aI0
aa(lp169
I2
aI4
aI3
aI4
aI0
aa(lp170
I2
aI8
aI8
aI5
aI0
aa(lp171
I7
aI16
aI7
aI4
aI0
aa(lp172
I1
aI6
aI6
aI5
aI1
aa(lp173
I3
aI8
aI9
aI1
aI0
aa(lp174
I2
aI6
aI8
aI3
aI1
aa(lp175
I2
aI7
aI5
aI3
aI0
aa(lp176
I3
aI6
aI6
aI6
aI1
aa(lp177
I3
aI8
aI7
aI3
aI0
aa(lp178
I3
aI17
aI9
aI1
aI0
aa(lp179
I4
aI4
aI7
aI10
aI1
aa(lp180
I4
aI10
aI6
aI5
aI2
aa(lp181
I7
aI13
aI8
aI6
aI3
aa(lp182
I1
aI9
aI3
aI4
aI1
aa(lp183
I6
aI11
aI4
aI6
aI1
aa(lp184
I3
aI8
aI5
aI8
aI0
aa(lp185
I5
aI11
aI6
aI4
aI1
aa(lp186
I3
aI8
aI6
aI2
aI2
aa(lp187
I7
aI12
aI7
aI12
aI2
aa(lp188
I1
aI11
aI4
aI1
aI0
aa(lp189
I3
aI10
aI8
aI4
aI0
aa(lp190
I6
aI4
aI4
aI4
aI0
aa(lp191
I4
aI8
aI3
aI6
aI0
aa(lp192
I4
aI6
aI7
aI2
aI0
aa(lp193
I4
aI10
aI6
aI8
aI0
aa(lp194
I5
aI12
aI13
aI5
aI1
aa(lp195
I2
aI12
aI4
aI2
aI0
aa(lp196
I6
aI4
aI5
aI3
aI0
aa(lp197
I4
aI6
aI9
aI5
aI0
aa(lp198
I3
aI10
aI7
aI5
aI1
aa(lp199
I4
aI10
aI10
aI4
aI0
aa(lp200
I10
aI5
aI11
aI8
aI2
aa(lp201
I6
aI15
aI11
aI4
aI0
aa(lp202
I5
aI10
aI5
aI1
aI0
aa(lp203
I2
aI11
aI5
aI4
aI1
aa(lp204
I2
aI14
aI6
aI5
aI0
aa(lp205
I3
aI9
aI7
aI5
aI2
aa(lp206
I3
aI12
aI10
aI3
aI0
aa(lp207
I3
aI8
aI10
aI7
aI0
aa(lp208
I6
aI9
aI6
aI7
aI0
aa(lp209
I5
aI10
aI7
aI6
aI0
aa(lp210
I3
aI13
aI3
aI6
aI0
aa(lp211
I3
aI16
aI2
aI2
aI2
aa(lp212
I5
aI19
aI10
aI3
aI1
aa(lp213
I3
aI12
aI9
aI5
aI0
aa(lp214
I4
aI11
aI10
aI4
aI0
aa(lp215
I4
aI7
aI8
aI5
aI1
aa(lp216
I4
aI13
aI7
aI1
aI1
aa(lp217
I5
aI8
aI3
aI3
aI0
aa(lp218
I1
aI3
aI1
aI2
aI1
aa(lp219
I4
aI12
aI5
aI2
aI0
aa(lp220
I5
aI12
aI7
aI4
aI1
aa(lp221
I3
aI6
aI5
aI3
aI1
aa(lp222
I1
aI9
aI9
aI7
aI1
aa(lp223
I1
aI10
aI5
aI6
aI0
aa(lp224
I5
aI7
aI4
aI5
aI0
aa(lp225
I2
aI14
aI6
aI4
aI1
aa(lp226
I6
aI12
aI7
aI2
aI0
aa(lp227
I5
aI15
aI13
aI4
aI0
aa(lp228
I3
aI10
aI10
aI8
aI0
aa(lp229
I7
aI11
aI9
aI11
aI0
aa(lp230
I2
aI10
aI12
aI7
aI1
aa(lp231
I4
aI9
aI5
aI7
aI0
aa(lp232
I2
aI13
aI1
aI1
aI0
aa(lp233
I5
aI14
aI6
aI5
aI1
aa(lp234
I8
aI10
aI7
aI8
aI0
aa(lp235
I4
aI13
aI5
aI5
aI1
aa(lp236
I6
aI12
aI7
aI9
aI1
aa(lp237
I4
aI13
aI12
aI12
aI0
aa(lp238
I4
aI13
aI3
aI9
aI0
aa(lp239
I7
aI2
aI2
aI6
aI1
aa(lp240
I4
aI9
aI12
aI5
aI1
aa(lp241
I2
aI12
aI6
aI7
aI1
aa(lp242
I5
aI13
aI5
aI9
aI0
aa(lp243
I3
aI7
aI8
aI6
aI0
aa(lp244
I3
aI9
aI7
aI4
aI1
aa(lp245
I1
aI15
aI3
aI3
aI0
aa(lp246
I3
aI12
aI2
aI9
aI0
aa(lp247
I2
aI10
aI3
aI4
aI0
aa(lp248
I6
aI12
aI2
aI3
aI2
aa(lp249
I5
aI12
aI8
aI2
aI1
aa(lp250
I5
aI10
aI7
aI5
aI1
aa(lp251
I3
aI8
aI12
aI2
aI0
aa(lp252
I5
aI8
aI2
aI2
aI1
aa(lp253
I4
aI10
aI2
aI4
aI1
aa(lp254
I3
aI5
aI7
aI2
aI1
aa(lp255
I3
aI7
aI5
aI7
aI0
aa(lp256
I4
aI9
aI3
aI2
aI0
aa(lp257
I3
aI8
aI7
aI2
aI1
aa(lp258
I2
aI6
aI8
aI4
aI0
aa(lp259
I1
aI10
aI3
aI6
aI1
aa(lp260
I1
aI5
aI3
aI3
aI0
aa(lp261
I2
aI5
aI3
aI3
aI0
aa(lp262
I1
aI9
aI8
aI3
aI0
aa(lp263
I2
aI9
aI6
aI3
aI1
aa(lp264
I4
aI6
aI9
aI0
aI0
aa(lp265
I4
aI6
aI2
aI0
aI0
aa(lp266
I1
aI9
aI0
aI3
aI1
aa(lp267
I0
aI4
aI0
aI6
aI1
aa(lp268
I1
aI8
aI5
aI2
aI1
aa(lp269
I6
aI4
aI3
aI3
aI0
aa(lp270
I7
aI11
aI5
aI4
aI1
aa(lp271
I2
aI6
aI1
aI6
aI1
aa(lp272
I3
aI8
aI7
aI5
aI0
aa(lp273
I1
aI7
aI4
aI2
aI0
aa(lp274
I1
aI8
aI5
aI4
aI0
aa(lp275
I3
aI7
aI4
aI3
aI0
aa(lp276
I2
aI8
aI5
aI3
aI0
aa(lp277
I0
aI5
aI6
aI1
aI1
aa(lp278
I2
aI2
aI4
aI1
aI1
aa(lp279
I2
aI2
aI9
aI4
aI1
aa(lp280
I1
aI2
aI4
aI4
aI0
aa(lp281
I0
aI7
aI2
aI7
aI0
aa(lp282
I1
aI4
aI4
aI3
aI2
aa(lp283
I1
aI7
aI7
aI4
aI1
aa(lp284
I3
aI4
aI8
aI3
aI1
aa(lp285
I3
aI8
aI3
aI3
aI0
aa(lp286
I6
aI6
aI4
aI8
aI0
aa(lp287
I0
aI8
aI1
aI1
aI0
aa(lp288
I1
aI3
aI3
aI0
aI0
aa(lp289
I2
aI9
aI5
aI1
aI0
aa(lp290
I1
aI5
aI4
aI4
aI0
aa(lp291
I2
aI5
aI7
aI5
aI0
aa(lp292
I3
aI3
aI2
aI2
aI0
aa(lp293
I4
aI4
aI2
aI1
aI0
aa(lp294
I0
aI5
aI2
aI5
aI0
aa(lp295
I0
aI4
aI0
aI4
aI0
aa(lp296
I0
aI4
aI3
aI3
aI1
aa(lp297
I0
aI3
aI3
aI2
aI0
aa(lp298
I5
aI7
aI3
aI5
aI0
aa(lp299
I4
aI6
aI4
aI0
aI0
aa(lp300
I0
aI4
aI3
aI0
aI1
aa(lp301
I0
aI4
aI2
aI1
aI1
aa(lp302
I1
aI2
aI1
aI3
aI1
aa(lp303
I1
aI7
aI3
aI2
aI0
aa(lp304
I2
aI3
aI3
aI0
aI0
aa(lp305
I0
aI4
aI4
aI2
aI1
aa(lp306
I0
aI3
aI6
aI2
aI0
aa(lp307
I0
aI4
aI5
aI1
aI0
aa(lp308
I0
aI0
aI2
aI1
aI0
aa(lp309
I1
aI0
aI2
aI1
aI0
aa(lp310
I0
aI4
aI6
aI2
aI0
aa(lp311
I1
aI5
aI2
aI2
aI0
aa(lp312
I0
aI6
aI5
aI2
aI0
aa(lp313
I1
aI2
aI7
aI1
aI0
aa(lp314
I0
aI1
aI3
aI1
aI0
aa(lp315
I0
aI5
aI3
aI2
aI0
aa(lp316
I1
aI2
aI2
aI0
aI0
aa(lp317
I1
aI1
aI5
aI3
aI0
aa(lp318
I1
aI1
aI2
aI0
aI0
aa(lp319
I4
aI1
aI3
aI4
aI1
aa(lp320
I0
aI0
aI3
aI1
aI0
aa(lp321
I0
aI2
aI4
aI2
aI1
aa(lp322
I0
aI1
aI1
aI0
aI0
aa(lp323
I0
aI0
aI1
aI0
aI0
aa(lp324
I0
aI1
aI4
aI0
aI0
aa(lp325
I2
aI5
aI6
aI3
aI0
aa(lp326
I3
aI2
aI5
aI0
aI0
aa(lp327
I0
aI0
aI0
aI0
aI0
aa(lp328
I1
aI2
aI0
aI1
aI0
aa(lp329
I1
aI1
aI0
aI0
aI0
aa(lp330
I1
aI1
aI0
aI1
aI0
aa(lp331
I1
aI2
aI1
aI0
aI0
aa(lp332
I1
aI2
aI7
aI1
aI1
aa(lp333
I0
aI4
aI2
aI0
aI0
aa(lp334
I0
aI2
aI4
aI2
aI0
aa(lp335
I0
aI0
aI4
aI4
aI0
aa(lp336
I0
aI1
aI0
aI1
aI0
aa(lp337
I1
aI0
aI1
aI4
aI0
aa(lp338
I0
aI3
aI8
aI5
aI0
aa(lp339
I0
aI4
aI6
aI1
aI0
aa(lp340
I1
aI4
aI5
aI2
aI0
aa(lp341
I1
aI2
aI3
aI5
aI0
aa(lp342
I1
aI1
aI2
aI2
aI0
aa(lp343
I0
aI0
aI2
aI1
aI0
aa(lp344
I0
aI1
aI1
aI1
aI1
aa(lp345
I0
aI0
aI1
aI0
aI0
aa(lp346
I1
aI1
aI5
aI1
aI0
aa(lp347
I0
aI4
aI2
aI0
aI0
aa(lp348
I0
aI0
aI2
aI0
aI0
aa(lp349
I1
aI1
aI6
aI3
aI0
aa(lp350
I0
aI0
aI0
aI0
aI0
aa(lp351
I1
aI0
aI4
aI0
aI0
aa(lp352
I0
aI1
aI4
aI1
aI0
aa(lp353
I0
aI0
aI1
aI0
aI0
aa(lp354
I0
aI1
aI0
aI0
aI0
aa(lp355
I0
aI0
aI2
aI0
aI0
aa(lp356
I0
aI0
aI6
aI0
aI0
aa(lp357
I0
aI0
aI0
aI1
aI0
aa(lp358
I0
aI1
aI1
aI1
aI0
aa(lp359
I0
aI0
aI1
aI0
aI0
aa(lp360
I1
aI1
aI0
aI1
aI0
aa(lp361
I0
aI2
aI3
aI0
aI0
aa(lp362
I1
aI3
aI7
aI0
aI0
aa(lp363
I2
aI1
aI1
aI1
aI1
aa(lp364
I0
aI1
aI1
aI0
aI0
aa(lp365
I0
aI1
aI1
aI0
aI0
aa(lp366
I0
aI1
aI0
aI0
aI0
aa(lp367
I0
aI1
aI0
aI0
aI0
aa(lp368
I0
aI0
aI0
aI0
aI0
aa(lp369
I1
aI0
aI3
aI2
aI0
aa(lp370
I0
aI1
aI1
aI0
aI0
aa(lp371
I0
aI0
aI2
aI0
aI0
aa(lp372
I0
aI0
aI0
aI1
aI0
aa(lp373
I0
aI0
aI0
aI0
aI0
aa(lp374
I0
aI0
aI1
aI0
aI0
aa(lp375
I0
aI0
aI1
aI1
aI0
aa(lp376
I0
aI0
aI3
aI1
aI0
aa(lp377
I0
aI0
aI1
aI0
aI0
aa(lp378
I0
aI0
aI0
aI2
aI0
aa(lp379
I0
aI0
aI0
aI0
aI0
aa(lp380
I0
aI2
aI2
aI0
aI0
aa(lp381
I0
aI0
aI2
aI0
aI0
aa(lp382
I0
aI0
aI2
aI1
aI0
aa(lp383
I1
aI0
aI3
aI0
aI0
aa(lp384
I1
aI3
aI3
aI0
aI0
aa(lp385
I1
aI0
aI3
aI1
aI0
aa(lp386
I0
aI0
aI3
aI0
aI0
aa(lp387
I0
aI2
aI1
aI2
aI0
aa(lp388
I0
aI0
aI3
aI1
aI0
aa(lp389
I0
aI0
aI2
aI1
aI0
aa(lp390
I0
aI0
aI1
aI0
aI0
aa(lp391
I0
aI1
aI1
aI0
aI1
aa(lp392
I0
aI0
aI1
aI3
aI0
aa(lp393
I0
aI3
aI2
aI1
aI0
aa(lp394
I1
aI2
aI3
aI1
aI0
aa(lp395
I3
aI0
aI5
aI0
aI0
aa(lp396
I2
aI0
aI2
aI1
aI0
aa(lp397
I0
aI0
aI0
aI2
aI0
aa(lp398
I0
aI1
aI0
aI0
aI0
aa(lp399
I0
aI0
aI0
aI0
aI0
aa(lp400
I0
aI0
aI1
aI0
aI0
aa(lp401
I0
aI0
aI4
aI0
aI0
aa(lp402
I0
aI0
aI2
aI0
aI0
aa(lp403
I0
aI1
aI3
aI1
aI0
aa(lp404
I1
aI2
aI7
aI0
aI0
aa(lp405
I0
aI1
aI4
aI0
aI0
aa(lp406
I2
aI1
aI3
aI1
aI0
aa(lp407
I0
aI0
aI1
aI2
aI0
aa(lp408
I0
aI0
aI3
aI0
aI0
aa(lp409
I0
aI0
aI8
aI0
aI0
aa(lp410
I0
aI2
aI1
aI0
aI1
aa(lp411
I0
aI0
aI0
aI1
aI0
aa(lp412
I0
aI3
aI2
aI1
aI0
aa(lp413
I0
aI2
aI2
aI0
aI0
aa(lp414
I0
aI0
aI0
aI0
aI0
aa(lp415
I1
aI1
aI1
aI0
aI0
aa(lp416
I0
aI1
aI2
aI0
aI0
aa(lp417
I0
aI0
aI4
aI0
aI0
aa(lp418
I1
aI2
aI4
aI0
aI0
aa(lp419
I1
aI0
aI4
aI0
aI0
aa(lp420
I1
aI2
aI0
aI0
aI1
aa(lp421
I1
aI3
aI0
aI2
aI0
aa(lp422
I0
aI1
aI5
aI0
aI0
aa(lp423
I0
aI3
aI7
aI0
aI1
aa(lp424
I0
aI0
aI1
aI1
aI0
aa(lp425
I2
aI1
aI2
aI0
aI0
aa(lp426
I1
aI1
aI0
aI1
aI0
aa(lp427
I0
aI1
aI0
aI1
aI1
aa(lp428
I0
aI0
aI0
aI1
aI0
aa(lp429
I0
aI2
aI2
aI3
aI0
aa(lp430
I0
aI3
aI3
aI1
aI1
aa(lp431
I0
aI3
aI3
aI1
aI0
aa(lp432
I0
aI0
aI1
aI0
aI0
aa(lp433
I0
aI0
aI2
aI0
aI0
aa(lp434
I0
aI1
aI2
aI0
aI0
aa(lp435
I0
aI1
aI2
aI0
aI0
aa(lp436
I0
aI1
aI3
aI0
aI0
aa(lp437
I1
aI1
aI3
aI0
aI1
aa(lp438
I2
aI2
aI4
aI0
aI1
aa(lp439
I0
aI4
aI4
aI0
aI0
aa(lp440
I0
aI1
aI2
aI1
aI0
aa(lp441
I2
aI1
aI1
aI0
aI0
aa(lp442
I1
aI1
aI0
aI2
aI0
aa(lp443
I1
aI2
aI2
aI2
aI0
aa(lp444
I1
aI4
aI2
aI3
aI0
aa(lp445
I0
aI1
aI8
aI0
aI0
aa(lp446
I1
aI2
aI4
aI1
aI2
aa(lp447
I1
aI1
aI5
aI1
aI0
aa(lp448
I2
aI1
aI0
aI1
aI0
aa(lp449
I2
aI0
aI3
aI1
aI0
aa(lp450
I0
aI1
aI2
aI1
aI1
aa(lp451
I0
aI3
aI4
aI0
aI2
aa(lp452
I0
aI5
aI6
aI1
aI0
aa(lp453
I0
aI3
aI1
aI0
aI0
aa(lp454
I0
aI0
aI4
aI2
aI0
aa(lp455
I1
aI3
aI4
aI4
aI0
aa(lp456
I0
aI4
aI6
aI0
aI0
aa(lp457
I3
aI2
aI5
aI3
aI0
aa(lp458
I1
aI4
aI3
aI0
aI0
aa(lp459
I1
aI2
aI4
aI2
aI0
aa(lp460
I3
aI4
aI2
aI1
aI0
aa(lp461
I3
aI2
aI3
aI0
aI0
aa(lp462
I5
aI4
aI3
aI5
aI0
aa(lp463
I0
aI1
aI1
aI1
aI0
aa(lp464
I0
aI1
aI6
aI0
aI0
aa(lp465
I0
aI4
aI7
aI0
aI0
aa(lp466
I1
aI5
aI4
aI2
aI0
aa(lp467
I1
aI2
aI3
aI1
aI0
aa(lp468
I3
aI5
aI9
aI2
aI0
aa(lp469
I3
aI3
aI2
aI3
aI0
aa(lp470
I0
aI3
aI3
aI1
aI0
aa(lp471
I1
aI2
aI1
aI1
aI0
aa(lp472
I0
aI3
aI1
aI1
aI0
aa(lp473
I0
aI3
aI1
aI0
aI0
aa(lp474
I2
aI4
aI4
aI3
aI0
aa(lp475
I2
aI5
aI6
aI0
aI0
aa(lp476
I1
aI4
aI3
aI1
aI0
aa(lp477
I5
aI10
aI2
aI4
aI2
aa(lp478
I0
aI7
aI2
aI1
aI2
aa(lp479
I5
aI5
aI4
aI6
aI2
aa(lp480
I0
aI7
aI4
aI3
aI0
aa(lp481
I3
aI5
aI3
aI2
aI0
aa(lp482
I1
aI9
aI2
aI3
aI0
aa(lp483
I1
aI4
aI4
aI2
aI0
aa(lp484
I1
aI4
aI1
aI2
aI2
aa(lp485
I5
aI5
aI4
aI3
aI0
aa(lp486
I0
aI2
aI5
aI1
aI0
aa(lp487
I3
aI8
aI4
aI2
aI0
aa(lp488
I2
aI6
aI4
aI4
aI1
aa(lp489
I3
aI5
aI1
aI1
aI0
aa(lp490
I2
aI8
aI2
aI4
aI0
aa(lp491
I0
aI6
aI3
aI2
aI0
aa(lp492
I1
aI2
aI3
aI1
aI0
aa(lp493
I2
aI8
aI3
aI3
aI0
aa(lp494
I0
aI3
aI7
aI4
aI0
aa(lp495
I1
aI3
aI5
aI2
aI0
aa(lp496
I2
aI7
aI7
aI1
aI4
aa(lp497
I2
aI8
aI3
aI4
aI1
aa(lp498
I0
aI5
aI3
aI6
aI0
aa(lp499
I1
aI5
aI6
aI0
aI0
aa(lp500
I4
aI7
aI5
aI1
aI0
aa(lp501
I1
aI8
aI11
aI1
aI0
aa(lp502
I0
aI2
aI2
aI1
aI0
aa(lp503
I3
aI10
aI6
aI4
aI1
aa(lp504
I1
aI3
aI7
aI4
aI1
aa(lp505
I6
aI10
aI2
aI7
aI1
aa(lp506
I7
aI9
aI7
aI6
aI0
aa(lp507
I3
aI8
aI2
aI5
aI0
aa(lp508
I6
aI7
aI8
aI1
aI1
aa(lp509
I1
aI8
aI10
aI8
aI0
aa(lp510
I2
aI11
aI8
aI7
aI0
aa(lp511
I3
aI9
aI6
aI2
aI1
aa(lp512
I3
aI5
aI5
aI5
aI1
aa(lp513
I2
aI8
aI3
aI4
aI0
aa(lp514
I0
aI7
aI4
aI2
aI0
aa(lp515
I4
aI5
aI2
aI3
aI0
aa(lp516
I2
aI7
aI4
aI2
aI1
aa(lp517
I8
aI12
aI3
aI7
aI0
aa(lp518
I7
aI3
aI6
aI4
aI0
aa(lp519
I5
aI6
aI5
aI8
aI2
aa(lp520
I0
aI1
aI5
aI1
aI0
aa(lp521
I1
aI4
aI4
aI3
aI1
aa(lp522
I3
aI11
aI4
aI5
aI2
aa(lp523
I4
aI12
aI9
aI3
aI2
aa(lp524
I7
aI15
aI3
aI5
aI3
aa(lp525
I9
aI7
aI9
aI4
aI2
aa(lp526
I2
aI8
aI6
aI1
aI1
aa(lp527
I2
aI12
aI4
aI5
aI0
aa(lp528
I0
aI6
aI13
aI4
aI0
aa(lp529
I2
aI10
aI9
aI4
aI1
aa(lp530
I3
aI15
aI9
aI8
aI2
aa(lp531
I5
aI12
aI3
aI7
aI0
aa(lp532
I7
aI9
aI4
aI6
aI2
aa(lp533
I8
aI7
aI6
aI3
aI0
aa(lp534
I1
aI8
aI7
aI5
aI2
aa(lp535
I2
aI6
aI8
aI4
aI0
aa(lp536
I0
aI9
aI4
aI2
aI0
aa(lp537
I2
aI7
aI3
aI1
aI0
aa(lp538
I2
aI1
aI2
aI7
aI1
aa(lp539
I3
aI8
aI6
aI6
aI2
aa(lp540
I5
aI12
aI4
aI3
aI2
aa(lp541
I2
aI6
aI5
aI4
aI0
aa(lp542
I6
aI13
aI6
aI9
aI0
aa(lp543
I6
aI17
aI13
aI6
aI3
aa(lp544
I5
aI13
aI6
aI6
aI0
aa(lp545
I3
aI7
aI12
aI3
aI0
aa(lp546
I5
aI8
aI4
aI10
aI0
aa(lp547
I0
aI1
aI3
aI3
aI0
aa(lp548
I5
aI8
aI9
aI8
aI0
aa(lp549
I3
aI9
aI7
aI6
aI1
aa(lp550
I3
aI9
aI8
aI7
aI1
aa(lp551
I2
aI5
aI3
aI4
aI2
aa(lp552
I4
aI9
aI3
aI8
aI1
aa(lp553
I2
aI11
aI6
aI5
aI0
aa(lp554
I1
aI5
aI5
aI8
aI1
aa(lp555
I2
aI10
aI3
aI4
aI0
aa(lp556
I5
aI13
aI5
aI9
aI0
aa(lp557
I4
aI8
aI11
aI2
aI0
aa(lp558
I4
aI9
aI9
aI4
aI0
aa(lp559
I3
aI11
aI9
aI8
aI0
aa(lp560
I2
aI5
aI3
aI2
aI0
aa(lp561
I3
aI11
aI2
aI6
aI0
aa(lp562
I2
aI7
aI11
aI4
aI0
aa(lp563
I7
aI11
aI9
aI2
aI0
aa(lp564
I5
aI17
aI10
aI5
aI1
aa(lp565
I3
aI10
aI8
aI4
aI0
aa(lp566
I1
aI10
aI8
aI1
aI0
aa(lp567
I7
aI14
aI5
aI8
aI3
aa(lp568
I2
aI8
aI5
aI2
aI0
aa(lp569
I3
aI8
aI7
aI6
aI0
aa(lp570
I3
aI9
aI10
aI3
aI0
aa(lp571
I4
aI11
aI7
aI4
aI1
aa(lp572
I6
aI8
aI8
aI6
aI1
aa(lp573
I3
aI7
aI6
aI0
aI2
aa(lp574
I4
aI11
aI4
aI6
aI1
aa(lp575
I4
aI9
aI2
aI0
aI0
aa(lp576
I3
aI15
aI7
aI4
aI0
aa(lp577
I2
aI12
aI1
aI6
aI1
aa(lp578
I1
aI3
aI2
aI4
aI0
aa(lp579
I1
aI9
aI11
aI7
aI0
aa(lp580
I4
aI11
aI7
aI4
aI0
aa(lp581
I4
aI12
aI4
aI5
aI1
aa(lp582
I3
aI6
aI3
aI5
aI0
aa(lp583
I3
aI12
aI12
aI5
aI0
aa(lp584
I7
aI15
aI6
aI5
aI3
aa(lp585
I6
aI16
aI8
aI7
aI0
aa(lp586
I5
aI6
aI13
aI4
aI0
aa(lp587
I3
aI7
aI13
aI7
aI0
aa(lp588
I2
aI8
aI5
aI8
aI1
aa(lp589
I6
aI13
aI5
aI6
aI0
aa(lp590
I1
aI7
aI9
aI3
aI0
aa(lp591
I6
aI4
aI5
aI2
aI1
aa(lp592
I6
aI9
aI8
aI5
aI0
aa(lp593
I3
aI11
aI12
aI2
aI0
aa(lp594
I6
aI5
aI4
aI8
aI0
aa(lp595
I1
aI9
aI2
aI6
aI0
aa(lp596
I4
aI7
aI4
aI3
aI1
aa(lp597
I4
aI5
aI7
aI3
aI3
aa(lp598
I3
aI22
aI10
aI5
aI1
aa(lp599
I3
aI12
aI6
aI4
aI0
aa(lp600
I2
aI14
aI3
aI5
aI1
aa(lp601
I7
aI14
aI7
aI10
aI2
aa(lp602
I5
aI7
aI8
aI4
aI0
aa(lp603
I2
aI8
aI5
aI4
aI1
aa(lp604
I6
aI9
aI11
aI7
aI0
aa(lp605
I3
aI14
aI9
aI5
aI0
aa(lp606
I3
aI10
aI2
aI10
aI1
aa(lp607
I2
aI10
aI2
aI5
aI0
aa(lp608
I3
aI11
aI6
aI8
aI0
aa(lp609
I6
aI11
aI3
aI5
aI0
aa(lp610
I3
aI14
aI2
aI5
aI0
aa(lp611
I3
aI12
aI1
aI6
aI2
aa(lp612
I0
aI11
aI6
aI4
aI0
aa(lp613
I1
aI8
aI8
aI3
aI1
aa(lp614
I3
aI11
aI12
aI1
aI0
aa(lp615
I4
aI6
aI9
aI8
aI1
aa(lp616
I2
aI8
aI2
aI10
aI1
aa(lp617
I3
aI7
aI3
aI7
aI0
aa(lp618
I1
aI9
aI4
aI7
aI0
aa(lp619
I2
aI9
aI4
aI4
aI1
aa(lp620
I4
aI8
aI9
aI1
aI0
aa(lp621
I6
aI6
aI7
aI4
aI0
aa(lp622
I0
aI5
aI4
aI1
aI0
aa(lp623
I2
aI16
aI6
aI4
aI2
aa(lp624
I1
aI6
aI4
aI4
aI0
aa(lp625
I2
aI3
aI9
aI4
aI2
aa(lp626
I1
aI9
aI1
aI2
aI0
aa(lp627
I1
aI5
aI3
aI2
aI0
aa(lp628
I0
aI6
aI8
aI2
aI1
aa(lp629
I4
aI12
aI7
aI6
aI1
aa(lp630
I5
aI9
aI5
aI7
aI1
aa(lp631
I0
aI4
aI2
aI4
aI0
aa(lp632
I1
aI4
aI6
aI2
aI0
aa(lp633
I3
aI6
aI3
aI2
aI0
aa(lp634
I3
aI5
aI11
aI2
aI0
aa(lp635
I0
aI11
aI4
aI2
aI2
aa(lp636
I3
aI5
aI7
aI2
aI0
aa(lp637
I2
aI9
aI4
aI4
aI0
aa(lp638
I1
aI6
aI3
aI2
aI1
aa(lp639
I4
aI10
aI7
aI1
aI0
aa(lp640
I5
aI10
aI13
aI5
aI2
aa(lp641
I1
aI9
aI4
aI5
aI0
aa(lp642
I3
aI11
aI5
aI3
aI0
aa(lp643
I5
aI6
aI7
aI1
aI0
aa(lp644
I2
aI5
aI3
aI2
aI0
aa(lp645
I1
aI5
aI6
aI2
aI0
aa(lp646
I5
aI7
aI6
aI3
aI0
aa(lp647
I2
aI2
aI4
aI2
aI0
aa(lp648
I1
aI9
aI6
aI0
aI0
aa(lp649
I2
aI2
aI1
aI2
aI1
aa(lp650
I2
aI6
aI6
aI2
aI0
aa(lp651
I2
aI3
aI5
aI1
aI0
aa(lp652
I0
aI8
aI1
aI6
aI0
aa(lp653
I2
aI6
aI7
aI2
aI0
aa(lp654
I1
aI6
aI9
aI5
aI0
aa(lp655
I1
aI3
aI10
aI2
aI0
aa(lp656
I0
aI4
aI4
aI1
aI0
aa(lp657
I0
aI3
aI4
aI2
aI0
aa(lp658
I1
aI0
aI1
aI0
aI1
aa(lp659
I0
aI1
aI0
aI2
aI0
aa(lp660
I6
aI5
aI3
aI1
aI0
aa(lp661
I2
aI3
aI9
aI3
aI0
aa(lp662
I0
aI3
aI4
aI4
aI0
aa(lp663
I1
aI7
aI3
aI0
aI0
aa(lp664
I1
aI2
aI6
aI2
aI0
aa(lp665
I1
aI5
aI5
aI1
aI0
aa(lp666
I1
aI5
aI1
aI1
aI0
aa(lp667
I2
aI6
aI3
aI1
aI0
aa(lp668
I0
aI5
aI6
aI1
aI0
aa(lp669
I0
aI6
aI3
aI2
aI0
aa(lp670
I3
aI6
aI3
aI3
aI0
aa(lp671
I1
aI4
aI2
aI0
aI0
aa(lp672
I1
aI4
aI2
aI3
aI0
aa(lp673
I0
aI1
aI5
aI0
aI0
aa(lp674
I1
aI1
aI4
aI1
aI1
aa(lp675
I0
aI3
aI6
aI2
aI1
aa(lp676
I2
aI3
aI1
aI2
aI0
aa(lp677
I1
aI8
aI4
aI4
aI1
aa(lp678
I0
aI8
aI6
aI3
aI0
aa(lp679
I2
aI5
aI2
aI1
aI0
aa(lp680
I0
aI1
aI3
aI0
aI0
aa(lp681
I0
aI1
aI3
aI0
aI0
aa(lp682
I1
aI0
aI5
aI3
aI0
aa(lp683
I1
aI3
aI6
aI2
aI0
aa(lp684
I0
aI3
aI3
aI1
aI0
aa(lp685
I0
aI2
aI2
aI1
aI0
aa(lp686
I1
aI2
aI1
aI1
aI1
aa(lp687
I0
aI2
aI0
aI1
aI0
aa(lp688
I0
aI1
aI5
aI1
aI1
aa(lp689
I2
aI4
aI3
aI1
aI0
aa(lp690
I1
aI2
aI3
aI1
aI0
aa(lp691
I2
aI2
aI1
aI1
aI0
aa(lp692
I3
aI1
aI7
aI1
aI0
aa(lp693
I0
aI1
aI3
aI1
aI0
aa(lp694
I1
aI5
aI1
aI1
aI0
aa(lp695
I1
aI3
aI3
aI0
aI0
aa(lp696
I0
aI3
aI6
aI0
aI0
aa(lp697
I0
aI0
aI1
aI1
aI0
aa(lp698
I0
aI1
aI0
aI0
aI0
aa(lp699
I0
aI0
aI2
aI3
aI0
aa(lp700
I2
aI6
aI2
aI3
aI0
aa(lp701
I1
aI2
aI1
aI1
aI0
aa(lp702
I0
aI1
aI1
aI0
aI0
aa(lp703
I1
aI4
aI5
aI1
aI0
aa(lp704
I0
aI2
aI3
aI0
aI0
aa(lp705
I0
aI4
aI3
aI1
aI0
aa(lp706
I1
aI0
aI3
aI0
aI0
aa(lp707
I0
aI0
aI2
aI0
aI0
aa(lp708
I0
aI2
aI0
aI1
aI0
aa(lp709
I1
aI1
aI4
aI0
aI0
aa(lp710
I0
aI1
aI3
aI2
aI0
aa(lp711
I0
aI3
aI5
aI0
aI0
aa(lp712
I0
aI4
aI0
aI1
aI0
aa(lp713
I1
aI1
aI8
aI0
aI0
aa(lp714
I1
aI1
aI0
aI0
aI0
aa(lp715
I0
aI1
aI0
aI0
aI0
aa(lp716
I1
aI5
aI2
aI1
aI0
aa(lp717
I2
aI3
aI4
aI3
aI0
aa(lp718
I1
aI1
aI7
aI1
aI0
aa(lp719
I1
aI1
aI0
aI0
aI0
aa(lp720
I0
aI5
aI1
aI2
aI0
aa(lp721
I1
aI3
aI1
aI1
aI0
aa(lp722
I2
aI1
aI0
aI0
aI0
aa(lp723
I1
aI2
aI4
aI1
aI0
aa(lp724
I1
aI5
aI4
aI3
aI0
aa(lp725
I2
aI1
aI2
aI1
aI0
aa(lp726
I0
aI1
aI2
aI2
aI0
aa(lp727
I0
aI3
aI0
aI0
aI0
aa(lp728
I1
aI3
aI4
aI3
aI0
aa(lp729
I0
aI5
aI2
aI0
aI0
aa(lp730
I1
aI3
aI1
aI3
aI0
aa(lp731
I0
aI1
aI6
aI1
aI1
aa(lp732
I1
aI0
aI2
aI0
aI0
aa(lp733
I0
aI2
aI4
aI0
aI0
aa(lp734
I0
aI1
aI3
aI0
aI0
aa(lp735
I2
aI1
aI2
aI1
aI0
aa(lp736
I0
aI2
aI0
aI2
aI0
aa(lp737
I1
aI0
aI2
aI0
aI0
aa(lp738
I0
aI2
aI3
aI0
aI0
aa(lp739
I2
aI2
aI4
aI1
aI0
aa(lp740
I0
aI0
aI4
aI1
aI0
aa(lp741
I0
aI3
aI5
aI3
aI0
aa(lp742
I0
aI1
aI0
aI1
aI0
aa(lp743
I0
aI1
aI1
aI1
aI0
aa(lp744
I0
aI1
aI1
aI0
aI0
aa(lp745
I1
aI0
aI2
aI0
aI0
aa(lp746
I0
aI3
aI3
aI1
aI0
aa(lp747
I0
aI2
aI1
aI0
aI0
aa(lp748
I0
aI0
aI1
aI0
aI0
aa(lp749
I0
aI0
aI1
aI0
aI0
aa(lp750
I0
aI2
aI1
aI0
aI0
aa(lp751
I0
aI1
aI2
aI1
aI0
aa(lp752
I0
aI3
aI3
aI1
aI0
aa(lp753
I1
aI3
aI2
aI2
aI0
aa(lp754
I1
aI4
aI6
aI1
aI1
aa(lp755
I0
aI1
aI2
aI1
aI0
aa(lp756
I0
aI0
aI1
aI0
aI0
aa(lp757
I1
aI2
aI1
aI0
aI0
aa(lp758
I0
aI0
aI3
aI0
aI0
aa(lp759
I0
aI1
aI4
aI2
aI0
aa(lp760
I0
aI2
aI1
aI0
aI2
aa(lp761
I0
aI1
aI3
aI1
aI0
aa(lp762
I0
aI0
aI5
aI1
aI0
aa(lp763
I0
aI3
aI5
aI4
aI0
aa(lp764
I0
aI2
aI3
aI1
aI0
aa(lp765
I0
aI1
aI4
aI0
aI0
aa(lp766
I0
aI2
aI3
aI0
aI0
aa(lp767
I0
aI2
aI1
aI0
aI1
aa(lp768
I0
aI3
aI2
aI2
aI0
aa(lp769
I0
aI1
aI1
aI1
aI0
aa(lp770
I0
aI1
aI7
aI1
aI0
aa(lp771
I2
aI1
aI1
aI0
aI0
aa(lp772
I0
aI0
aI1
aI1
aI0
aa(lp773
I0
aI3
aI3
aI2
aI0
aa(lp774
I1
aI1
aI2
aI1
aI0
aa(lp775
I1
aI4
aI7
aI0
aI0
aa(lp776
I0
aI2
aI1
aI2
aI0
aa(lp777
I4
aI3
aI2
aI0
aI0
aa(lp778
I1
aI3
aI1
aI1
aI0
aa(lp779
I1
aI1
aI1
aI0
aI0
aa(lp780
I0
aI5
aI2
aI2
aI0
aa(lp781
I3
aI5
aI7
aI2
aI0
aa(lp782
I1
aI3
aI5
aI1
aI0
aa(lp783
I2
aI4
aI5
aI1
aI0
aa(lp784
I0
aI5
aI2
aI1
aI0
aa(lp785
I1
aI3
aI2
aI0
aI0
aa(lp786
I0
aI1
aI1
aI2
aI0
aa(lp787
I1
aI2
aI2
aI1
aI0
aa(lp788
I2
aI2
aI2
aI0
aI0
aa(lp789
I0
aI1
aI5
aI1
aI0
aa(lp790
I0
aI4
aI6
aI1
aI0
aa(lp791
I1
aI2
aI1
aI1
aI0
aa(lp792
I1
aI2
aI0
aI2
aI0
aa(lp793
I1
aI4
aI2
aI1
aI0
aa(lp794
I1
aI2
aI4
aI2
aI0
aa(lp795
I1
aI3
aI7
aI0
aI0
aa(lp796
I0
aI6
aI8
aI0
aI0
aa(lp797
I1
aI2
aI2
aI0
aI0
aa(lp798
I2
aI0
aI2
aI0
aI0
aa(lp799
I0
aI0
aI1
aI1
aI0
aa(lp800
I0
aI2
aI4
aI0
aI0
aa(lp801
I1
aI3
aI6
aI0
aI0
aa(lp802
I1
aI1
aI6
aI1
aI0
aa(lp803
I0
aI3
aI3
aI1
aI0
aa(lp804
I0
aI8
aI3
aI1
aI0
aa(lp805
I2
aI2
aI2
aI1
aI0
aa(lp806
I0
aI2
aI0
aI1
aI0
aa(lp807
I0
aI4
aI2
aI0
aI0
aa(lp808
I1
aI3
aI5
aI1
aI1
aa(lp809
I0
aI2
aI3
aI1
aI0
aa(lp810
I0
aI2
aI4
aI0
aI0
aa(lp811
I0
aI4
aI4
aI1
aI0
aa(lp812
I0
aI2
aI1
aI0
aI0
aa(lp813
I0
aI2
aI2
aI1
aI0
aa(lp814
I0
aI3
aI9
aI2
aI0
aa(lp815
I3
aI2
aI1
aI1
aI0
aa(lp816
I1
aI2
aI1
aI1
aI0
aa(lp817
I0
aI2
aI6
aI5
aI0
aa(lp818
I0
aI4
aI4
aI3
aI2
aa(lp819
I0
aI1
aI3
aI1
aI0
aa(lp820
I2
aI2
aI0
aI1
aI0
aa(lp821
I0
aI0
aI5
aI2
aI0
aa(lp822
I1
aI0
aI6
aI0
aI0
aa(lp823
I0
aI2
aI3
aI2
aI0
aa(lp824
I1
aI0
aI6
aI0
aI0
aa(lp825
I0
aI4
aI3
aI2
aI1
aa(lp826
I0
aI2
aI4
aI2
aI0
aa(lp827
I1
aI2
aI1
aI1
aI0
aa(lp828
I1
aI6
aI3
aI4
aI1
aa(lp829
I2
aI10
aI8
aI1
aI1
aa(lp830
I0
aI0
aI5
aI2
aI0
aa(lp831
I0
aI4
aI6
aI0
aI0
aa(lp832
I3
aI3
aI3
aI1
aI0
aa(lp833
I1
aI0
aI0
aI4
aI0
aa(lp834
I1
aI4
aI1
aI1
aI1
aa(lp835
I2
aI5
aI4
aI4
aI0
aa(lp836
I2
aI3
aI4
aI1
aI0
aa(lp837
I1
aI4
aI3
aI1
aI0
aa(lp838
I1
aI1
aI6
aI1
aI1
aa(lp839
I2
aI1
aI3
aI3
aI0
aa(lp840
I0
aI3
aI1
aI4
aI0
aa(lp841
I1
aI2
aI1
aI2
aI1
aa(lp842
I0
aI6
aI3
aI4
aI0
aa(lp843
I4
aI2
aI7
aI4
aI0
aa(lp844
I1
aI3
aI5
aI2
aI1
aa(lp845
I4
aI2
aI8
aI5
aI0
aa(lp846
I3
aI5
aI5
aI5
aI1
aa(lp847
I3
aI3
aI7
aI4
aI0
aa(lp848
I1
aI3
aI6
aI4
aI1
aa(lp849
I2
aI1
aI4
aI2
aI0
aa(lp850
I1
aI7
aI10
aI3
aI1
aa(lp851
I3
aI6
aI6
aI4
aI1
aa(lp852
I2
aI1
aI4
aI1
aI1
aa(lp853
I0
aI6
aI7
aI4
aI2
aa(lp854
I1
aI2
aI2
aI0
aI0
aa(lp855
I0
aI4
aI4
aI5
aI0
aa(lp856
I2
aI7
aI6
aI8
aI0
aa(lp857
I0
aI2
aI4
aI0
aI0
aa(lp858
I1
aI2
aI5
aI3
aI1
aa(lp859
I4
aI5
aI5
aI3
aI0
aa(lp860
I2
aI5
aI8
aI2
aI0
aa(lp861
I0
aI3
aI2
aI1
aI1
aa(lp862
I1
aI5
aI1
aI3
aI0
aa(lp863
I0
aI7
aI4
aI2
aI1
aa(lp864
I1
aI4
aI6
aI3
aI1
aa(lp865
I2
aI8
aI5
aI1
aI1
aa(lp866
I4
aI10
aI4
aI4
aI0
aa(lp867
I5
aI5
aI10
aI0
aI0
aa(lp868
I1
aI7
aI4
aI0
aI2
aa(lp869
I4
aI7
aI5
aI3
aI0
aa(lp870
I1
aI4
aI6
aI2
aI0
aa(lp871
I2
aI6
aI8
aI5
aI1
aa(lp872
I2
aI7
aI7
aI5
aI1
aa(lp873
I1
aI5
aI6
aI3
aI1
aa(lp874
I5
aI5
aI10
aI6
aI0
aa(lp875
I4
aI7
aI3
aI3
aI0
aa(lp876
I0
aI0
aI1
aI3
aI0
aa(lp877
I0
aI7
aI3
aI9
aI0
aa(lp878
I0
aI4
aI3
aI1
aI1
aa(lp879
I2
aI3
aI7
aI3
aI0
aa(lp880
I4
aI8
aI6
aI2
aI0
aa(lp881
I3
aI4
aI3
aI3
aI0
aa(lp882
I4
aI6
aI5
aI6
aI0
aa(lp883
I3
aI6
aI1
aI3
aI0
aa(lp884
I1
aI3
aI9
aI0
aI0
aa(lp885
I3
aI4
aI4
aI0
aI0
aa(lp886
I0
aI5
aI11
aI4
aI0
aa(lp887
I1
aI13
aI8
aI6
aI0
aa(lp888
I2
aI12
aI4
aI3
aI4
aa(lp889
I1
aI10
aI2
aI4
aI0
aa(lp890
I1
aI8
aI4
aI6
aI1
aa(lp891
I5
aI13
aI12
aI3
aI0
aa(lp892
I5
aI9
aI8
aI4
aI0
aa(lp893
I3
aI12
aI14
aI4
aI0
aa(lp894
I3
aI7
aI4
aI3
aI1
aa(lp895
I3
aI7
aI5
aI3
aI0
aa(lp896
I7
aI5
aI5
aI5
aI0
aa(lp897
I2
aI11
aI6
aI8
aI0
aa(lp898
I3
aI12
aI7
aI4
aI1
aa(lp899
I2
aI6
aI4
aI2
aI0
aa(lp900
I2
aI8
aI12
aI1
aI0
aa(lp901
I8
aI11
aI10
aI7
aI1
aa(lp902
I4
aI14
aI6
aI4
aI1
aa(lp903
I4
aI5
aI7
aI10
aI1
aa(lp904
I5
aI6
aI3
aI2
aI1
aa(lp905
I2
aI14
aI10
aI7
aI2
aa(lp906
I3
aI13
aI10
aI8
aI1
aa(lp907
I6
aI12
aI3
aI5
aI1
aa(lp908
I3
aI12
aI4
aI6
aI2
aa(lp909
I8
aI12
aI16
aI8
aI1
aa(lp910
I2
aI9
aI2
aI6
aI0
aa(lp911
I8
aI6
aI3
aI2
aI0
aa(lp912
I7
aI5
aI7
aI3
aI0
aa(lp913
I10
aI13
aI5
aI8
aI2
aa(lp914
I5
aI8
aI7
aI7
aI1
aa(lp915
I8
aI10
aI10
aI5
aI1
aa(lp916
I3
aI18
aI1
aI5
aI1
aa(lp917
I3
aI8
aI4
aI10
aI0
aa(lp918
I3
aI5
aI5
aI6
aI0
aa(lp919
I6
aI11
aI7
aI8
aI0
aa(lp920
I4
aI6
aI8
aI7
aI0
aa(lp921
I1
aI12
aI6
aI9
aI1
aa(lp922
I4
aI10
aI10
aI12
aI0
aa(lp923
I6
aI9
aI11
aI5
aI0
aa(lp924
I0
aI10
aI3
aI8
aI0
aa(lp925
I6
aI5
aI5
aI6
aI1
aa(lp926
I6
aI13
aI5
aI8
aI0
aa(lp927
I5
aI12
aI7
aI3
aI0
aa(lp928
I3
aI8
aI7
aI5
aI0
aa(lp929
I7
aI12
aI6
aI5
aI1
aa(lp930
I3
aI9
aI11
aI7
aI0
aa(lp931
I3
aI9
aI6
aI7
aI1
aa(lp932
I2
aI4
aI4
aI5
aI2
aa(lp933
I6
aI6
aI6
aI8
aI0
aa(lp934
I1
aI10
aI3
aI6
aI3
aa(lp935
I4
aI13
aI4
aI2
aI0
aa(lp936
I0
aI3
aI4
aI1
aI0
aa(lp937
I3
aI8
aI11
aI3
aI0
aa(lp938
I1
aI7
aI8
aI7
aI0
aa(lp939
I1
aI5
aI4
aI5
aI0
aa(lp940
I7
aI12
aI7
aI2
aI1
aa(lp941
I6
aI7
aI4
aI8
aI1
aa(lp942
I8
aI9
aI7
aI10
aI2
aa(lp943
I1
aI6
aI9
aI4
aI0
aa(lp944
I5
aI9
aI6
aI8
aI0
aa(lp945
I8
aI8
aI9
aI4
aI1
aa(lp946
I4
aI6
aI3
aI4
aI2
aa(lp947
I3
aI7
aI4
aI6
aI0
aa(lp948
I2
aI5
aI10
aI9
aI1
aa(lp949
I3
aI7
aI12
aI6
aI1
aa(lp950
I5
aI9
aI4
aI4
aI0
aa(lp951
I1
aI11
aI7
aI11
aI1
aa(lp952
I5
aI8
aI4
aI8
aI0
aa(lp953
I4
aI7
aI4
aI4
aI0
aa(lp954
I1
aI11
aI6
aI5
aI2
aa(lp955
I0
aI2
aI8
aI4
aI0
aa(lp956
I3
aI8
aI6
aI6
aI1
aa(lp957
I4
aI12
aI7
aI3
aI1
aa(lp958
I3
aI6
aI5
aI5
aI2
aa(lp959
I2
aI9
aI4
aI5
aI0
aa(lp960
I4
aI9
aI7
aI3
aI3
aa(lp961
I2
aI14
aI5
aI1
aI0
aa(lp962
I1
aI12
aI5
aI7
aI1
aa(lp963
I2
aI5
aI13
aI3
aI0
aa(lp964
I4
aI6
aI5
aI2
aI0
aa(lp965
I1
aI8
aI5
aI8
aI1
aa(lp966
I6
aI10
aI5
aI8
aI0
aa(lp967
I2
aI13
aI5
aI4
aI2
aa(lp968
I1
aI8
aI6
aI4
aI1
aa(lp969
I3
aI11
aI7
aI1
aI1
aa(lp970
I2
aI14
aI10
aI8
aI1
aa(lp971
I4
aI7
aI7
aI2
aI0
aa(lp972
I4
aI11
aI4
aI8
aI0
aa(lp973
I2
aI10
aI3
aI7
aI2
aa(lp974
I6
aI8
aI9
aI7
aI1
aa(lp975
I2
aI5
aI3
aI4
aI2
aa(lp976
I7
aI10
aI8
aI8
aI1
aa(lp977
I6
aI10
aI10
aI3
aI0
aa(lp978
I2
aI8
aI2
aI5
aI1
aa(lp979
I1
aI3
aI5
aI3
aI0
aa(lp980
I2
aI11
aI8
aI6
aI0
aa(lp981
I5
aI11
aI3
aI3
aI0
aa(lp982
I0
aI6
aI5
aI2
aI1
aa(lp983
I6
aI9
aI5
aI4
aI0
aa(lp984
I1
aI7
aI1
aI3
aI0
aa(lp985
I2
aI3
aI6
aI4
aI0
aa(lp986
I3
aI7
aI6
aI5
aI0
aa(lp987
I1
aI14
aI2
aI3
aI0
aa(lp988
I4
aI3
aI4
aI4
aI0
aa(lp989
I5
aI9
aI0
aI5
aI2
aa(lp990
I2
aI12
aI9
aI3
aI1
aa(lp991
I1
aI9
aI5
aI6
aI1
aa(lp992
I4
aI5
aI13
aI3
aI0
aa(lp993
I6
aI18
aI3
aI6
aI2
aa(lp994
I4
aI7
aI4
aI4
aI0
aa(lp995
I4
aI4
aI5
aI3
aI0
aa(lp996
I3
aI10
aI6
aI1
aI0
aa(lp997
I2
aI4
aI8
aI3
aI0
aa(lp998
I2
aI5
aI5
aI2
aI0
aa(lp999
I0
aI7
aI9
aI5
aI1
aa(lp1000
I4
aI10
aI10
aI5
aI1
aa(lp1001
I2
aI7
aI3
aI4
aI0
aa(lp1002
I2
aI3
aI2
aI6
aI0
aa(lp1003
I5
aI10
aI10
aI5
aI2
aa(lp1004
I4
aI5
aI7
aI1
aI0
aa(lp1005
I0
aI11
aI7
aI5
aI1
aa(lp1006
I1
aI9
aI7
aI4
aI1
aa(lp1007
I3
aI5
aI5
aI3
aI2
aa(lp1008
I3
aI3
aI4
aI1
aI0
aa(lp1009
I3
aI4
aI3
aI5
aI0
aa(lp1010
I1
aI7
aI5
aI5
aI0
aa(lp1011
I4
aI3
aI9
aI1
aI0
aa(lp1012
I2
aI5
aI6
aI4
aI3
aa(lp1013
I5
aI7
aI9
aI1
aI1
aa(lp1014
I2
aI9
aI8
aI4
aI3
aa(lp1015
I4
aI8
aI6
aI3
aI0
aa(lp1016
I1
aI9
aI1
aI2
aI1
aa(lp1017
I2
aI4
aI7
aI2
aI0
aa(lp1018
I5
aI6
aI5
aI2
aI0
aa(lp1019
I0
aI2
aI5
aI2
aI0
aa(lp1020
I1
aI0
aI3
aI2
aI0
aa(lp1021
I0
aI5
aI0
aI1
aI1
aa(lp1022
I2
aI7
aI2
aI4
aI0
aa(lp1023
I0
aI4
aI5
aI2
aI0
aa(lp1024
I3
aI6
aI5
aI3
aI1
aa(lp1025
I2
aI1
aI5
aI1
aI0
aa(lp1026
I2
aI5
aI5
aI2
aI0
aa(lp1027
I4
aI4
aI3
aI1
aI0
aa(lp1028
I1
aI5
aI10
aI3
aI1
aa(lp1029
I0
aI0
aI3
aI0
aI0
aa(lp1030
I3
aI2
aI3
aI1
aI0
aa(lp1031
I0
aI8
aI1
aI4
aI0
aa(lp1032
I1
aI7
aI6
aI1
aI0
aa(lp1033
I2
aI3
aI5
aI1
aI1
aa(lp1034
I0
aI4
aI8
aI2
aI0
aa(lp1035
I0
aI1
aI3
aI1
aI0
aa(lp1036
I0
aI2
aI4
aI0
aI0
aa(lp1037
I0
aI3
aI3
aI2
aI0
aa(lp1038
I1
aI3
aI6
aI0
aI0
aa(lp1039
I3
aI2
aI5
aI1
aI1
aa(lp1040
I2
aI0
aI7
aI3
aI0
aa(lp1041
I1
aI6
aI8
aI1
aI0
aa(lp1042
I3
aI2
aI2
aI3
aI0
aa(lp1043
I0
aI1
aI0
aI0
aI0
aa(lp1044
I0
aI2
aI0
aI1
aI0
aa(lp1045
I3
aI2
aI6
aI0
aI0
aa(lp1046
I1
aI2
aI4
aI0
aI0
aa(lp1047
I2
aI1
aI2
aI1
aI0
aa(lp1048
I0
aI2
aI4
aI0
aI0
aa(lp1049
I1
aI3
aI4
aI2
aI0
aa(lp1050
I1
aI0
aI3
aI1
aI0
aa(lp1051
I1
aI4
aI0
aI1
aI0
aa(lp1052
I1
aI2
aI3
aI0
aI0
aa(lp1053
I1
aI5
aI1
aI5
aI0
aa(lp1054
I0
aI4
aI3
aI1
aI0
aa(lp1055
I1
aI5
aI3
aI1
aI0
aa(lp1056
I1
aI4
aI3
aI1
aI2
aa(lp1057
I0
aI1
aI2
aI0
aI0
aa(lp1058
I0
aI3
aI2
aI0
aI0
aa(lp1059
I0
aI1
aI3
aI1
aI0
aa(lp1060
I1
aI3
aI6
aI0
aI0
aa(lp1061
I0
aI3
aI6
aI0
aI1
aa(lp1062
I0
aI3
aI2
aI1
aI0
aa(lp1063
I0
aI2
aI2
aI0
aI0
aa(lp1064
I1
aI2
aI0
aI1
aI0
aa(lp1065
I0
aI0
aI1
aI1
aI0
aa(lp1066
I0
aI2
aI1
aI0
aI0
aa(lp1067
I0
aI3
aI1
aI0
aI0
aa(lp1068
I1
aI2
aI3
aI0
aI0
aa(lp1069
I1
aI5
aI6
aI0
aI0
aa(lp1070
I0
aI1
aI6
aI1
aI0
aa(lp1071
I0
aI1
aI2
aI1
aI1
aa(lp1072
I0
aI0
aI0
aI2
aI1
aa(lp1073
I1
aI0
aI1
aI0
aI0
aa(lp1074
I3
aI2
aI3
aI3
aI1
aa(lp1075
I0
aI1
aI5
aI0
aI0
aa(lp1076
I0
aI4
aI6
aI1
aI0
aa(lp1077
I0
aI3
aI4
aI2
aI0
aa(lp1078
I0
aI4
aI2
aI2
aI0
aa(lp1079
I0
aI2
aI4
aI1
aI0
aa(lp1080
I0
aI1
aI2
aI0
aI0
aa(lp1081
I1
aI5
aI1
aI0
aI0
aa(lp1082
I2
aI3
aI3
aI1
aI0
aa(lp1083
I0
aI1
aI5
aI1
aI0
aa(lp1084
I0
aI2
aI4
aI0
aI0
aa(lp1085
I1
aI3
aI1
aI0
aI0
aa(lp1086
I0
aI3
aI0
aI2
aI0
aa(lp1087
I0
aI4
aI3
aI0
aI0
aa(lp1088
I0
aI2
aI3
aI0
aI0
aa(lp1089
I0
aI3
aI0
aI3
aI1
aa(lp1090
I0
aI1
aI2
aI0
aI0
aa(lp1091
I2
aI1
aI1
aI0
aI0
aa(lp1092
I1
aI0
aI3
aI0
aI0
aa(lp1093
I0
aI1
aI0
aI0
aI0
aa(lp1094
I0
aI2
aI5
aI0
aI1
aa(lp1095
I0
aI0
aI4
aI0
aI0
aa(lp1096
I0
aI0
aI1
aI0
aI0
aa(lp1097
I0
aI0
aI0
aI0
aI0
aa(lp1098
I0
aI2
aI1
aI2
aI1
aa(lp1099
I2
aI2
aI0
aI0
aI0
aa(lp1100
I1
aI1
aI2
aI1
aI0
aa(lp1101
I0
aI1
aI2
aI3
aI0
aa(lp1102
I0
aI3
aI5
aI1
aI0
aa(lp1103
I0
aI1
aI6
aI1
aI0
aa(lp1104
I0
aI0
aI7
aI3
aI0
aa(lp1105
I1
aI1
aI1
aI0
aI0
aa(lp1106
I1
aI3
aI2
aI0
aI0
aa(lp1107
I0
aI2
aI0
aI1
aI0
aa(lp1108
I0
aI2
aI5
aI0
aI1
aa(lp1109
I1
aI2
aI3
aI1
aI0
aa(lp1110
I0
aI4
aI3
aI0
aI0
aa(lp1111
I0
aI5
aI6
aI1
aI0
aa(lp1112
I0
aI1
aI1
aI0
aI0
aa(lp1113
I0
aI0
aI3
aI1
aI0
aa(lp1114
I0
aI2
aI1
aI0
aI0
aa(lp1115
I0
aI1
aI3
aI0
aI0
aa(lp1116
I0
aI1
aI6
aI1
aI0
aa(lp1117
I2
aI2
aI2
aI1
aI0
aa(lp1118
I0
aI5
aI3
aI1
aI0
aa(lp1119
I2
aI1
aI4
aI0
aI0
aa(lp1120
I0
aI2
aI2
aI6
aI0
aa(lp1121
I1
aI5
aI1
aI0
aI0
aa(lp1122
I0
aI3
aI3
aI1
aI0
aa(lp1123
I0
aI2
aI1
aI1
aI0
aa(lp1124
I0
aI1
aI3
aI1
aI0
aa(lp1125
I2
aI3
aI2
aI1
aI0
aa(lp1126
I0
aI2
aI3
aI1
aI0
aa(lp1127
I1
aI3
aI3
aI0
aI0
aa(lp1128
I0
aI3
aI0
aI1
aI0
aa(lp1129
I2
aI1
aI0
aI0
aI0
aa(lp1130
I1
aI2
aI2
aI1
aI0
aa(lp1131
I1
aI1
aI1
aI1
aI0
aa(lp1132
I0
aI1
aI1
aI2
aI0
aa(lp1133
I0
aI3
aI2
aI1
aI0
aa(lp1134
I1
aI5
aI2
aI0
aI0
aa(lp1135
I0
aI1
aI1
aI2
aI0
aa(lp1136
I1
aI3
aI2
aI1
aI1
aa(lp1137
I1
aI1
aI4
aI4
aI1
aa(lp1138
I0
aI4
aI4
aI0
aI0
aa(lp1139
I0
aI3
aI3
aI0
aI0
aa(lp1140
I0
aI1
aI2
aI1
aI1
aa(lp1141
I0
aI0
aI1
aI0
aI0
aa(lp1142
I0
aI2
aI2
aI1
aI0
aa(lp1143
I1
aI4
aI2
aI0
aI0
aa(lp1144
I1
aI4
aI5
aI0
aI0
aa(lp1145
I1
aI3
aI1
aI2
aI2
aa(lp1146
I1
aI3
aI3
aI1
aI0
aa(lp1147
I1
aI6
aI7
aI2
aI0
aa(lp1148
I2
aI2
aI3
aI1
aI0
aa(lp1149
I0
aI1
aI1
aI2
aI0
aa(lp1150
I0
aI0
aI1
aI0
aI0
aa(lp1151
I0
aI5
aI2
aI1
aI0
aa(lp1152
I1
aI2
aI0
aI0
aI0
aa(lp1153
I0
aI0
aI5
aI2
aI0
aa(lp1154
I1
aI1
aI7
aI3
aI0
aa(lp1155
I0
aI2
aI0
aI3
aI0
aa(lp1156
I0
aI1
aI2
aI3
aI0
aa(lp1157
I3
aI0
aI0
aI0
aI0
aa(lp1158
I1
aI3
aI1
aI0
aI0
aa(lp1159
I0
aI1
aI6
aI1
aI0
aa(lp1160
I0
aI0
aI7
aI4
aI0
aa(lp1161
I0
aI1
aI4
aI0
aI0
aa(lp1162
I2
aI1
aI2
aI1
aI0
aa(lp1163
I0
aI2
aI0
aI1
aI0
aa(lp1164
I0
aI1
aI2
aI0
aI0
aa(lp1165
I1
aI4
aI4
aI2
aI0
aa(lp1166
I1
aI1
aI3
aI0
aI0
aa(lp1167
I2
aI1
aI8
aI1
aI0
aa(lp1168
I2
aI0
aI6
aI1
aI0
aa(lp1169
I0
aI1
aI2
aI0
aI0
aa(lp1170
I0
aI2
aI1
aI0
aI0
aa(lp1171
I0
aI0
aI5
aI1
aI0
aa(lp1172
I1
aI5
aI5
aI0
aI0
aa(lp1173
I0
aI2
aI1
aI0
aI0
aa(lp1174
I0
aI1
aI1
aI0
aI0
aa(lp1175
I1
aI0
aI5
aI0
aI0
aa(lp1176
I0
aI1
aI1
aI1
aI0
aa(lp1177
I0
aI2
aI0
aI2
aI0
aa(lp1178
I0
aI2
aI2
aI2
aI0
aa(lp1179
I0
aI1
aI5
aI0
aI0
aa(lp1180
I1
aI3
aI7
aI1
aI0
aa(lp1181
I3
aI2
aI4
aI4
aI1
aa(lp1182
I1
aI3
aI4
aI1
aI0
aa(lp1183
I3
aI7
aI4
aI1
aI2
aa(lp1184
I2
aI5
aI0
aI4
aI1
aa(lp1185
I1
aI2
aI1
aI2
aI1
aa(lp1186
I2
aI5
aI4
aI3
aI0
aa(lp1187
I2
aI6
aI9
aI1
aI0
aa(lp1188
I2
aI1
aI7
aI3
aI0
aa(lp1189
I3
aI6
aI3
aI2
aI0
aa(lp1190
I0
aI2
aI4
aI1
aI0
aa(lp1191
I0
aI2
aI1
aI1
aI0
aa(lp1192
I1
aI6
aI6
aI2
aI0
aa(lp1193
I2
aI3
aI6
aI4
aI0
aa(lp1194
I2
aI5
aI5
aI3
aI0
aa(lp1195
I0
aI3
aI8
aI2
aI0
aa(lp1196
I3
aI4
aI2
aI5
aI1
aa(lp1197
I2
aI4
aI1
aI2
aI1
aa(lp1198
I0
aI5
aI2
aI1
aI0
aa(lp1199
I2
aI5
aI5
aI3
aI0
aa(lp1200
I0
aI2
aI9
aI2
aI0
aa(lp1201
I0
aI5
aI4
aI0
aI0
aa(lp1202
I2
aI2
aI6
aI1
aI0
aa(lp1203
I1
aI2
aI2
aI1
aI1
aa(lp1204
I3
aI6
aI6
aI1
aI0
aa(lp1205
I0
aI1
aI1
aI0
aI0
aa(lp1206
I0
aI5
aI7
aI3
aI0
aa(lp1207
I1
aI6
aI6
aI2
aI1
aa(lp1208
I3
aI4
aI5
aI2
aI1
aa(lp1209
I0
aI4
aI3
aI1
aI0
aa(lp1210
I2
aI3
aI7
aI1
aI1
aa(lp1211
I5
aI5
aI3
aI2
aI0
aa(lp1212
I0
aI1
aI4
aI1
aI0
aa(lp1213
I3
aI2
aI3
aI2
aI1
aa(lp1214
I5
aI4
aI6
aI4
aI0
aa(lp1215
I2
aI4
aI5
aI5
aI0
aa(lp1216
I1
aI3
aI6
aI4
aI1
aa(lp1217
I1
aI3
aI3
aI3
aI0
aa(lp1218
I2
aI2
aI1
aI2
aI0
aa(lp1219
I1
aI4
aI2
aI2
aI1
aa(lp1220
I1
aI2
aI2
aI1
aI0
aa(lp1221
I0
aI1
aI8
aI3
aI1
aa(lp1222
I0
aI3
aI4
aI0
aI0
aa(lp1223
I3
aI5
aI8
aI4
aI0
aa(lp1224
I2
aI4
aI5
aI2
aI0
aa(lp1225
I0
aI1
aI0
aI2
aI0
aa(lp1226
I1
aI0
aI0
aI1
aI0
aa(lp1227
I3
aI0
aI7
aI1
aI0
aa(lp1228
I3
aI8
aI2
aI6
aI2
aa(lp1229
I0
aI4
aI5
aI3
aI0
aa(lp1230
I0
aI4
aI7
aI0
aI0
aa(lp1231
I4
aI5
aI4
aI4
aI2
aa(lp1232
I2
aI6
aI0
aI4
aI1
aa(lp1233
I3
aI3
aI2
aI3
aI0
aa(lp1234
I2
aI8
aI6
aI4
aI0
aa(lp1235
I3
aI7
aI5
aI1
aI2
aa(lp1236
I3
aI5
aI9
aI2
aI0
aa(lp1237
I1
aI3
aI5
aI3
aI0
aa(lp1238
I2
aI5
aI11
aI5
aI1
aa(lp1239
I0
aI9
aI1
aI6
aI1
aa(lp1240
I4
aI8
aI2
aI2
aI0
aa(lp1241
I1
aI7
aI0
aI3
aI1
aa(lp1242
I5
aI3
aI7
aI3
aI0
aa(lp1243
I2
aI6
aI6
aI2
aI0
aa(lp1244
I2
aI9
aI4
aI4
aI0
aa(lp1245
I0
aI6
aI3
aI8
aI0
aa(lp1246
I2
aI6
aI1
aI6
aI0
aa(lp1247
I3
aI4
aI3
aI8
aI0
aa(lp1248
I3
aI6
aI6
aI4
aI1
aa(lp1249
I4
aI7
aI6
aI1
aI1
aa(lp1250
I1
aI6
aI5
aI3
aI0
aa(lp1251
I0
aI6
aI4
aI3
aI2
aa(lp1252
I5
aI8
aI5
aI6
aI0
aa(lp1253
I3
aI8
aI4
aI2
aI0
aa(lp1254
I0
aI7
aI2
aI3
aI1
aa(lp1255
I2
aI5
aI6
aI4
aI0
aa(lp1256
I3
aI4
aI3
aI6
aI0
aa(lp1257
I2
aI17
aI8
aI3
aI0
aa(lp1258
I1
aI5
aI1
aI6
aI1
aa(lp1259
I1
aI2
aI7
aI2
aI0
aa(lp1260
I0
aI3
aI4
aI4
aI0
aa(lp1261
I1
aI0
aI2
aI1
aI0
aa(lp1262
I2
aI4
aI2
aI2
aI1
aa(lp1263
I2
aI9
aI1
aI4
aI0
aa(lp1264
I3
aI5
aI12
aI1
aI0
aa(lp1265
I2
aI6
aI8
aI5
aI0
aa(lp1266
I7
aI9
aI7
aI7
aI1
aa(lp1267
I4
aI6
aI1
aI7
aI0
aa(lp1268
I4
aI9
aI4
aI4
aI0
aa(lp1269
I2
aI5
aI8
aI4
aI1
aa(lp1270
I3
aI3
aI3
aI1
aI0
aa(lp1271
I0
aI7
aI9
aI6
aI2
aa(lp1272
I4
aI13
aI8
aI4
aI1
aa(lp1273
I4
aI5
aI10
aI9
aI2
aa(lp1274
I8
aI11
aI2
aI5
aI0
aa(lp1275
I3
aI8
aI4
aI3
aI1
aa(lp1276
I2
aI6
aI9
aI2
aI0
aa(lp1277
I5
aI9
aI7
aI4
aI0
aa(lp1278
I3
aI12
aI9
aI7
aI1
aa(lp1279
I3
aI9
aI7
aI4
aI0
aa(lp1280
I4
aI16
aI2
aI4
aI0
aa(lp1281
I2
aI6
aI1
aI2
aI1
aa(lp1282
I1
aI3
aI4
aI4
aI0
aa(lp1283
I3
aI10
aI7
aI3
aI0
aa(lp1284
I1
aI6
aI5
aI2
aI0
aa(lp1285
I0
aI6
aI3
aI2
aI1
aa(lp1286
I5
aI15
aI4
aI6
aI0
aa(lp1287
I6
aI14
aI4
aI7
aI0
aa(lp1288
I2
aI12
aI3
aI2
aI1
aa(lp1289
I3
aI3
aI1
aI1
aI1
aa(lp1290
I4
aI5
aI4
aI3
aI0
aa(lp1291
I4
aI9
aI4
aI8
aI0
aa(lp1292
I1
aI9
aI6
aI7
aI0
aa(lp1293
I2
aI6
aI7
aI5
aI0
aa(lp1294
I3
aI6
aI5
aI9
aI1
aa(lp1295
I2
aI6
aI2
aI3
aI1
aa(lp1296
I6
aI6
aI0
aI4
aI0
aa(lp1297
I3
aI6
aI4
aI1
aI0
aa(lp1298
I2
aI8
aI6
aI5
aI0
aa(lp1299
I0
aI6
aI10
aI10
aI0
aa(lp1300
I5
aI12
aI6
aI2
aI0
aa(lp1301
I5
aI7
aI6
aI7
aI0
aa(lp1302
I2
aI8
aI4
aI4
aI3
aa(lp1303
I1
aI6
aI2
aI4
aI1
aa(lp1304
I2
aI11
aI7
aI3
aI0
aa(lp1305
I6
aI4
aI5
aI3
aI2
aa(lp1306
I4
aI8
aI9
aI4
aI0
aa(lp1307
I5
aI11
aI6
aI3
aI2
aa(lp1308
I2
aI7
aI2
aI1
aI0
aa(lp1309
I2
aI3
aI5
aI5
aI0
aa(lp1310
I1
aI9
aI4
aI4
aI1
aa(lp1311
I3
aI9
aI4
aI3
aI1
aa(lp1312
I2
aI4
aI6
aI3
aI1
aa(lp1313
I3
aI7
aI5
aI5
aI0
aa(lp1314
I3
aI6
aI11
aI6
aI1
aa(lp1315
I2
aI12
aI5
aI9
aI1
aa(lp1316
I3
aI11
aI3
aI3
aI0
aa(lp1317
I3
aI5
aI5
aI6
aI0
aa(lp1318
I1
aI8
aI8
aI6
aI0
aa(lp1319
I6
aI10
aI5
aI7
aI1
aa(lp1320
I2
aI9
aI7
aI8
aI1
aa(lp1321
I2
aI13
aI12
aI3
aI2
aa(lp1322
I2
aI9
aI9
aI3
aI2
aa(lp1323
I3
aI8
aI6
aI3
aI2
aa(lp1324
I1
aI7
aI1
aI2
aI1
aa(lp1325
I0
aI7
aI2
aI2
aI0
aa(lp1326
I5
aI8
aI9
aI3
aI1
aa(lp1327
I8
aI12
aI10
aI3
aI2
aa(lp1328
I4
aI10
aI5
aI5
aI2
aa(lp1329
I4
aI10
aI7
aI7
aI1
aa(lp1330
I2
aI13
aI4
aI1
aI0
aa(lp1331
I3
aI3
aI0
aI1
aI0
aa(lp1332
I5
aI12
aI8
aI7
aI0
aa(lp1333
I2
aI5
aI5
aI4
aI0
aa(lp1334
I3
aI4
aI7
aI3
aI2
aa(lp1335
I3
aI8
aI5
aI5
aI1
aa(lp1336
I4
aI13
aI9
aI7
aI0
aa(lp1337
I5
aI8
aI4
aI7
aI0
aa(lp1338
I2
aI6
aI7
aI3
aI0
aa(lp1339
I2
aI14
aI3
aI3
aI1
aa(lp1340
I3
aI8
aI10
aI6
aI0
aa(lp1341
I6
aI6
aI10
aI6
aI0
aa(lp1342
I3
aI10
aI6
aI3
aI0
aa(lp1343
I4
aI6
aI6
aI3
aI0
aa(lp1344
I5
aI13
aI4
aI2
aI0
aa(lp1345
I2
aI7
aI1
aI4
aI1
aa(lp1346
I1
aI3
aI0
aI5
aI0
aa(lp1347
I1
aI14
aI12
aI1
aI0
aa(lp1348
I0
aI10
aI4
aI1
aI1
aa(lp1349
I4
aI3
aI2
aI3
aI0
aa(lp1350
I1
aI3
aI5
aI4
aI1
aa(lp1351
I0
aI7
aI3
aI10
aI0
aa(lp1352
I1
aI9
aI0
aI5
aI1
aa(lp1353
I2
aI4
aI4
aI6
aI1
aa(lp1354
I1
aI4
aI3
aI2
aI1
aa(lp1355
I1
aI2
aI9
aI3
aI2
aa(lp1356
I3
aI3
aI4
aI4
aI0
aa(lp1357
I2
aI4
aI8
aI5
aI0
aa(lp1358
I4
aI11
aI0
aI3
aI1
aa(lp1359
I1
aI6
aI4
aI6
aI0
aa(lp1360
I0
aI6
aI7
aI8
aI3
aa(lp1361
I3
aI3
aI5
aI1
aI0
aa(lp1362
I3
aI6
aI2
aI3
aI0
aa(lp1363
I3
aI6
aI1
aI0
aI0
aa(lp1364
I0
aI4
aI3
aI3
aI0
aa(lp1365
I2
aI8
aI4
aI6
aI1
aa(lp1366
I1
aI9
aI5
aI6
aI1
aa(lp1367
I4
aI8
aI4
aI0
aI1
aa(lp1368
I2
aI4
aI7
aI1
aI1
aa(lp1369
I4
aI11
aI3
aI2
aI0
aa(lp1370
I1
aI6
aI6
aI9
aI1
aa(lp1371
I2
aI4
aI8
aI6
aI0
aa(lp1372
I1
aI4
aI4
aI3
aI0
aa(lp1373
I0
aI5
aI3
aI3
aI0
aa(lp1374
I2
aI7
aI5
aI2
aI0
aa(lp1375
I1
aI3
aI1
aI3
aI0
aa(lp1376
I0
aI4
aI2
aI2
aI0
aa(lp1377
I4
aI4
aI4
aI2
aI0
aa(lp1378
I0
aI2
aI10
aI3
aI1
aa(lp1379
I1
aI4
aI0
aI4
aI0
aa(lp1380
I2
aI3
aI3
aI3
aI0
aa(lp1381
I2
aI4
aI5
aI0
aI0
aa(lp1382
I0
aI2
aI3
aI0
aI0
aa(lp1383
I0
aI7
aI2
aI3
aI0
aa(lp1384
I1
aI2
aI3
aI1
aI0
aa(lp1385
I3
aI7
aI2
aI4
aI0
aa(lp1386
I1
aI6
aI2
aI1
aI0
aa(lp1387
I3
aI3
aI4
aI2
aI0
aa(lp1388
I3
aI6
aI4
aI2
aI0
aa(lp1389
I0
aI7
aI5
aI5
aI0
aa(lp1390
I2
aI4
aI1
aI0
aI1
aa(lp1391
I0
aI2
aI3
aI3
aI0
aa(lp1392
I6
aI9
aI7
aI0
aI1
aa(lp1393
I3
aI7
aI3
aI3
aI1
aa(lp1394
I0
aI4
aI2
aI1
aI0
aa(lp1395
I0
aI2
aI5
aI2
aI0
aa(lp1396
I4
aI3
aI1
aI0
aI0
aa(lp1397
I2
aI2
aI3
aI2
aI1
aa(lp1398
I2
aI3
aI0
aI2
aI1
aa(lp1399
I0
aI5
aI0
aI3
aI0
aa(lp1400
I1
aI6
aI4
aI2
aI1
aa(lp1401
I1
aI2
aI0
aI1
aI0
aa(lp1402
I2
aI5
aI2
aI2
aI1
aa(lp1403
I0
aI4
aI9
aI1
aI0
aa(lp1404
I0
aI3
aI3
aI2
aI0
aa(lp1405
I1
aI4
aI8
aI1
aI0
aa(lp1406
I0
aI3
aI3
aI1
aI0
aa(lp1407
I1
aI3
aI0
aI0
aI0
aa(lp1408
I2
aI1
aI2
aI2
aI0
aa(lp1409
I1
aI3
aI5
aI0
aI0
aa(lp1410
I0
aI3
aI5
aI3
aI0
aa(lp1411
I1
aI5
aI1
aI1
aI0
aa(lp1412
I2
aI3
aI4
aI1
aI1
aa(lp1413
I0
aI4
aI3
aI2
aI0
aa(lp1414
I0
aI0
aI0
aI4
aI0
aa(lp1415
I0
aI5
aI3
aI1
aI0
aa(lp1416
I1
aI2
aI4
aI1
aI0
aa(lp1417
I1
aI1
aI3
aI0
aI0
aa(lp1418
I1
aI1
aI4
aI2
aI0
aa(lp1419
I1
aI5
aI3
aI1
aI0
aa(lp1420
I2
aI2
aI6
aI0
aI0
aa(lp1421
I1
aI2
aI0
aI2
aI0
aa(lp1422
I0
aI0
aI1
aI1
aI0
aa(lp1423
I1
aI2
aI5
aI3
aI0
aa(lp1424
I3
aI3
aI2
aI1
aI0
aa(lp1425
I0
aI5
aI5
aI4
aI0
aa(lp1426
I1
aI2
aI1
aI2
aI0
aa(lp1427
I1
aI5
aI1
aI0
aI0
aa(lp1428
I0
aI1
aI3
aI1
aI0
aa(lp1429
I1
aI2
aI3
aI0
aI1
aa(lp1430
I0
aI5
aI1
aI0
aI0
aa(lp1431
I2
aI2
aI7
aI1
aI0
aa(lp1432
I1
aI6
aI5
aI0
aI0
aa(lp1433
I1
aI3
aI8
aI5
aI0
aa(lp1434
I0
aI3
aI6
aI2
aI0
aa(lp1435
I0
aI2
aI1
aI2
aI0
aa(lp1436
I0
aI3
aI2
aI0
aI0
aa(lp1437
I2
aI4
aI4
aI2
aI0
aa(lp1438
I1
aI1
aI3
aI1
aI0
aa(lp1439
I0
aI5
aI5
aI3
aI0
aa(lp1440
I0
aI2
aI4
aI1
aI0
aa(lp1441
I1
aI4
aI5
aI0
aI1
aa(lp1442
I0
aI3
aI4
aI1
aI0
aa(lp1443
I0
aI5
aI3
aI1
aI0
aa(lp1444
I0
aI5
aI3
aI2
aI0
aa(lp1445
I1
aI1
aI5
aI2
aI0
aa(lp1446
I0
aI3
aI2
aI0
aI0
aa(lp1447
I1
aI1
aI5
aI1
aI0
aa(lp1448
I1
aI9
aI3
aI0
aI0
aa(lp1449
I1
aI3
aI1
aI0
aI0
aa(lp1450
I0
aI1
aI1
aI0
aI0
aa(lp1451
I1
aI3
aI4
aI0
aI0
aa(lp1452
I2
aI2
aI3
aI0
aI0
aa(lp1453
I0
aI0
aI2
aI0
aI0
aa(lp1454
I0
aI0
aI2
aI0
aI0
aa(lp1455
I0
aI2
aI1
aI0
aI0
aa(lp1456
I0
aI2
aI1
aI0
aI0
aa(lp1457
I1
aI2
aI1
aI1
aI0
aa(lp1458
I1
aI1
aI3
aI0
aI0
aa(lp1459
I0
aI1
aI5
aI0
aI0
aa(lp1460
I1
aI0
aI5
aI0
aI0
aa(lp1461
I1
aI2
aI1
aI0
aI0
aa(lp1462
I0
aI0
aI1
aI0
aI0
aa(lp1463
I0
aI2
aI2
aI0
aI0
aa(lp1464
I0
aI0
aI2
aI0
aI0
aa(lp1465
I0
aI2
aI1
aI1
aI0
aa(lp1466
I0
aI0
aI1
aI1
aI1
aa(lp1467
I0
aI0
aI1
aI0
aI0
aa(lp1468
I2
aI3
aI2
aI1
aI0
aa(lp1469
I0
aI1
aI3
aI1
aI0
aa(lp1470
I0
aI1
aI0
aI1
aI0
aa(lp1471
I0
aI1
aI3
aI1
aI0
aa(lp1472
I1
aI0
aI1
aI0
aI0
aa(lp1473
I0
aI2
aI1
aI1
aI0
aa(lp1474
I0
aI0
aI8
aI1
aI0
aa(lp1475
I0
aI2
aI2
aI0
aI0
aa(lp1476
I0
aI1
aI1
aI0
aI0
aa(lp1477
I0
aI0
aI0
aI0
aI0
aa(lp1478
I0
aI1
aI0
aI2
aI1
aa(lp1479
I0
aI1
aI0
aI2
aI0
aa(lp1480
I0
aI0
aI2
aI0
aI0
aa(lp1481
I1
aI0
aI2
aI0
aI0
aa(lp1482
I2
aI0
aI3
aI1
aI0
aa(lp1483
I1
aI1
aI2
aI2
aI0
aa(lp1484
I0
aI0
aI1
aI0
aI0
aa(lp1485
I0
aI0
aI1
aI0
aI0
aa(lp1486
I0
aI2
aI2
aI3
aI0
aa(lp1487
I0
aI1
aI2
aI0
aI0
aa(lp1488
I0
aI4
aI8
aI1
aI0
aa(lp1489
I1
aI4
aI6
aI1
aI0
aa(lp1490
I1
aI1
aI2
aI3
aI0
aa(lp1491
I0
aI0
aI1
aI1
aI0
aa(lp1492
I0
aI0
aI1
aI0
aI0
aa(lp1493
I1
aI4
aI6
aI2
aI0
aa(lp1494
I1
aI0
aI0
aI0
aI0
aa(lp1495
I1
aI0
aI2
aI0
aI0
aa(lp1496
I0
aI1
aI4
aI0
aI0
aa(lp1497
I0
aI1
aI4
aI1
aI0
aa(lp1498
I0
aI1
aI1
aI1
aI0
aa(lp1499
I0
aI1
aI4
aI1
aI0
aa(lp1500
I0
aI0
aI3
aI2
aI0
aa(lp1501
I3
aI2
aI5
aI2
aI0
aa(lp1502
I0
aI4
aI2
aI0
aI1
aa(lp1503
I0
aI3
aI2
aI1
aI1
aa(lp1504
I1
aI2
aI5
aI2
aI0
aa(lp1505
I0
aI2
aI3
aI0
aI0
aa(lp1506
I0
aI2
aI2
aI0
aI0
aa(lp1507
I0
aI2
aI1
aI0
aI0
aa(lp1508
I1
aI1
aI0
aI2
aI0
aa(lp1509
I0
aI3
aI2
aI0
aI1
aa(lp1510
I0
aI2
aI3
aI0
aI0
aa(lp1511
I1
aI0
aI1
aI0
aI0
aa(lp1512
I0
aI3
aI2
aI0
aI0
aa(lp1513
I0
aI3
aI1
aI1
aI0
aa(lp1514
I0
aI1
aI2
aI0
aI0
aa(lp1515
I0
aI3
aI4
aI0
aI0
aa(lp1516
I0
aI1
aI0
aI0
aI0
aa(lp1517
I0
aI2
aI8
aI1
aI0
aa(lp1518
I0
aI3
aI2
aI2
aI0
aa(lp1519
I1
aI1
aI0
aI1
aI0
aa(lp1520
I0
aI1
aI1
aI0
aI0
aa(lp1521
I1
aI3
aI5
aI2
aI0
aa(lp1522
I0
aI1
aI5
aI2
aI0
aa(lp1523
I1
aI3
aI3
aI1
aI0
aa(lp1524
I1
aI1
aI5
aI0
aI0
aa(lp1525
I0
aI3
aI2
aI0
aI0
aa(lp1526
I0
aI2
aI3
aI2
aI0
aa(lp1527
I0
aI2
aI0
aI0
aI0
aa(lp1528
I0
aI0
aI5
aI1
aI0
aa(lp1529
I2
aI3
aI2
aI0
aI0
aa(lp1530
I0
aI0
aI3
aI2
aI0
aa(lp1531
I0
aI2
aI3
aI2
aI0
aa(lp1532
I0
aI0
aI3
aI0
aI0
aa(lp1533
I0
aI1
aI3
aI0
aI0
aa(lp1534
I0
aI1
aI1
aI1
aI1
aa(lp1535
I0
aI1
aI0
aI2
aI0
aa(lp1536
I1
aI1
aI5
aI0
aI0
aa(lp1537
I2
aI1
aI5
aI1
aI0
aa(lp1538
I4
aI0
aI3
aI3
aI0
aa(lp1539
I0
aI5
aI7
aI4
aI0
aa(lp1540
I0
aI1
aI1
aI3
aI0
aa(lp1541
I1
aI1
aI2
aI0
aI0
aa(lp1542
I0
aI3
aI3
aI0
aI0
aa(lp1543
I3
aI2
aI3
aI1
aI0
aa(lp1544
I1
aI5
aI5
aI1
aI0
aa(lp1545
I0
aI4
aI9
aI3
aI1
aa(lp1546
I1
aI3
aI1
aI0
aI0
aa(lp1547
I1
aI1
aI2
aI1
aI0
aa(lp1548
I0
aI2
aI1
aI2
aI0
aa(lp1549
I0
aI3
aI3
aI2
aI0
aa(lp1550
I1
aI4
aI10
aI1
aI0
aa(lp1551
I0
aI1
aI8
aI1
aI1
aa(lp1552
I2
aI2
aI4
aI1
aI0
aa(lp1553
I1
aI1
aI0
aI5
aI1
aa(lp1554
I0
aI1
aI0
aI0
aI0
aa(lp1555
I0
aI3
aI0
aI1
aI0
aa(lp1556
I1
aI4
aI9
aI1
aI0
aa(lp1557
I1
aI5
aI5
aI1
aI1
aa(lp1558
I1
aI4
aI7
aI6
aI2
aa(lp1559
I2
aI4
aI3
aI2
aI0
aa(lp1560
I1
aI1
aI5
aI2
aI0
aa(lp1561
I1
aI5
aI5
aI1
aI2
aa(lp1562
I0
aI1
aI2
aI1
aI1
aa(lp1563
I0
aI3
aI8
aI1
aI1
aa(lp1564
I1
aI1
aI8
aI3
aI0
aa(lp1565
I2
aI3
aI4
aI2
aI0
aa(lp1566
I1
aI3
aI4
aI2
aI1
aa(lp1567
I0
aI4
aI2
aI2
aI0
aa(lp1568
I2
aI1
aI2
aI2
aI0
aa(lp1569
I0
aI3
aI0
aI3
aI0
aa(lp1570
I0
aI0
aI4
aI1
aI0
aa(lp1571
I0
aI0
aI2
aI1
aI0
aa(lp1572
I0
aI5
aI8
aI2
aI1
aa(lp1573
I1
aI2
aI9
aI2
aI0
aa(lp1574
I1
aI2
aI1
aI0
aI0
aa(lp1575
I3
aI4
aI3
aI0
aI0
aa(lp1576
I1
aI4
aI3
aI2
aI0
aa(lp1577
I2
aI7
aI2
aI4
aI1
aa(lp1578
I2
aI3
aI8
aI2
aI0
aa(lp1579
I1
aI4
aI3
aI2
aI0
aa(lp1580
I3
aI5
aI5
aI1
aI0
aa(lp1581
I2
aI4
aI7
aI3
aI0
aa(lp1582
I0
aI7
aI2
aI4
aI2
aa(lp1583
I4
aI1
aI1
aI6
aI0
aa(lp1584
I0
aI8
aI2
aI0
aI0
aa(lp1585
I2
aI2
aI4
aI1
aI0
aa(lp1586
I4
aI2
aI5
aI3
aI1
aa(lp1587
I1
aI3
aI7
aI1
aI0
aa(lp1588
I0
aI4
aI4
aI2
aI2
aa(lp1589
I3
aI3
aI1
aI1
aI2
aa(lp1590
I1
aI4
aI0
aI3
aI0
aa(lp1591
I1
aI8
aI10
aI2
aI0
aa(lp1592
I1
aI5
aI3
aI5
aI0
aa(lp1593
I1
aI9
aI7
aI3
aI0
aa(lp1594
I2
aI4
aI1
aI2
aI0
aa(lp1595
I2
aI5
aI8
aI3
aI0
aa(lp1596
I0
aI7
aI1
aI1
aI1
aa(lp1597
I2
aI5
aI3
aI3
aI3
aa(lp1598
I2
aI5
aI8
aI4
aI0
aa(lp1599
I1
aI1
aI3
aI1
aI0
aa(lp1600
I1
aI4
aI2
aI3
aI0
aa(lp1601
I2
aI11
aI1
aI8
aI0
aa(lp1602
I3
aI10
aI6
aI4
aI1
aa(lp1603
I1
aI2
aI3
aI9
aI0
aa(lp1604
I0
aI2
aI3
aI2
aI0
aa(lp1605
I1
aI7
aI2
aI1
aI1
aa(lp1606
I2
aI7
aI5
aI2
aI0
aa(lp1607
I2
aI9
aI5
aI4
aI1
aa(lp1608
I1
aI6
aI3
aI3
aI0
aa(lp1609
I4
aI6
aI8
aI2
aI1
aa(lp1610
I5
aI7
aI5
aI6
aI0
aa(lp1611
I3
aI4
aI5
aI6
aI0
aa(lp1612
I2
aI15
aI4
aI7
aI1
aa(lp1613
I1
aI7
aI5
aI4
aI0
aa(lp1614
I3
aI4
aI7
aI5
aI0
aa(lp1615
I2
aI12
aI4
aI0
aI1
aa(lp1616
I0
aI10
aI11
aI4
aI2
aa(lp1617
I1
aI9
aI5
aI4
aI1
aa(lp1618
I0
aI5
aI3
aI4
aI0
aa(lp1619
I2
aI9
aI5
aI3
aI0
aa(lp1620
I3
aI9
aI5
aI5
aI0
aa(lp1621
I4
aI7
aI12
aI7
aI2
aa(lp1622
I2
aI5
aI7
aI4
aI0
aa(lp1623
I3
aI8
aI7
aI4
aI1
aa(lp1624
I1
aI5
aI1
aI3
aI0
aa(lp1625
I0
aI7
aI3
aI6
aI0
aa(lp1626
I5
aI5
aI3
aI7
aI0
aa(lp1627
I3
aI9
aI4
aI1
aI0
aa(lp1628
I2
aI7
aI7
aI4
aI0
aa(lp1629
I0
aI4
aI4
aI4
aI0
aa(lp1630
I5
aI9
aI6
aI2
aI2
aa(lp1631
I4
aI11
aI3
aI5
aI0
aa(lp1632
I1
aI4
aI3
aI4
aI0
aa(lp1633
I3
aI3
aI4
aI1
aI0
aa(lp1634
I3
aI9
aI3
aI6
aI0
aa(lp1635
I4
aI15
aI7
aI6
aI0
aa(lp1636
I2
aI8
aI7
aI7
aI0
aa(lp1637
I6
aI14
aI11
aI4
aI1
aa(lp1638
I0
aI7
aI1
aI7
aI1
aa(lp1639
I1
aI7
aI1
aI11
aI0
aa(lp1640
I3
aI7
aI4
aI8
aI0
aa(lp1641
I0
aI5
aI5
aI4
aI1
aa(lp1642
I4
aI8
aI2
aI8
aI0
aa(lp1643
I2
aI5
aI6
aI5
aI0
aa(lp1644
I5
aI10
aI6
aI7
aI1
aa(lp1645
I2
aI4
aI3
aI5
aI0
aa(lp1646
I1
aI6
aI0
aI4
aI0
aa(lp1647
I4
aI6
aI1
aI3
aI0
aa(lp1648
I4
aI8
aI4
aI5
aI0
aa(lp1649
I4
aI12
aI1
aI6
aI0
aa(lp1650
I3
aI6
aI4
aI2
aI0
aa(lp1651
I4
aI9
aI9
aI5
aI0
aa(lp1652
I2
aI10
aI4
aI3
aI1
aa(lp1653
I3
aI10
aI3
aI3
aI0
aa(lp1654
I3
aI4
aI3
aI5
aI1
aa(lp1655
I3
aI10
aI3
aI4
aI0
aa(lp1656
I1
aI7
aI4
aI5
aI0
aa(lp1657
I2
aI10
aI5
aI5
aI0
aa(lp1658
I6
aI16
aI9
aI2
aI0
aa(lp1659
I7
aI3
aI1
aI4
aI0
aa(lp1660
I0
aI5
aI4
aI4
aI0
aa(lp1661
I4
aI9
aI7
aI4
aI0
aa(lp1662
I6
aI10
aI10
aI0
aI0
aa(lp1663
I6
aI6
aI16
aI5
aI0
aa(lp1664
I8
aI6
aI3
aI3
aI0
aa(lp1665
I2
aI12
aI5
aI7
aI2
aa(lp1666
I5
aI9
aI3
aI5
aI0
aa(lp1667
I0
aI7
aI1
aI0
aI0
aa(lp1668
I1
aI5
aI4
aI5
aI0
aa(lp1669
I1
aI12
aI3
aI3
aI0
aa(lp1670
I4
aI10
aI4
aI2
aI1
aa(lp1671
I0
aI3
aI10
aI2
aI1
aa(lp1672
I9
aI10
aI5
aI6
aI0
aa(lp1673
I2
aI5
aI2
aI4
aI0
aa(lp1674
I2
aI6
aI3
aI6
aI0
aa(lp1675
I4
aI12
aI13
aI8
aI0
aa(lp1676
I0
aI9
aI3
aI4
aI0
aa(lp1677
I2
aI6
aI9
aI2
aI0
aa(lp1678
I2
aI10
aI8
aI4
aI1
aa(lp1679
I4
aI8
aI3
aI0
aI1
aa(lp1680
I1
aI12
aI4
aI2
aI0
aa(lp1681
I2
aI3
aI2
aI5
aI0
aa(lp1682
I3
aI13
aI6
aI6
aI2
aa(lp1683
I0
aI15
aI3
aI8
aI2
aa(lp1684
I0
aI7
aI8
aI3
aI0
aa(lp1685
I3
aI12
aI8
aI3
aI1
aa(lp1686
I2
aI1
aI9
aI1
aI0
aa(lp1687
I4
aI6
aI6
aI1
aI0
aa(lp1688
I1
aI6
aI2
aI6
aI0
aa(lp1689
I2
aI9
aI10
aI9
aI1
aa(lp1690
I4
aI5
aI3
aI2
aI0
aa(lp1691
I4
aI16
aI6
aI1
aI0
aa(lp1692
I3
aI8
aI6
aI5
aI0
aa(lp1693
I3
aI7
aI7
aI0
aI0
aa(lp1694
I4
aI9
aI2
aI5
aI1
aa(lp1695
I3
aI1
aI1
aI2
aI0
aa(lp1696
I6
aI8
aI7
aI1
aI0
aa(lp1697
I6
aI5
aI8
aI9
aI0
aa(lp1698
I4
aI7
aI7
aI2
aI1
aa(lp1699
I0
aI2
aI2
aI1
aI1
aa(lp1700
I0
aI12
aI15
aI6
aI0
aa(lp1701
I1
aI13
aI5
aI2
aI0
aa(lp1702
I5
aI10
aI5
aI10
aI0
aa(lp1703
I3
aI11
aI1
aI7
aI0
aa(lp1704
I2
aI11
aI4
aI4
aI1
aa(lp1705
I2
aI3
aI1
aI5
aI2
aa(lp1706
I3
aI6
aI2
aI5
aI0
aa(lp1707
I1
aI6
aI5
aI7
aI0
aa(lp1708
I1
aI7
aI7
aI3
aI0
aa(lp1709
I0
aI7
aI0
aI6
aI0
aa(lp1710
I2
aI5
aI3
aI4
aI0
aa(lp1711
I3
aI6
aI4
aI2
aI0
aa(lp1712
I2
aI7
aI11
aI5
aI1
aa(lp1713
I5
aI9
aI5
aI3
aI1
aa(lp1714
I2
aI6
aI2
aI4
aI0
aa(lp1715
I5
aI5
aI4
aI5
aI1
aa(lp1716
I3
aI6
aI1
aI4
aI0
aa(lp1717
I2
aI7
aI7
aI2
aI1
aa(lp1718
I1
aI2
aI4
aI5
aI0
aa(lp1719
I0
aI10
aI6
aI1
aI0
aa(lp1720
I0
aI4
aI3
aI1
aI0
aa(lp1721
I1
aI6
aI7
aI3
aI0
aa(lp1722
I2
aI6
aI3
aI2
aI1
aa(lp1723
I1
aI4
aI2
aI6
aI1
aa(lp1724
I2
aI8
aI1
aI6
aI1
aa(lp1725
I0
aI0
aI7
aI1
aI0
aa(lp1726
I0
aI4
aI3
aI1
aI0
aa(lp1727
I1
aI8
aI4
aI1
aI1
aa(lp1728
I1
aI4
aI9
aI5
aI0
aa(lp1729
I1
aI5
aI4
aI1
aI2
aa(lp1730
I0
aI4
aI2
aI2
aI1
aa(lp1731
I0
aI5
aI3
aI4
aI2
aa(lp1732
I0
aI3
aI6
aI4
aI1
aa(lp1733
I1
aI2
aI4
aI4
aI1
aa(lp1734
I2
aI6
aI9
aI1
aI0
aa(lp1735
I1
aI5
aI7
aI2
aI1
aa(lp1736
I3
aI6
aI3
aI5
aI1
aa(lp1737
I1
aI8
aI1
aI3
aI0
aa(lp1738
I1
aI2
aI6
aI1
aI3
aa(lp1739
I0
aI2
aI1
aI1
aI0
aa(lp1740
I2
aI1
aI8
aI2
aI0
aa(lp1741
I0
aI5
aI8
aI1
aI0
aa(lp1742
I1
aI6
aI9
aI2
aI0
aa(lp1743
I2
aI5
aI1
aI2
aI0
aa(lp1744
I0
aI3
aI1
aI2
aI0
aa(lp1745
I2
aI6
aI4
aI2
aI1
aa(lp1746
I2
aI3
aI4
aI4
aI0
aa(lp1747
I0
aI1
aI7
aI4
aI1
aa(lp1748
I1
aI2
aI6
aI4
aI0
aa(lp1749
I2
aI7
aI8
aI3
aI1
aa(lp1750
I1
aI9
aI6
aI6
aI0
aa(lp1751
I0
aI5
aI7
aI2
aI0
aa(lp1752
I0
aI8
aI5
aI0
aI1
aa(lp1753
I1
aI4
aI2
aI1
aI0
aa(lp1754
I0
aI1
aI1
aI4
aI0
aa(lp1755
I0
aI5
aI3
aI3
aI0
aa(lp1756
I0
aI3
aI4
aI1
aI1
aa(lp1757
I2
aI0
aI2
aI2
aI0
aa(lp1758
I0
aI3
aI3
aI1
aI0
aa(lp1759
I1
aI1
aI1
aI0
aI0
aa(lp1760
I2
aI4
aI6
aI3
aI0
aa(lp1761
I1
aI3
aI12
aI0
aI1
aa(lp1762
I0
aI6
aI5
aI2
aI0
aa(lp1763
I0
aI6
aI3
aI4
aI0
aa(lp1764
I2
aI3
aI4
aI4
aI0
aa(lp1765
I0
aI3
aI1
aI0
aI0
aa(lp1766
I1
aI4
aI7
aI2
aI1
aa(lp1767
I2
aI5
aI1
aI1
aI0
aa(lp1768
I1
aI4
aI3
aI1
aI1
aa(lp1769
I0
aI6
aI3
aI0
aI0
aa(lp1770
I0
aI4
aI4
aI3
aI0
aa(lp1771
I0
aI6
aI4
aI0
aI0
aa(lp1772
I1
aI1
aI3
aI2
aI1
aa(lp1773
I0
aI5
aI8
aI3
aI0
aa(lp1774
I2
aI3
aI6
aI2
aI0
aa(lp1775
I1
aI0
aI4
aI3
aI0
aa(lp1776
I2
aI2
aI3
aI1
aI0
aa(lp1777
I0
aI1
aI6
aI1
aI0
aa(lp1778
I1
aI4
aI1
aI1
aI0
aa(lp1779
I1
aI1
aI1
aI2
aI0
aa(lp1780
I0
aI2
aI6
aI0
aI1
aa(lp1781
I2
aI6
aI3
aI1
aI0
aa(lp1782
I0
aI4
aI1
aI3
aI0
aa(lp1783
I0
aI2
aI2
aI4
aI1
aa(lp1784
I2
aI2
aI3
aI1
aI0
aa(lp1785
I2
aI1
aI3
aI2
aI0
aa(lp1786
I1
aI6
aI2
aI2
aI1
aa(lp1787
I1
aI4
aI5
aI2
aI0
aa(lp1788
I2
aI5
aI3
aI1
aI1
aa(lp1789
I1
aI2
aI6
aI3
aI0
aa(lp1790
I1
aI1
aI0
aI1
aI0
aa(lp1791
I2
aI1
aI2
aI4
aI0
aa(lp1792
I0
aI3
aI4
aI0
aI0
aa(lp1793
I0
aI3
aI4
aI0
aI1
aa(lp1794
I1
aI3
aI3
aI0
aI0
aa(lp1795
I0
aI1
aI3
aI1
aI1
aa(lp1796
I0
aI1
aI1
aI1
aI0
aa(lp1797
I0
aI2
aI5
aI0
aI0
aa(lp1798
I0
aI4
aI4
aI1
aI0
aa(lp1799
I0
aI2
aI4
aI2
aI1
aa(lp1800
I0
aI5
aI1
aI0
aI0
aa(lp1801
I1
aI1
aI0
aI1
aI0
aa(lp1802
I1
aI4
aI2
aI0
aI0
aa(lp1803
I1
aI1
aI8
aI3
aI0
aa(lp1804
I2
aI1
aI3
aI2
aI0
aa(lp1805
I0
aI5
aI3
aI1
aI0
aa(lp1806
I1
aI6
aI1
aI3
aI0
aa(lp1807
I0
aI2
aI1
aI2
aI0
aa(lp1808
I1
aI2
aI4
aI1
aI0
aa(lp1809
I0
aI2
aI9
aI1
aI0
aa(lp1810
I1
aI2
aI6
aI1
aI0
aa(lp1811
I0
aI4
aI4
aI0
aI0
aa(lp1812
I1
aI2
aI3
aI3
aI0
aa(lp1813
I0
aI3
aI2
aI0
aI1
aa(lp1814
I1
aI2
aI1
aI1
aI0
aa(lp1815
I0
aI2
aI1
aI0
aI1
aa(lp1816
I1
aI1
aI3
aI1
aI0
aa(lp1817
I1
aI1
aI4
aI1
aI0
aa(lp1818
I0
aI3
aI2
aI1
aI0
aa(lp1819
I1
aI1
aI2
aI0
aI0
aa(lp1820
I0
aI2
aI0
aI1
aI0
aa(lp1821
I2
aI1
aI3
aI0
aI0
aa(lp1822
I1
aI3
aI2
aI0
aI0
aa(lp1823
I0
aI0
aI2
aI0
aI0
aa(lp1824
I0
aI2
aI0
aI0
aI0
aa(lp1825
I0
aI2
aI1
aI1
aI0
aa(lp1826
I1
aI0
aI1
aI0
aI0
aa(lp1827
I1
aI2
aI0
aI1
aI0
aa(lp1828
I1
aI0
aI3
aI1
aI0
aa(lp1829
I1
aI4
aI2
aI2
aI0
aa(lp1830
I0
aI1
aI4
aI1
aI0
aa(lp1831
I0
aI5
aI2
aI2
aI0
aa(lp1832
I0
aI1
aI1
aI0
aI0
aa(lp1833
I3
aI2
aI2
aI3
aI0
aa(lp1834
I1
aI2
aI1
aI2
aI0
aa(lp1835
I0
aI0
aI0
aI0
aI0
aa(lp1836
I2
aI1
aI2
aI1
aI0
aa(lp1837
I1
aI2
aI7
aI2
aI0
aa(lp1838
I0
aI2
aI1
aI1
aI0
aa(lp1839
I1
aI1
aI5
aI0
aI0
aa(lp1840
I0
aI3
aI5
aI0
aI0
aa(lp1841
I1
aI1
aI0
aI1
aI0
aa(lp1842
I1
aI1
aI1
aI1
aI0
aa(lp1843
I0
aI0
aI1
aI1
aI0
aa(lp1844
I0
aI2
aI1
aI1
aI0
aa(lp1845
I0
aI4
aI0
aI0
aI0
aa(lp1846
I0
aI1
aI1
aI0
aI0
aa(lp1847
I0
aI2
aI3
aI1
aI0
aa(lp1848
I2
aI0
aI2
aI1
aI0
aa(lp1849
I0
aI2
aI1
aI1
aI0
aa(lp1850
I0
aI2
aI2
aI1
aI0
aa(lp1851
I0
aI0
aI0
aI0
aI0
aa(lp1852
I0
aI1
aI1
aI0
aI0
aa(lp1853
I1
aI0
aI3
aI0
aI0
aa(lp1854
I0
aI0
aI0
aI1
aI0
aa(lp1855
I1
aI0
aI3
aI0
aI0
aa(lp1856
I0
aI0
aI1
aI0
aI0
aa(lp1857
I1
aI0
aI1
aI1
aI0
aa(lp1858
I0
aI1
aI2
aI0
aI0
aa(lp1859
I0
aI0
aI2
aI0
aI0
aa(lp1860
I1
aI1
aI3
aI2
aI0
aa(lp1861
I1
aI2
aI1
aI0
aI0
aa(lp1862
I0
aI1
aI1
aI2
aI0
aa(lp1863
I0
aI1
aI1
aI0
aI0
aa(lp1864
I0
aI0
aI0
aI0
aI0
aa(lp1865
I1
aI1
aI3
aI0
aI0
aa(lp1866
I1
aI0
aI4
aI2
aI0
aa(lp1867
I0
aI3
aI1
aI0
aI0
aa(lp1868
I0
aI1
aI1
aI0
aI0
aa(lp1869
I2
aI1
aI0
aI1
aI0
aa(lp1870
I0
aI3
aI4
aI0
aI0
aa(lp1871
I0
aI1
aI3
aI3
aI0
aa(lp1872
I0
aI0
aI2
aI1
aI0
aa(lp1873
I1
aI2
aI3
aI0
aI0
aa(lp1874
I0
aI2
aI3
aI1
aI0
aa(lp1875
I1
aI1
aI2
aI0
aI0
aa(lp1876
I0
aI0
aI2
aI1
aI0
aa(lp1877
I0
aI0
aI0
aI0
aI0
aa(lp1878
I2
aI2
aI1
aI0
aI0
aa(lp1879
I0
aI1
aI0
aI2
aI0
aa(lp1880
I1
aI0
aI1
aI1
aI0
aa(lp1881
I2
aI2
aI3
aI1
aI0
aa(lp1882
I0
aI3
aI2
aI1
aI0
aa(lp1883
I1
aI2
aI3
aI1
aI0
aa(lp1884
I0
aI3
aI3
aI0
aI0
aa(lp1885
I0
aI0
aI3
aI1
aI0
aa(lp1886
I0
aI1
aI1
aI0
aI0
aa(lp1887
I0
aI3
aI4
aI0
aI0
aa(lp1888
I1
aI0
aI1
aI0
aI0
aa(lp1889
I1
aI1
aI7
aI0
aI0
aa(lp1890
I0
aI2
aI1
aI0
aI0
aa(lp1891
I1
aI3
aI1
aI0
aI0
aa(lp1892
I3
aI1
aI8
aI0
aI0
aa(lp1893
I0
aI1
aI4
aI1
aI0
aa(lp1894
I1
aI3
aI5
aI0
aI0
aa(lp1895
I4
aI3
aI9
aI1
aI0
aa(lp1896
I2
aI2
aI7
aI1
aI0
aa(lp1897
I1
aI2
aI3
aI0
aI0
aa(lp1898
I1
aI1
aI0
aI0
aI0
aa(lp1899
I0
aI0
aI5
aI0
aI0
aa(lp1900
I1
aI1
aI5
aI0
aI0
aa(lp1901
I1
aI3
aI4
aI1
aI1
aa(lp1902
I0
aI3
aI2
aI1
aI0
aa(lp1903
I0
aI4
aI2
aI2
aI0
aa(lp1904
I3
aI3
aI1
aI0
aI0
aa(lp1905
I0
aI1
aI3
aI2
aI0
aa(lp1906
I1
aI5
aI3
aI0
aI0
aa(lp1907
I0
aI1
aI2
aI0
aI0
aa(lp1908
I1
aI2
aI5
aI1
aI0
aa(lp1909
I1
aI3
aI5
aI0
aI0
aa(lp1910
I1
aI3
aI4
aI1
aI0
aa(lp1911
I3
aI4
aI3
aI3
aI0
aa(lp1912
I3
aI1
aI2
aI2
aI1
aa(lp1913
I0
aI1
aI1
aI0
aI0
aa(lp1914
I1
aI0
aI5
aI2
aI0
aa(lp1915
I0
aI9
aI4
aI0
aI1
aa(lp1916
I3
aI4
aI4
aI0
aI0
aa(lp1917
I2
aI2
aI3
aI0
aI0
aa(lp1918
I1
aI0
aI3
aI4
aI1
aa(lp1919
I1
aI2
aI4
aI1
aI0
aa(lp1920
I3
aI4
aI6
aI2
aI0
aa(lp1921
I0
aI5
aI1
aI1
aI0
aa(lp1922
I0
aI4
aI2
aI3
aI0
aa(lp1923
I0
aI3
aI4
aI2
aI0
aa(lp1924
I4
aI2
aI8
aI1
aI1
aa(lp1925
I3
aI2
aI3
aI2
aI1
aa(lp1926
I0
aI0
aI1
aI1
aI0
aa(lp1927
I0
aI1
aI2
aI2
aI0
aa(lp1928
I1
aI2
aI2
aI1
aI1
aa(lp1929
I1
aI5
aI4
aI1
aI0
aa(lp1930
I1
aI6
aI5
aI5
aI0
aa(lp1931
I2
aI5
aI4
aI2
aI0
aa(lp1932
I1
aI4
aI2
aI2
aI0
aa(lp1933
I3
aI4
aI3
aI1
aI0
aa(lp1934
I0
aI1
aI2
aI0
aI0
aa(lp1935
I1
aI0
aI5
aI1
aI0
aa(lp1936
I1
aI2
aI5
aI3
aI2
aa(lp1937
I2
aI1
aI2
aI2
aI0
aa(lp1938
I1
aI1
aI2
aI1
aI0
aa(lp1939
I0
aI3
aI0
aI2
aI0
aa(lp1940
I0
aI1
aI0
aI1
aI0
aa(lp1941
I4
aI3
aI4
aI2
aI0
aa(lp1942
I2
aI3
aI2
aI4
aI0
aa(lp1943
I0
aI3
aI7
aI4
aI0
aa(lp1944
I1
aI2
aI2
aI3
aI0
aa(lp1945
I2
aI3
aI6
aI2
aI1
aa(lp1946
I1
aI5
aI3
aI4
aI1
aa(lp1947
I3
aI3
aI4
aI1
aI0
aa(lp1948
I2
aI5
aI5
aI1
aI0
aa(lp1949
I2
aI2
aI6
aI2
aI0
aa(lp1950
I1
aI3
aI0
aI5
aI0
aa(lp1951
I6
aI4
aI2
aI1
aI0
aa(lp1952
I3
aI5
aI4
aI3
aI0
aa(lp1953
I3
aI5
aI2
aI6
aI1
aa(lp1954
I2
aI6
aI3
aI2
aI1
aa(lp1955
I0
aI4
aI4
aI4
aI0
aa(lp1956
I3
aI5
aI5
aI1
aI2
aa(lp1957
I1
aI1
aI6
aI2
aI0
aa(lp1958
I0
aI7
aI7
aI5
aI0
aa(lp1959
I1
aI5
aI2
aI2
aI0
aa(lp1960
I2
aI5
aI1
aI4
aI2
aa(lp1961
I2
aI2
aI4
aI3
aI1
aa(lp1962
I0
aI5
aI4
aI2
aI0
aa(lp1963
I2
aI5
aI9
aI3
aI1
aa(lp1964
I2
aI1
aI9
aI6
aI0
aa(lp1965
I3
aI6
aI2
aI3
aI0
aa(lp1966
I1
aI3
aI2
aI4
aI0
aa(lp1967
I0
aI1
aI1
aI4
aI0
aa(lp1968
I0
aI2
aI1
aI2
aI0
aa(lp1969
I0
aI4
aI2
aI2
aI1
aa(lp1970
I2
aI1
aI2
aI2
aI0
aa(lp1971
I4
aI6
aI4
aI4
aI1
aa(lp1972
I3
aI10
aI6
aI2
aI0
aa(lp1973
I3
aI4
aI5
aI5
aI0
aa(lp1974
I2
aI4
aI0
aI3
aI0
aa(lp1975
I2
aI5
aI1
aI3
aI1
aa(lp1976
I0
aI3
aI5
aI1
aI0
aa(lp1977
I0
aI5
aI6
aI1
aI0
aa(lp1978
I1
aI6
aI6
aI4
aI2
aa(lp1979
I3
aI7
aI5
aI3
aI1
aa(lp1980
I3
aI7
aI5
aI4
aI0
aa(lp1981
I2
aI10
aI3
aI3
aI1
aa(lp1982
I4
aI5
aI2
aI1
aI0
aa(lp1983
I3
aI2
aI2
aI2
aI0
aa(lp1984
I1
aI5
aI1
aI3
aI1
aa(lp1985
I5
aI9
aI3
aI2
aI0
aa(lp1986
I1
aI3
aI4
aI4
aI1
aa(lp1987
I1
aI8
aI7
aI0
aI1
aa(lp1988
I3
aI5
aI1
aI2
aI0
aa(lp1989
I3
aI4
aI1
aI5
aI0
aa(lp1990
I1
aI4
aI3
aI3
aI1
aa(lp1991
I1
aI3
aI5
aI2
aI0
aa(lp1992
I3
aI1
aI6
aI6
aI0
aa(lp1993
I1
aI3
aI10
aI2
aI0
aa(lp1994
I1
aI6
aI3
aI6
aI0
aa(lp1995
I1
aI3
aI6
aI3
aI0
aa(lp1996
I2
aI6
aI1
aI5
aI1
aa(lp1997
I3
aI3
aI6
aI5
aI0
aa(lp1998
I4
aI6
aI4
aI4
aI0
aa(lp1999
I5
aI7
aI6
aI2
aI0
aa(lp2000
I3
aI5
aI11
aI6
aI1
aa(lp2001
I3
aI7
aI2
aI4
aI0
aa(lp2002
I4
aI8
aI3
aI4
aI0
aa(lp2003
I3
aI10
aI3
aI4
aI0
aa(lp2004
I4
aI8
aI9
aI3
aI0
aa(lp2005
I1
aI3
aI7
aI3
aI0
aa(lp2006
I1
aI7
aI6
aI4
aI0
aa(lp2007
I6
aI9
aI4
aI4
aI3
aa(lp2008
I3
aI8
aI4
aI5
aI0
aa(lp2009
I4
aI7
aI4
aI4
aI0
aa(lp2010
I0
aI2
aI1
aI4
aI0
aa(lp2011
I1
aI5
aI3
aI5
aI1
aa(lp2012
I2
aI6
aI3
aI3
aI0
aa(lp2013
I1
aI7
aI8
aI3
aI2
aa(lp2014
I1
aI5
aI4
aI10
aI1
aa(lp2015
I7
aI3
aI6
aI5
aI1
aa(lp2016
I3
aI8
aI5
aI4
aI1
aa(lp2017
I4
aI16
aI4
aI2
aI0
aa(lp2018
I3
aI3
aI5
aI7
aI0
aa(lp2019
I4
aI9
aI12
aI4
aI0
aa(lp2020
I3
aI11
aI13
aI9
aI0
aa(lp2021
I3
aI3
aI5
aI2
aI0
aa(lp2022
I4
aI6
aI10
aI5
aI3
aa(lp2023
I0
aI2
aI0
aI1
aI0
aa(lp2024
I3
aI1
aI3
aI1
aI0
aa(lp2025
I3
aI9
aI6
aI9
aI0
aa(lp2026
I2
aI9
aI4
aI5
aI0
aa(lp2027
I4
aI6
aI4
aI1
aI0
aa(lp2028
I5
aI9
aI7
aI6
aI1
aa(lp2029
I1
aI8
aI5
aI8
aI0
aa(lp2030
I5
aI5
aI2
aI8
aI0
aa(lp2031
I2
aI4
aI5
aI9
aI0
aa(lp2032
I2
aI6
aI3
aI1
aI1
aa(lp2033
I3
aI5
aI5
aI5
aI0
aa(lp2034
I0
aI2
aI4
aI1
aI0
aa(lp2035
I2
aI5
aI6
aI5
aI0
aa(lp2036
I1
aI7
aI5
aI6
aI1
aa(lp2037
I5
aI5
aI1
aI5
aI0
aa(lp2038
I1
aI1
aI2
aI1
aI0
aa(lp2039
I0
aI5
aI3
aI1
aI0
aa(lp2040
I4
aI7
aI5
aI3
aI0
aa(lp2041
I4
aI9
aI7
aI6
aI0
aa(lp2042
I4
aI5
aI5
aI3
aI0
aa(lp2043
I4
aI9
aI3
aI4
aI0
aa(lp2044
I4
aI12
aI5
aI4
aI0
aa(lp2045
I1
aI3
aI2
aI3
aI1
aa(lp2046
I4
aI4
aI5
aI2
aI0
aa(lp2047
I6
aI8
aI9
aI9
aI0
aa(lp2048
I3
aI11
aI4
aI5
aI0
aa(lp2049
I2
aI8
aI6
aI4
aI0
aa(lp2050
I3
aI8
aI7
aI1
aI0
aa(lp2051
I3
aI5
aI1
aI3
aI0
aa(lp2052
I0
aI4
aI3
aI2
aI0
aa(lp2053
I2
aI6
aI3
aI3
aI0
aa(lp2054
I4
aI8
aI5
aI3
aI0
aa(lp2055
I4
aI11
aI9
aI2
aI0
aa(lp2056
I6
aI2
aI11
aI3
aI0
aa(lp2057
I1
aI3
aI5
aI2
aI0
aa(lp2058
I5
aI9
aI2
aI3
aI0
aa(lp2059
I2
aI12
aI5
aI5
aI0
aa(lp2060
I2
aI12
aI2
aI2
aI0
aa(lp2061
I3
aI6
aI7
aI4
aI0
aa(lp2062
I2
aI6
aI2
aI1
aI0
aa(lp2063
I5
aI11
aI8
aI3
aI1
aa(lp2064
I4
aI11
aI6
aI2
aI0
aa(lp2065
I3
aI6
aI3
aI3
aI0
aa(lp2066
I3
aI6
aI4
aI1
aI0
aa(lp2067
I0
aI8
aI2
aI2
aI3
aa(lp2068
I5
aI8
aI5
aI5
aI1
aa(lp2069
I5
aI6
aI4
aI1
aI1
aa(lp2070
I4
aI7
aI1
aI5
aI0
aa(lp2071
I3
aI9
aI5
aI5
aI0
aa(lp2072
I2
aI4
aI1
aI4
aI0
aa(lp2073
I0
aI2
aI1
aI1
aI0
aa(lp2074
I2
aI8
aI2
aI4
aI0
aa(lp2075
I1
aI3
aI6
aI4
aI1
aa(lp2076
I1
aI8
aI6
aI4
aI0
aa(lp2077
I4
aI4
aI10
aI2
aI0
aa(lp2078
I0
aI7
aI5
aI1
aI0
aa(lp2079
I2
aI6
aI8
aI3
aI0
aa(lp2080
I3
aI5
aI3
aI1
aI0
aa(lp2081
I3
aI10
aI3
aI1
aI1
aa(lp2082
I3
aI6
aI6
aI1
aI1
aa(lp2083
I3
aI11
aI4
aI6
aI0
aa(lp2084
I3
aI8
aI8
aI3
aI0
aa(lp2085
I2
aI6
aI7
aI2
aI2
aa(lp2086
I2
aI2
aI5
aI5
aI0
aa(lp2087
I1
aI3
aI3
aI4
aI1
aa(lp2088
I2
aI4
aI7
aI0
aI1
aa(lp2089
I1
aI3
aI4
aI2
aI0
aa(lp2090
I1
aI3
aI2
aI3
aI0
aa(lp2091
I0
aI6
aI9
aI3
aI1
aa(lp2092
I2
aI6
aI2
aI5
aI3
aa(lp2093
I2
aI1
aI3
aI3
aI0
aa(lp2094
I1
aI3
aI2
aI4
aI0
aa(lp2095
I0
aI4
aI7
aI0
aI0
aa(lp2096
I2
aI2
aI2
aI0
aI0
aa(lp2097
I0
aI9
aI7
aI3
aI0
aa(lp2098
I0
aI4
aI8
aI1
aI1
aa(lp2099
I2
aI11
aI7
aI2
aI0
aa(lp2100
I3
aI7
aI2
aI3
aI2
aa(lp2101
I0
aI4
aI4
aI8
aI0
aa(lp2102
I0
aI7
aI6
aI1
aI0
aa(lp2103
I3
aI13
aI5
aI2
aI0
aa(lp2104
I1
aI5
aI6
aI0
aI0
aa(lp2105
I4
aI2
aI5
aI2
aI0
aa(lp2106
I1
aI4
aI5
aI1
aI1
aa(lp2107
I2
aI5
aI1
aI5
aI0
aa(lp2108
I3
aI2
aI4
aI2
aI0
aa(lp2109
I1
aI7
aI1
aI2
aI0
aa(lp2110
I0
aI3
aI2
aI1
aI0
aa(lp2111
I1
aI5
aI4
aI4
aI0
aa(lp2112
I1
aI2
aI4
aI2
aI1
aa(lp2113
I4
aI3
aI5
aI3
aI0
aa(lp2114
I0
aI8
aI3
aI2
aI1
aa(lp2115
I2
aI5
aI2
aI3
aI0
aa(lp2116
I0
aI5
aI3
aI1
aI0
aa(lp2117
I0
aI2
aI3
aI2
aI0
aa(lp2118
I2
aI7
aI2
aI1
aI0
aa(lp2119
I3
aI3
aI4
aI1
aI0
aa(lp2120
I3
aI5
aI8
aI1
aI1
aa(lp2121
I1
aI6
aI4
aI5
aI1
aa(lp2122
I1
aI3
aI3
aI1
aI0
aa(lp2123
I3
aI8
aI1
aI0
aI0
aa(lp2124
I1
aI3
aI5
aI1
aI0
aa(lp2125
I3
aI5
aI4
aI2
aI0
aa(lp2126
I0
aI1
aI5
aI1
aI0
aa(lp2127
I2
aI7
aI6
aI1
aI0
aa(lp2128
I2
aI5
aI1
aI2
aI2
aa(lp2129
I0
aI2
aI2
aI0
aI0
aa(lp2130
I1
aI1
aI3
aI1
aI1
aa(lp2131
I0
aI5
aI0
aI0
aI0
aa(lp2132
I1
aI0
aI3
aI0
aI0
aa(lp2133
I2
aI2
aI3
aI2
aI0
aa(lp2134
I3
aI4
aI7
aI2
aI0
aa(lp2135
I0
aI3
aI1
aI2
aI0
aa(lp2136
I1
aI2
aI0
aI1
aI0
aa(lp2137
I2
aI6
aI2
aI3
aI0
aa(lp2138
I0
aI4
aI6
aI2
aI1
aa(lp2139
I1
aI2
aI2
aI3
aI0
aa(lp2140
I1
aI8
aI4
aI0
aI0
aa(lp2141
I0
aI4
aI4
aI2
aI1
aa(lp2142
I1
aI3
aI2
aI1
aI0
aa(lp2143
I1
aI1
aI1
aI1
aI0
aa(lp2144
I2
aI1
aI3
aI1
aI0
aa(lp2145
I0
aI3
aI3
aI2
aI0
aa(lp2146
I0
aI0
aI3
aI1
aI1
aa(lp2147
I0
aI2
aI6
aI1
aI0
aa(lp2148
I0
aI1
aI7
aI2
aI1
aa(lp2149
I1
aI1
aI2
aI0
aI0
aa(lp2150
I1
aI0
aI4
aI1
aI0
aa(lp2151
I0
aI2
aI3
aI3
aI1
aa(lp2152
I1
aI2
aI5
aI0
aI0
aa(lp2153
I0
aI3
aI3
aI2
aI0
aa(lp2154
I1
aI1
aI1
aI0
aI0
aa(lp2155
I0
aI2
aI0
aI1
aI0
aa(lp2156
I0
aI1
aI2
aI1
aI0
aa(lp2157
I0
aI1
aI1
aI0
aI0
aa(lp2158
I0
aI5
aI9
aI0
aI0
aa(lp2159
I0
aI5
aI4
aI0
aI0
aa(lp2160
I0
aI5
aI3
aI1
aI0
aa(lp2161
I0
aI3
aI3
aI0
aI0
aa(lp2162
I0
aI2
aI2
aI1
aI0
aa(lp2163
I0
aI1
aI2
aI0
aI0
aa(lp2164
I0
aI2
aI0
aI0
aI0
aa(lp2165
I0
aI4
aI2
aI2
aI0
aa(lp2166
I1
aI2
aI3
aI2
aI0
aa(lp2167
I0
aI1
aI4
aI0
aI0
aa(lp2168
I0
aI2
aI7
aI1
aI0
aa(lp2169
I0
aI0
aI2
aI0
aI0
aa(lp2170
I0
aI3
aI1
aI0
aI0
aa(lp2171
I0
aI3
aI1
aI0
aI0
aa(lp2172
I0
aI4
aI1
aI1
aI0
aa(lp2173
I0
aI1
aI2
aI0
aI0
aa(lp2174
I0
aI0
aI1
aI0
aI0
aa(lp2175
I1
aI0
aI1
aI0
aI0
aa(lp2176
I0
aI2
aI1
aI0
aI0
aa(lp2177
I1
aI2
aI4
aI0
aI0
aa(lp2178
I0
aI1
aI0
aI0
aI0
aa(lp2179
I0
aI1
aI2
aI1
aI0
aa(lp2180
I0
aI2
aI5
aI1
aI0
aa(lp2181
I0
aI2
aI3
aI0
aI0
aa(lp2182
I1
aI2
aI1
aI0
aI0
aa(lp2183
I0
aI2
aI3
aI0
aI0
aa(lp2184
I1
aI1
aI2
aI1
aI0
aa(lp2185
I0
aI0
aI0
aI1
aI0
aa(lp2186
I0
aI1
aI0
aI0
aI0
aa(lp2187
I1
aI1
aI3
aI0
aI0
aa(lp2188
I0
aI2
aI0
aI1
aI0
aa(lp2189
I0
aI1
aI3
aI1
aI0
aa(lp2190
I0
aI3
aI3
aI0
aI0
aa(lp2191
I0
aI1
aI0
aI0
aI0
aa(lp2192
I0
aI0
aI1
aI0
aI0
aa(lp2193
I0
aI0
aI0
aI1
aI0
aa(lp2194
I0
aI1
aI1
aI0
aI0
aa(lp2195
I0
aI3
aI3
aI0
aI0
aa(lp2196
I0
aI1
aI2
aI1
aI0
aa(lp2197
I0
aI1
aI2
aI1
aI0
aa(lp2198
I0
aI0
aI0
aI2
aI0
aa(lp2199
I0
aI1
aI0
aI3
aI0
aa(lp2200
I0
aI2
aI4
aI0
aI1
aa(lp2201
I0
aI0
aI5
aI0
aI0
aa(lp2202
I0
aI3
aI0
aI0
aI0
aa(lp2203
I0
aI0
aI5
aI1
aI0
aa(lp2204
I0
aI1
aI3
aI0
aI0
aa(lp2205
I0
aI2
aI1
aI1
aI0
aa(lp2206
I0
aI0
aI2
aI0
aI0
aa(lp2207
I1
aI2
aI2
aI0
aI0
aa(lp2208
I0
aI2
aI2
aI1
aI0
aa(lp2209
I0
aI2
aI3
aI0
aI0
aa(lp2210
I0
aI1
aI8
aI0
aI0
aa(lp2211
I1
aI3
aI5
aI1
aI0
aa(lp2212
I0
aI5
aI0
aI2
aI0
aa(lp2213
I0
aI1
aI0
aI0
aI0
aa(lp2214
I0
aI0
aI2
aI0
aI0
aa(lp2215
I0
aI1
aI4
aI0
aI0
aa(lp2216
I1
aI1
aI2
aI2
aI0
aa(lp2217
I0
aI3
aI1
aI1
aI0
aa(lp2218
I1
aI2
aI4
aI0
aI0
aa(lp2219
I0
aI0
aI1
aI0
aI0
aa(lp2220
I0
aI0
aI2
aI1
aI0
aa(lp2221
I1
aI1
aI1
aI0
aI0
aa(lp2222
I0
aI0
aI1
aI2
aI0
aa(lp2223
I0
aI0
aI0
aI1
aI0
aa(lp2224
I1
aI5
aI1
aI0
aI0
aa(lp2225
I0
aI0
aI4
aI1
aI0
aa(lp2226
I0
aI1
aI1
aI1
aI0
aa(lp2227
I0
aI1
aI1
aI0
aI0
aa(lp2228
I0
aI0
aI2
aI0
aI0
aa(lp2229
I1
aI1
aI3
aI1
aI1
aa(lp2230
I0
aI1
aI2
aI0
aI0
aa(lp2231
I0
aI2
aI4
aI0
aI0
aa(lp2232
I2
aI2
aI4
aI2
aI0
aa(lp2233
I0
aI1
aI2
aI1
aI0
aa(lp2234
I0
aI0
aI3
aI0
aI0
aa(lp2235
I0
aI1
aI2
aI1
aI0
aa(lp2236
I0
aI3
aI3
aI0
aI0
aa(lp2237
I0
aI3
aI4
aI1
aI0
aa(lp2238
I0
aI3
aI3
aI1
aI0
aa(lp2239
I0
aI2
aI2
aI0
aI0
aa(lp2240
I1
aI1
aI3
aI0
aI0
aa(lp2241
I0
aI2
aI2
aI1
aI0
aa(lp2242
I0
aI0
aI1
aI0
aI0
aa(lp2243
I0
aI1
aI0
aI1
aI0
aa(lp2244
I1
aI1
aI2
aI2
aI0
aa(lp2245
I2
aI0
aI1
aI0
aI0
aa(lp2246
I0
aI1
aI3
aI0
aI0
aa(lp2247
I0
aI2
aI2
aI0
aI0
aa(lp2248
I0
aI2
aI2
aI0
aI0
aa(lp2249
I0
aI1
aI3
aI0
aI0
aa(lp2250
I0
aI1
aI3
aI1
aI0
aa(lp2251
I1
aI0
aI6
aI1
aI0
aa(lp2252
I0
aI0
aI2
aI0
aI0
aa(lp2253
I0
aI0
aI3
aI0
aI1
aa(lp2254
I0
aI1
aI1
aI0
aI0
aa(lp2255
I0
aI1
aI2
aI1
aI0
aa(lp2256
I0
aI2
aI0
aI0
aI0
aa(lp2257
I0
aI0
aI2
aI0
aI0
aa(lp2258
I0
aI2
aI2
aI0
aI0
aa(lp2259
I0
aI1
aI1
aI1
aI0
aa(lp2260
I0
aI2
aI1
aI0
aI0
aa(lp2261
I0
aI1
aI1
aI2
aI0
aa(lp2262
I0
aI1
aI3
aI0
aI0
aa(lp2263
I0
aI3
aI4
aI1
aI0
aa(lp2264
I0
aI2
aI2
aI0
aI0
aa(lp2265
I1
aI3
aI2
aI0
aI0
aa(lp2266
I0
aI0
aI2
aI0
aI0
aa(lp2267
I0
aI2
aI6
aI5
aI0
aa(lp2268
I1
aI4
aI1
aI0
aI0
aa(lp2269
I1
aI3
aI1
aI2
aI0
aa(lp2270
I1
aI0
aI0
aI2
aI0
aa(lp2271
I1
aI2
aI6
aI1
aI0
aa(lp2272
I1
aI2
aI1
aI0
aI0
aa(lp2273
I0
aI1
aI3
aI0
aI0
aa(lp2274
I1
aI1
aI2
aI1
aI1
aa(lp2275
I0
aI1
aI1
aI1
aI0
aa(lp2276
I0
aI3
aI1
aI3
aI0
aa(lp2277
I0
aI0
aI4
aI0
aI1
aa(lp2278
I2
aI2
aI0
aI1
aI0
aa(lp2279
I0
aI0
aI1
aI0
aI0
aa(lp2280
I1
aI1
aI3
aI0
aI0
aa(lp2281
I0
aI2
aI4
aI0
aI0
aa(lp2282
I1
aI3
aI0
aI0
aI0
aa(lp2283
I0
aI1
aI0
aI1
aI1
aa(lp2284
I0
aI1
aI5
aI2
aI0
aa(lp2285
I0
aI0
aI1
aI0
aI0
aa(lp2286
I1
aI3
aI3
aI0
aI0
aa(lp2287
I3
aI2
aI2
aI3
aI1
aa(lp2288
I0
aI3
aI4
aI0
aI1
aa(lp2289
I0
aI2
aI3
aI2
aI0
aa(lp2290
I2
aI0
aI0
aI1
aI0
aa(lp2291
I0
aI9
aI4
aI1
aI0
aa(lp2292
I1
aI4
aI1
aI0
aI0
aa(lp2293
I1
aI2
aI2
aI0
aI0
aa(lp2294
I0
aI0
aI3
aI2
aI0
aa(lp2295
I1
aI5
aI2
aI4
aI0
aa(lp2296
I1
aI3
aI4
aI2
aI1
aa(lp2297
I0
aI2
aI0
aI0
aI0
aa(lp2298
I0
aI4
aI2
aI1
aI2
aa(lp2299
I1
aI5
aI3
aI3
aI0
aa(lp2300
I0
aI4
aI3
aI1
aI0
aa(lp2301
I1
aI0
aI1
aI2
aI0
aa(lp2302
I1
aI3
aI3
aI0
aI0
aa(lp2303
I3
aI2
aI4
aI3
aI0
aa(lp2304
I0
aI4
aI0
aI4
aI0
aa(lp2305
I1
aI4
aI5
aI1
aI0
aa(lp2306
I1
aI4
aI5
aI2
aI0
aa(lp2307
I2
aI5
aI2
aI3
aI0
aa(lp2308
I0
aI8
aI5
aI2
aI0
aa(lp2309
I1
aI5
aI6
aI1
aI0
aa(lp2310
I2
aI7
aI1
aI2
aI1
aa(lp2311
I2
aI3
aI4
aI2
aI1
aa(lp2312
I0
aI1
aI5
aI1
aI2
aa(lp2313
I0
aI0
aI1
aI0
aI0
aa(lp2314
I0
aI0
aI0
aI2
aI0
aa(lp2315
I0
aI0
aI0
aI0
aI0
aa(lp2316
I0
aI0
aI1
aI0
aI0
aa(lp2317
I0
aI2
aI3
aI1
aI0
aa(lp2318
I0
aI0
aI1
aI0
aI1
aa(lp2319
I0
aI3
aI1
aI0
aI0
aa(lp2320
I0
aI1
aI0
aI3
aI0
aa(lp2321
I0
aI1
aI1
aI1
aI0
aa(lp2322
I1
aI4
aI7
aI2
aI0
aa(lp2323
I2
aI4
aI1
aI4
aI0
aa(lp2324
I2
aI3
aI1
aI5
aI0
aa(lp2325
I1
aI4
aI2
aI7
aI0
aa(lp2326
I1
aI3
aI2
aI5
aI0
aa(lp2327
I1
aI1
aI3
aI1
aI0
aa(lp2328
I2
aI2
aI2
aI1
aI0
aa(lp2329
I0
aI2
aI7
aI2
aI0
aa(lp2330
I0
aI3
aI3
aI1
aI0
aa(lp2331
I1
aI5
aI3
aI2
aI2
aa(lp2332
I2
aI2
aI2
aI1
aI1
aa(lp2333
I0
aI4
aI1
aI1
aI0
aa(lp2334
I0
aI1
aI0
aI2
aI0
aa(lp2335
I0
aI1
aI1
aI0
aI0
aa(lp2336
I0
aI4
aI4
aI2
aI0
aa(lp2337
I1
aI4
aI4
aI1
aI0
aa(lp2338
I2
aI2
aI2
aI0
aI0
aa(lp2339
I1
aI8
aI2
aI1
aI0
aa(lp2340
I0
aI3
aI2
aI2
aI0
aa(lp2341
I0
aI3
aI2
aI1
aI0
aa(lp2342
I0
aI4
aI1
aI1
aI0
aa(lp2343
I1
aI4
aI6
aI1
aI0
aa(lp2344
I1
aI3
aI3
aI2
aI0
aa(lp2345
I0
aI1
aI2
aI5
aI0
aa(lp2346
I0
aI5
aI2
aI2
aI1
aa(lp2347
I2
aI4
aI3
aI0
aI0
aa(lp2348
I0
aI5
aI8
aI2
aI0
aa(lp2349
I2
aI5
aI3
aI3
aI0
aa(lp2350
I4
aI10
aI7
aI2
aI0
aa(lp2351
I4
aI3
aI5
aI6
aI2
aa(lp2352
I3
aI5
aI4
aI6
aI3
aa(lp2353
I1
aI6
aI3
aI5
aI0
aa(lp2354
I1
aI6
aI6
aI2
aI1
aa(lp2355
I4
aI3
aI3
aI3
aI0
aa(lp2356
I3
aI8
aI4
aI2
aI0
aa(lp2357
I0
aI7
aI3
aI1
aI0
aa(lp2358
I2
aI3
aI4
aI5
aI0
aa(lp2359
I3
aI3
aI3
aI3
aI1
aa(lp2360
I2
aI0
aI3
aI3
aI0
aa(lp2361
I2
aI8
aI2
aI5
aI0
aa(lp2362
I2
aI5
aI4
aI8
aI2
aa(lp2363
I3
aI5
aI2
aI1
aI0
aa(lp2364
I3
aI6
aI2
aI3
aI0
aa(lp2365
I3
aI6
aI6
aI4
aI1
aa(lp2366
I1
aI6
aI5
aI2
aI0
aa(lp2367
I2
aI4
aI1
aI2
aI0
aa(lp2368
I3
aI9
aI6
aI3
aI0
aa(lp2369
I3
aI9
aI4
aI4
aI0
aa(lp2370
I3
aI13
aI5
aI8
aI0
aa(lp2371
I1
aI4
aI9
aI7
aI0
aa(lp2372
I3
aI7
aI4
aI2
aI0
aa(lp2373
I3
aI7
aI3
aI4
aI0
aa(lp2374
I1
aI5
aI2
aI4
aI1
aa(lp2375
I2
aI8
aI3
aI2
aI0
aa(lp2376
I4
aI11
aI5
aI5
aI1
aa(lp2377
I2
aI2
aI3
aI5
aI0
aa(lp2378
I5
aI4
aI0
aI5
aI0
aa(lp2379
I2
aI5
aI1
aI0
aI1
aa(lp2380
I0
aI5
aI1
aI3
aI0
aa(lp2381
I1
aI1
aI2
aI3
aI0
aa(lp2382
I5
aI7
aI1
aI1
aI0
aa(lp2383
I1
aI5
aI5
aI7
aI0
aa(lp2384
I0
aI9
aI4
aI3
aI2
aa(lp2385
I5
aI4
aI8
aI5
aI1
aa(lp2386
I3
aI5
aI3
aI4
aI1
aa(lp2387
I2
aI7
aI5
aI0
aI0
aa(lp2388
I1
aI3
aI2
aI4
aI0
aa(lp2389
I4
aI3
aI2
aI4
aI0
aa(lp2390
I7
aI2
aI9
aI5
aI0
aa(lp2391
I2
aI7
aI4
aI7
aI0
aa(lp2392
I2
aI4
aI3
aI4
aI1
aa(lp2393
I4
aI12
aI5
aI4
aI1
aa(lp2394
I3
aI6
aI6
aI3
aI0
aa(lp2395
I1
aI3
aI1
aI1
aI0
aa(lp2396
I3
aI7
aI4
aI3
aI0
aa(lp2397
I2
aI7
aI4
aI5
aI0
aa(lp2398
I4
aI4
aI5
aI1
aI0
aa(lp2399
I1
aI9
aI12
aI5
aI0
aa(lp2400
I4
aI12
aI3
aI4
aI0
aa(lp2401
I3
aI3
aI2
aI11
aI0
aa(lp2402
I0
aI3
aI6
aI5
aI0
aa(lp2403
I3
aI6
aI4
aI3
aI1
aa(lp2404
I5
aI5
aI5
aI2
aI1
aa(lp2405
I1
aI11
aI5
aI3
aI0
aa(lp2406
I3
aI9
aI2
aI7
aI1
aa(lp2407
I1
aI2
aI3
aI3
aI0
aa(lp2408
I1
aI4
aI3
aI3
aI0
aa(lp2409
I1
aI4
aI1
aI1
aI0
aa(lp2410
I1
aI10
aI1
aI1
aI0
aa(lp2411
I0
aI6
aI4
aI0
aI0
aa(lp2412
I3
aI9
aI3
aI1
aI1
aa(lp2413
I2
aI4
aI1
aI3
aI0
aa(lp2414
I4
aI4
aI8
aI4
aI0
aa(lp2415
I1
aI4
aI0
aI7
aI0
aa(lp2416
I1
aI5
aI2
aI4
aI0
aa(lp2417
I1
aI7
aI3
aI1
aI1
aa(lp2418
I1
aI5
aI9
aI2
aI0
aa(lp2419
I1
aI2
aI9
aI4
aI0
aa(lp2420
I1
aI7
aI4
aI4
aI0
aa(lp2421
I2
aI6
aI6
aI4
aI0
aa(lp2422
I1
aI5
aI2
aI1
aI0
aa(lp2423
I2
aI5
aI2
aI3
aI1
aa(lp2424
I1
aI8
aI4
aI3
aI0
aa(lp2425
I2
aI7
aI3
aI6
aI0
aa(lp2426
I5
aI4
aI5
aI2
aI2
aa(lp2427
I0
aI5
aI3
aI2
aI0
aa(lp2428
I1
aI12
aI3
aI3
aI0
aa(lp2429
I0
aI7
aI3
aI3
aI0
aa(lp2430
I2
aI13
aI2
aI2
aI0
aa(lp2431
I0
aI5
aI5
aI1
aI0
aa(lp2432
I5
aI8
aI4
aI2
aI0
aa(lp2433
I2
aI2
aI11
aI3
aI0
aa(lp2434
I1
aI3
aI3
aI2
aI1
aa(lp2435
I0
aI9
aI5
aI4
aI0
aa(lp2436
I3
aI11
aI3
aI3
aI2
aa(lp2437
I3
aI4
aI2
aI3
aI0
aa(lp2438
I3
aI6
aI1
aI2
aI0
aa(lp2439
I1
aI8
aI6
aI0
aI0
aa(lp2440
I1
aI12
aI3
aI4
aI0
aa(lp2441
I2
aI8
aI6
aI2
aI0
aa(lp2442
I0
aI8
aI4
aI0
aI0
aa(lp2443
I1
aI6
aI3
aI1
aI0
aa(lp2444
I2
aI6
aI2
aI2
aI0
aa(lp2445
I1
aI1
aI10
aI2
aI0
aa(lp2446
I3
aI6
aI2
aI2
aI0
aa(lp2447
I1
aI8
aI6
aI3
aI0
aa(lp2448
I0
aI2
aI4
aI3
aI0
aa(lp2449
I2
aI2
aI3
aI1
aI0
aa(lp2450
I2
aI1
aI0
aI3
aI0
aa(lp2451
I1
aI4
aI0
aI1
aI0
aa(lp2452
I3
aI5
aI4
aI1
aI1
aa(lp2453
I1
aI5
aI7
aI0
aI0
aa(lp2454
I2
aI4
aI2
aI2
aI0
aa(lp2455
I0
aI1
aI3
aI2
aI0
aa(lp2456
I1
aI6
aI3
aI3
aI0
aa(lp2457
I1
aI3
aI4
aI0
aI1
aa(lp2458
I2
aI6
aI2
aI5
aI0
aa(lp2459
I2
aI3
aI3
aI2
aI1
aa(lp2460
I0
aI4
aI5
aI0
aI1
aa(lp2461
I1
aI2
aI3
aI3
aI0
aa(lp2462
I1
aI3
aI1
aI1
aI0
aa(lp2463
I2
aI3
aI3
aI3
aI0
aa(lp2464
I2
aI4
aI8
aI2
aI0
aa(lp2465
I3
aI2
aI1
aI0
aI0
aa(lp2466
I1
aI4
aI7
aI1
aI1
aa(lp2467
I1
aI4
aI2
aI2
aI0
aa(lp2468
I2
aI4
aI4
aI1
aI0
aa(lp2469
I1
aI4
aI3
aI3
aI1
aa(lp2470
I0
aI5
aI4
aI0
aI1
aa(lp2471
I1
aI8
aI2
aI3
aI0
aa(lp2472
I0
aI3
aI2
aI2
aI0
aa(lp2473
I0
aI2
aI3
aI1
aI0
aa(lp2474
I0
aI3
aI3
aI2
aI0
aa(lp2475
I1
aI4
aI1
aI1
aI0
aa(lp2476
I2
aI4
aI0
aI2
aI1
aa(lp2477
I2
aI7
aI5
aI0
aI0
aa(lp2478
I1
aI3
aI1
aI1
aI0
aa(lp2479
I1
aI3
aI4
aI1
aI0
aa(lp2480
I1
aI2
aI4
aI1
aI1
aa(lp2481
I1
aI4
aI4
aI7
aI1
aa(lp2482
I2
aI1
aI3
aI0
aI1
aa(lp2483
I2
aI3
aI5
aI3
aI0
aa(lp2484
I1
aI3
aI3
aI1
aI0
aa(lp2485
I3
aI1
aI3
aI2
aI0
aa(lp2486
I0
aI4
aI4
aI2
aI1
aa(lp2487
I0
aI2
aI4
aI1
aI0
aa(lp2488
I1
aI6
aI2
aI4
aI0
aa(lp2489
I1
aI6
aI6
aI0
aI1
aa(lp2490
I0
aI2
aI3
aI2
aI1
aa(lp2491
I2
aI1
aI1
aI1
aI0
aa(lp2492
I0
aI1
aI0
aI2
aI0
aa(lp2493
I0
aI2
aI0
aI2
aI0
aa(lp2494
I0
aI2
aI1
aI1
aI1
aa(lp2495
I1
aI5
aI1
aI0
aI0
aa(lp2496
I1
aI3
aI3
aI0
aI0
aa(lp2497
I1
aI6
aI2
aI1
aI0
aa(lp2498
I1
aI4
aI7
aI2
aI0
aa(lp2499
I0
aI3
aI3
aI2
aI0
aa(lp2500
I0
aI3
aI2
aI0
aI0
aa(lp2501
I0
aI3
aI4
aI0
aI0
aa(lp2502
I0
aI4
aI5
aI1
aI2
aa(lp2503
I1
aI6
aI1
aI0
aI0
aa(lp2504
I1
aI1
aI6
aI3
aI0
aa(lp2505
I1
aI2
aI3
aI1
aI1
aa(lp2506
I0
aI4
aI2
aI2
aI0
aa(lp2507
I0
aI3
aI4
aI2
aI0
aa(lp2508
I1
aI1
aI2
aI1
aI0
aa(lp2509
I3
aI5
aI0
aI1
aI0
aa(lp2510
I0
aI4
aI2
aI2
aI0
aa(lp2511
I1
aI6
aI3
aI3
aI0
aa(lp2512
I0
aI1
aI6
aI1
aI0
aa(lp2513
I0
aI4
aI1
aI0
aI0
aa(lp2514
I0
aI3
aI1
aI1
aI0
aa(lp2515
I2
aI4
aI5
aI3
aI0
aa(lp2516
I0
aI3
aI4
aI0
aI1
aa(lp2517
I2
aI4
aI5
aI2
aI0
aa(lp2518
I1
aI2
aI2
aI0
aI0
aa(lp2519
I2
aI4
aI2
aI0
aI0
aa(lp2520
I0
aI3
aI1
aI1
aI0
aa(lp2521
I0
aI0
aI2
aI1
aI0
aa(lp2522
I2
aI0
aI3
aI3
aI0
aa(lp2523
I0
aI1
aI1
aI1
aI0
aa(lp2524
I1
aI0
aI4
aI0
aI0
aa(lp2525
I0
aI4
aI2
aI0
aI0
aa(lp2526
I0
aI0
aI3
aI2
aI0
aa(lp2527
I1
aI3
aI5
aI0
aI0
aa(lp2528
I1
aI2
aI4
aI2
aI1
aa(lp2529
I2
aI3
aI0
aI3
aI0
aa(lp2530
I0
aI3
aI3
aI1
aI0
aa(lp2531
I0
aI3
aI2
aI1
aI0
aa(lp2532
I0
aI2
aI6
aI1
aI0
aa(lp2533
I2
aI1
aI0
aI1
aI0
aa(lp2534
I2
aI2
aI3
aI0
aI0
aa(lp2535
I0
aI4
aI2
aI0
aI1
aa(lp2536
I1
aI3
aI4
aI0
aI0
aa(lp2537
I1
aI3
aI6
aI3
aI0
aa(lp2538
I0
aI1
aI2
aI1
aI0
aa(lp2539
I0
aI3
aI4
aI0
aI0
aa(lp2540
I2
aI1
aI3
aI2
aI0
aa(lp2541
I2
aI2
aI2
aI1
aI0
aa(lp2542
I0
aI0
aI1
aI0
aI0
aa(lp2543
I3
aI2
aI1
aI0
aI0
aa(lp2544
I0
aI1
aI0
aI1
aI0
aa(lp2545
I1
aI2
aI4
aI1
aI0
aa(lp2546
I0
aI0
aI0
aI2
aI0
aa(lp2547
I0
aI0
aI1
aI1
aI0
aa(lp2548
I0
aI2
aI1
aI2
aI0
aa(lp2549
I0
aI1
aI4
aI0
aI0
aa(lp2550
I0
aI3
aI1
aI1
aI0
aa(lp2551
I0
aI0
aI1
aI0
aI0
aa(lp2552
I0
aI1
aI1
aI1
aI0
aa(lp2553
I0
aI0
aI1
aI0
aI0
aa(lp2554
I0
aI3
aI1
aI0
aI0
aa(lp2555
I1
aI2
aI0
aI0
aI0
aa(lp2556
I0
aI0
aI0
aI2
aI0
aa(lp2557
I1
aI2
aI0
aI0
aI0
aa(lp2558
I0
aI0
aI0
aI1
aI0
aa(lp2559
I0
aI1
aI2
aI1
aI0
aa(lp2560
I0
aI5
aI1
aI2
aI0
aa(lp2561
I1
aI0
aI1
aI1
aI0
aa(lp2562
I0
aI1
aI0
aI0
aI0
aa(lp2563
I0
aI0
aI2
aI2
aI0
aa(lp2564
I0
aI0
aI0
aI1
aI0
aa(lp2565
I2
aI0
aI3
aI1
aI0
aa(lp2566
I1
aI3
aI0
aI0
aI0
aa(lp2567
I1
aI2
aI4
aI2
aI0
aa(lp2568
I0
aI1
aI2
aI2
aI0
aa(lp2569
I0
aI1
aI0
aI0
aI1
aa(lp2570
I0
aI0
aI0
aI0
aI0
aa(lp2571
I0
aI0
aI0
aI0
aI0
aa(lp2572
I0
aI1
aI0
aI0
aI0
aa(lp2573
I0
aI1
aI0
aI2
aI0
aa(lp2574
I0
aI1
aI0
aI1
aI0
aa(lp2575
I0
aI0
aI0
aI1
aI0
aa(lp2576
I0
aI0
aI1
aI0
aI0
aa(lp2577
I0
aI0
aI3
aI0
aI0
aa(lp2578
I0
aI1
aI1
aI0
aI0
aa(lp2579
I0
aI2
aI1
aI1
aI0
aa(lp2580
I0
aI2
aI5
aI1
aI0
aa(lp2581
I0
aI2
aI2
aI1
aI0
aa(lp2582
I0
aI2
aI4
aI1
aI0
aa(lp2583
I0
aI0
aI0
aI1
aI0
aa(lp2584
I2
aI3
aI0
aI0
aI0
aa(lp2585
I3
aI3
aI2
aI0
aI0
aa(lp2586
I0
aI2
aI3
aI1
aI0
aa(lp2587
I0
aI1
aI1
aI1
aI0
aa(lp2588
I0
aI3
aI2
aI3
aI0
aa(lp2589
I0
aI2
aI2
aI2
aI0
aa(lp2590
I0
aI2
aI3
aI1
aI0
aa(lp2591
I0
aI0
aI2
aI0
aI0
aa(lp2592
I0
aI0
aI3
aI1
aI0
aa(lp2593
I1
aI3
aI3
aI1
aI0
aa(lp2594
I0
aI2
aI4
aI0
aI0
aa(lp2595
I1
aI3
aI2
aI0
aI0
aa(lp2596
I1
aI1
aI1
aI0
aI0
aa(lp2597
I1
aI1
aI0
aI0
aI0
aa(lp2598
I1
aI2
aI0
aI1
aI0
aa(lp2599
I0
aI0
aI0
aI2
aI0
aa(lp2600
I0
aI1
aI6
aI2
aI0
aa(lp2601
I0
aI0
aI2
aI0
aI0
aa(lp2602
I0
aI2
aI1
aI1
aI0
aa(lp2603
I0
aI2
aI4
aI0
aI0
aa(lp2604
I0
aI2
aI2
aI0
aI0
aa(lp2605
I0
aI0
aI0
aI0
aI0
aa(lp2606
I1
aI4
aI0
aI1
aI0
aa(lp2607
I0
aI3
aI1
aI1
aI0
aa(lp2608
I1
aI2
aI3
aI1
aI0
aa(lp2609
I1
aI2
aI4
aI0
aI0
aa(lp2610
I0
aI5
aI3
aI1
aI0
aa(lp2611
I0
aI0
aI2
aI1
aI0
aa(lp2612
I0
aI3
aI0
aI1
aI0
aa(lp2613
I1
aI3
aI1
aI0
aI0
aa(lp2614
I2
aI2
aI3
aI0
aI0
aa(lp2615
I0
aI1
aI3
aI1
aI0
aa(lp2616
I1
aI0
aI2
aI0
aI0
aa(lp2617
I0
aI3
aI1
aI1
aI0
aa(lp2618
I0
aI0
aI2
aI0
aI0
aa(lp2619
I1
aI1
aI0
aI2
aI0
aa(lp2620
I0
aI1
aI2
aI2
aI0
aa(lp2621
I0
aI1
aI0
aI2
aI0
aa(lp2622
I1
aI3
aI3
aI1
aI0
aa(lp2623
I0
aI0
aI0
aI2
aI0
aa(lp2624
I1
aI4
aI3
aI0
aI1
aa(lp2625
I1
aI3
aI2
aI0
aI1
aa(lp2626
I0
aI0
aI1
aI2
aI1
aa(lp2627
I0
aI3
aI3
aI1
aI0
aa(lp2628
I0
aI5
aI2
aI4
aI0
aa(lp2629
I0
aI2
aI2
aI0
aI0
aa(lp2630
I1
aI1
aI6
aI0
aI0
aa(lp2631
I0
aI3
aI3
aI1
aI0
aa(lp2632
I0
aI1
aI2
aI0
aI0
aa(lp2633
I0
aI1
aI4
aI1
aI1
aa(lp2634
I0
aI3
aI2
aI0
aI0
aa(lp2635
I1
aI1
aI4
aI0
aI0
aa(lp2636
I0
aI0
aI5
aI0
aI0
aa(lp2637
I0
aI2
aI4
aI0
aI1
aa(lp2638
I1
aI1
aI2
aI1
aI0
aa(lp2639
I0
aI1
aI0
aI2
aI0
aa(lp2640
I1
aI3
aI4
aI1
aI0
aa(lp2641
I3
aI5
aI1
aI1
aI0
aa(lp2642
I0
aI0
aI2
aI0
aI0
aa(lp2643
I0
aI1
aI1
aI0
aI0
aa(lp2644
I1
aI1
aI1
aI2
aI0
aa(lp2645
I1
aI0
aI1
aI0
aI0
aa(lp2646
I1
aI1
aI4
aI1
aI0
aa(lp2647
I0
aI3
aI1
aI0
aI0
aa(lp2648
I1
aI5
aI2
aI1
aI0
aa(lp2649
I1
aI1
aI0
aI1
aI0
aa(lp2650
I1
aI6
aI1
aI2
aI0
aa(lp2651
I0
aI1
aI6
aI0
aI0
aa(lp2652
I0
aI3
aI0
aI0
aI0
aa(lp2653
I1
aI0
aI1
aI0
aI0
aa(lp2654
I0
aI1
aI3
aI2
aI0
aa(lp2655
I0
aI4
aI2
aI1
aI0
aa(lp2656
I1
aI1
aI3
aI1
aI0
aa(lp2657
I0
aI0
aI0
aI5
aI0
aa(lp2658
I1
aI2
aI4
aI0
aI0
aa(lp2659
I0
aI2
aI4
aI1
aI0
aa(lp2660
I1
aI6
aI2
aI0
aI0
aa(lp2661
I1
aI2
aI2
aI2
aI1
aa(lp2662
I1
aI0
aI9
aI1
aI0
aa(lp2663
I1
aI6
aI6
aI1
aI1
aa(lp2664
I2
aI3
aI4
aI0
aI0
aa(lp2665
I2
aI2
aI1
aI3
aI0
aa(lp2666
I1
aI7
aI4
aI2
aI0
aa(lp2667
I0
aI5
aI2
aI2
aI0
aa(lp2668
I0
aI1
aI1
aI0
aI0
aa(lp2669
I1
aI1
aI1
aI0
aI0
aa(lp2670
I1
aI1
aI2
aI2
aI0
aa(lp2671
I2
aI3
aI5
aI0
aI0
aa(lp2672
I0
aI2
aI1
aI0
aI0
aa(lp2673
I0
aI1
aI1
aI2
aI0
aa(lp2674
I3
aI5
aI1
aI2
aI0
aa(lp2675
I1
aI1
aI4
aI2
aI0
aa(lp2676
I0
aI0
aI2
aI2
aI1
aa(lp2677
I0
aI3
aI2
aI0
aI0
aa(lp2678
I1
aI4
aI7
aI1
aI0
aa(lp2679
I2
aI2
aI2
aI1
aI0
aa(lp2680
I1
aI1
aI0
aI1
aI0
aa(lp2681
I2
aI2
aI4
aI1
aI0
aa(lp2682
I2
aI4
aI2
aI2
aI1
aa(lp2683
I2
aI1
aI5
aI3
aI0
aa(lp2684
I2
aI3
aI2
aI0
aI0
aa(lp2685
I1
aI3
aI2
aI3
aI0
aa(lp2686
I0
aI3
aI2
aI1
aI0
aa(lp2687
I2
aI4
aI4
aI6
aI1
aa(lp2688
I3
aI3
aI4
aI4
aI0
aa(lp2689
I1
aI2
aI3
aI0
aI0
aa(lp2690
I0
aI3
aI1
aI3
aI0
aa(lp2691
I1
aI1
aI2
aI0
aI0
aa(lp2692
I2
aI2
aI3
aI4
aI0
aa(lp2693
I1
aI2
aI2
aI5
aI0
aa(lp2694
I2
aI1
aI4
aI2
aI0
aa(lp2695
I1
aI3
aI0
aI0
aI0
aa(lp2696
I0
aI2
aI5
aI0
aI0
aa(lp2697
I0
aI3
aI5
aI0
aI0
aa(lp2698
I1
aI3
aI4
aI4
aI1
aa(lp2699
I0
aI3
aI1
aI1
aI1
aa(lp2700
I0
aI5
aI5
aI0
aI0
aa(lp2701
I2
aI2
aI5
aI0
aI0
aa(lp2702
I2
aI8
aI5
aI6
aI0
aa(lp2703
I0
aI0
aI2
aI0
aI0
aa(lp2704
I2
aI4
aI4
aI4
aI0
aa(lp2705
I0
aI6
aI1
aI2
aI0
aa(lp2706
I3
aI2
aI5
aI0
aI0
aa(lp2707
I0
aI5
aI6
aI1
aI0
aa(lp2708
I2
aI3
aI2
aI3
aI0
aa(lp2709
I2
aI8
aI3
aI3
aI0
aa(lp2710
I0
aI3
aI2
aI1
aI0
aa(lp2711
I1
aI2
aI6
aI3
aI0
aa(lp2712
I3
aI6
aI4
aI2
aI1
aa(lp2713
I2
aI1
aI5
aI3
aI0
aa(lp2714
I0
aI8
aI4
aI1
aI0
aa(lp2715
I1
aI2
aI2
aI5
aI2
aa(lp2716
I3
aI5
aI3
aI5
aI0
aa(lp2717
I1
aI4
aI2
aI1
aI0
aa(lp2718
I4
aI3
aI2
aI3
aI0
aa(lp2719
I1
aI3
aI3
aI1
aI1
aa(lp2720
I0
aI6
aI3
aI1
aI0
aa(lp2721
I2
aI3
aI2
aI2
aI0
aa(lp2722
I1
aI1
aI0
aI0
aI0
aa(lp2723
I1
aI1
aI1
aI0
aI0
aa(lp2724
I2
aI3
aI1
aI0
aI1
aa(lp2725
I2
aI6
aI3
aI5
aI0
aa(lp2726
I1
aI4
aI3
aI2
aI0
aa(lp2727
I0
aI5
aI3
aI3
aI0
aa(lp2728
I4
aI3
aI2
aI0
aI0
aa(lp2729
I3
aI2
aI3
aI5
aI0
aa(lp2730
I0
aI3
aI2
aI1
aI0
aa(lp2731
I1
aI4
aI4
aI4
aI0
aa(lp2732
I3
aI6
aI5
aI1
aI0
aa(lp2733
I3
aI5
aI5
aI4
aI1
aa(lp2734
I1
aI8
aI6
aI1
aI0
aa(lp2735
I2
aI5
aI4
aI1
aI0
aa(lp2736
I2
aI4
aI2
aI4
aI0
aa(lp2737
I1
aI1
aI1
aI3
aI0
aa(lp2738
I3
aI3
aI2
aI2
aI0
aa(lp2739
I2
aI3
aI1
aI7
aI0
aa(lp2740
I1
aI6
aI3
aI2
aI0
aa(lp2741
I1
aI5
aI3
aI2
aI0
aa(lp2742
I2
aI5
aI0
aI0
aI0
aa(lp2743
I0
aI2
aI4
aI2
aI0
aa(lp2744
I1
aI6
aI1
aI3
aI0
aa(lp2745
I1
aI6
aI5
aI2
aI0
aa(lp2746
I2
aI9
aI4
aI2
aI1
aa(lp2747
I2
aI4
aI5
aI0
aI0
aa(lp2748
I1
aI6
aI1
aI5
aI1
aa(lp2749
I2
aI10
aI4
aI3
aI0
aa(lp2750
I2
aI8
aI2
aI5
aI0
aa(lp2751
I1
aI2
aI1
aI1
aI0
aa(lp2752
I0
aI3
aI0
aI2
aI0
aa(lp2753
I0
aI0
aI8
aI3
aI0
aa(lp2754
I1
aI6
aI6
aI1
aI0
aa(lp2755
I2
aI3
aI7
aI4
aI1
aa(lp2756
I4
aI7
aI2
aI1
aI0
aa(lp2757
I2
aI6
aI6
aI2
aI0
aa(lp2758
I2
aI9
aI6
aI4
aI0
aa(lp2759
I2
aI1
aI2
aI3
aI0
aa(lp2760
I1
aI14
aI6
aI5
aI0
aa(lp2761
I3
aI7
aI2
aI2
aI0
aa(lp2762
I2
aI4
aI4
aI1
aI1
aa(lp2763
I1
aI5
aI2
aI3
aI0
aa(lp2764
I3
aI7
aI7
aI2
aI0
aa(lp2765
I1
aI4
aI1
aI0
aI0
aa(lp2766
I0
aI2
aI0
aI3
aI0
aa(lp2767
I1
aI3
aI3
aI4
aI0
aa(lp2768
I2
aI7
aI1
aI1
aI1
aa(lp2769
I6
aI1
aI4
aI0
aI0
aa(lp2770
I1
aI7
aI1
aI3
aI1
aa(lp2771
I1
aI15
aI4
aI3
aI0
aa(lp2772
I1
aI6
aI2
aI2
aI1
aa(lp2773
I1
aI5
aI4
aI2
aI0
aa(lp2774
I2
aI8
aI6
aI3
aI1
aa(lp2775
I1
aI7
aI6
aI4
aI0
aa(lp2776
I3
aI7
aI3
aI3
aI0
aa(lp2777
I1
aI3
aI6
aI4
aI0
aa(lp2778
I3
aI7
aI6
aI5
aI0
aa(lp2779
I3
aI4
aI0
aI1
aI0
aa(lp2780
I1
aI5
aI4
aI3
aI0
aa(lp2781
I2
aI7
aI1
aI6
aI0
aa(lp2782
I1
aI4
aI5
aI2
aI0
aa(lp2783
I1
aI3
aI4
aI3
aI0
aa(lp2784
I2
aI4
aI5
aI3
aI1
aa(lp2785
I2
aI5
aI4
aI3
aI1
aa(lp2786
I1
aI6
aI3
aI1
aI0
aa(lp2787
I1
aI3
aI0
aI3
aI0
aa(lp2788
I2
aI6
aI5
aI3
aI0
aa(lp2789
I1
aI7
aI4
aI5
aI0
aa(lp2790
I1
aI3
aI6
aI3
aI0
aa(lp2791
I3
aI2
aI6
aI3
aI0
aa(lp2792
I1
aI8
aI1
aI4
aI1
aa(lp2793
I2
aI4
aI2
aI3
aI0
aa(lp2794
I1
aI4
aI3
aI3
aI0
aa(lp2795
I2
aI11
aI4
aI2
aI0
aa(lp2796
I1
aI5
aI6
aI4
aI0
aa(lp2797
I3
aI11
aI2
aI3
aI0
aa(lp2798
I2
aI1
aI1
aI3
aI0
aa(lp2799
I1
aI3
aI3
aI4
aI1
aa(lp2800
I0
aI5
aI2
aI2
aI0
aa(lp2801
I1
aI5
aI1
aI1
aI0
aa(lp2802
I0
aI4
aI3
aI0
aI0
aa(lp2803
I2
aI0
aI5
aI2
aI1
aa(lp2804
I1
aI7
aI3
aI5
aI1
aa(lp2805
I2
aI8
aI5
aI4
aI1
aa(lp2806
I1
aI5
aI4
aI3
aI1
aa(lp2807
I0
aI11
aI2
aI2
aI0
aa(lp2808
I2
aI5
aI1
aI3
aI1
aa(lp2809
I2
aI6
aI4
aI2
aI0
aa(lp2810
I1
aI5
aI2
aI2
aI0
aa(lp2811
I1
aI2
aI0
aI3
aI0
aa(lp2812
I1
aI5
aI8
aI2
aI0
aa(lp2813
I1
aI9
aI5
aI2
aI0
aa(lp2814
I3
aI3
aI2
aI2
aI0
aa(lp2815
I0
aI3
aI4
aI1
aI0
aa(lp2816
I4
aI4
aI5
aI3
aI0
aa(lp2817
I2
aI0
aI6
aI6
aI2
aa(lp2818
I1
aI9
aI2
aI1
aI0
aa(lp2819
I0
aI4
aI4
aI2
aI1
aa(lp2820
I2
aI2
aI5
aI2
aI0
aa(lp2821
I4
aI7
aI5
aI4
aI0
aa(lp2822
I0
aI3
aI2
aI2
aI1
aa(lp2823
I0
aI5
aI6
aI4
aI0
aa(lp2824
I1
aI7
aI4
aI1
aI0
aa(lp2825
I1
aI1
aI3
aI1
aI0
aa(lp2826
I1
aI2
aI4
aI3
aI0
aa(lp2827
I1
aI2
aI2
aI3
aI0
aa(lp2828
I0
aI6
aI2
aI3
aI0
aa(lp2829
I1
aI3
aI3
aI3
aI0
aa(lp2830
I0
aI7
aI1
aI0
aI0
aa(lp2831
I1
aI6
aI2
aI0
aI0
aa(lp2832
I1
aI3
aI1
aI1
aI0
aa(lp2833
I1
aI5
aI6
aI1
aI0
aa(lp2834
I1
aI4
aI5
aI2
aI0
aa(lp2835
I2
aI7
aI2
aI0
aI1
aa(lp2836
I2
aI1
aI3
aI1
aI1
aa(lp2837
I0
aI2
aI4
aI2
aI0
aa(lp2838
I0
aI3
aI2
aI2
aI0
aa(lp2839
I2
aI3
aI2
aI0
aI1
aa(lp2840
I3
aI5
aI3
aI2
aI0
aa(lp2841
I0
aI4
aI5
aI0
aI0
aa(lp2842
I0
aI6
aI3
aI0
aI0
aa(lp2843
I1
aI3
aI1
aI0
aI0
aa(lp2844
I2
aI3
aI3
aI4
aI0
aa(lp2845
I2
aI2
aI4
aI0
aI0
aa(lp2846
I1
aI3
aI3
aI1
aI0
aa(lp2847
I0
aI6
aI3
aI3
aI1
aa(lp2848
I0
aI2
aI5
aI1
aI0
aa(lp2849
I1
aI3
aI3
aI0
aI0
aa(lp2850
I0
aI2
aI3
aI0
aI0
aa(lp2851
I2
aI4
aI1
aI1
aI1
aa(lp2852
I0
aI2
aI1
aI0
aI0
aa(lp2853
I0
aI3
aI4
aI1
aI0
aa(lp2854
I0
aI4
aI3
aI1
aI0
aa(lp2855
I0
aI1
aI3
aI0
aI0
aa(lp2856
I0
aI0
aI3
aI2
aI0
aa(lp2857
I1
aI5
aI1
aI2
aI0
aa(lp2858
I1
aI4
aI4
aI1
aI0
aa(lp2859
I2
aI2
aI2
aI1
aI0
aa(lp2860
I1
aI3
aI1
aI0
aI0
aa(lp2861
I1
aI1
aI0
aI1
aI0
aa(lp2862
I1
aI1
aI2
aI0
aI1
aa(lp2863
I2
aI1
aI3
aI1
aI0
aa(lp2864
I2
aI2
aI4
aI3
aI0
aa(lp2865
I0
aI1
aI1
aI1
aI0
aa(lp2866
I1
aI2
aI3
aI1
aI0
aa(lp2867
I0
aI0
aI4
aI0
aI0
aa(lp2868
I0
aI2
aI6
aI0
aI0
aa(lp2869
I0
aI2
aI1
aI3
aI0
aa(lp2870
I2
aI4
aI2
aI1
aI0
aa(lp2871
I1
aI6
aI3
aI1
aI0
aa(lp2872
I0
aI3
aI3
aI4
aI0
aa(lp2873
I0
aI0
aI2
aI0
aI0
aa(lp2874
I0
aI4
aI5
aI1
aI0
aa(lp2875
I0
aI0
aI1
aI1
aI0
aa(lp2876
I0
aI3
aI2
aI0
aI0
aa(lp2877
I0
aI1
aI2
aI0
aI0
aa(lp2878
I0
aI0
aI1
aI0
aI0
aa(lp2879
I0
aI2
aI2
aI2
aI0
aa(lp2880
I0
aI3
aI2
aI0
aI1
aa(lp2881
I0
aI3
aI3
aI2
aI0
aa(lp2882
I0
aI5
aI0
aI2
aI0
aa(lp2883
I1
aI3
aI4
aI1
aI0
aa(lp2884
I1
aI1
aI2
aI0
aI0
aa(lp2885
I0
aI0
aI2
aI1
aI0
aa(lp2886
I0
aI3
aI1
aI1
aI1
aa(lp2887
I1
aI2
aI6
aI1
aI0
aa(lp2888
I0
aI3
aI1
aI1
aI0
aa(lp2889
I0
aI1
aI2
aI2
aI0
aa(lp2890
I0
aI1
aI3
aI0
aI0
aa(lp2891
I1
aI0
aI0
aI0
aI0
aa(lp2892
I0
aI0
aI0
aI0
aI0
aa(lp2893
I0
aI2
aI1
aI1
aI0
aa(lp2894
I0
aI1
aI0
aI0
aI0
aa(lp2895
I1
aI1
aI4
aI0
aI0
aa(lp2896
I0
aI0
aI1
aI0
aI0
aa(lp2897
I0
aI1
aI2
aI0
aI0
aa(lp2898
I0
aI1
aI0
aI0
aI0
aa(lp2899
I0
aI2
aI2
aI1
aI0
aa(lp2900
I0
aI3
aI3
aI1
aI0
aa(lp2901
I0
aI2
aI1
aI0
aI0
aa(lp2902
I0
aI0
aI0
aI2
aI0
aa(lp2903
I0
aI2
aI2
aI0
aI0
aa(lp2904
I0
aI3
aI2
aI2
aI0
aa(lp2905
I0
aI1
aI2
aI0
aI0
aa(lp2906
I0
aI1
aI3
aI0
aI0
aa(lp2907
I2
aI3
aI0
aI0
aI0
aa(lp2908
I0
aI1
aI2
aI2
aI0
aa(lp2909
I0
aI1
aI1
aI1
aI0
aa(lp2910
I0
aI0
aI3
aI1
aI0
aa(lp2911
I0
aI2
aI1
aI1
aI0
aa(lp2912
I0
aI1
aI0
aI0
aI0
aa(lp2913
I0
aI1
aI0
aI3
aI0
aa(lp2914
I0
aI2
aI1
aI0
aI0
aa(lp2915
I0
aI2
aI2
aI0
aI0
aa(lp2916
I0
aI0
aI0
aI0
aI0
aa(lp2917
I0
aI0
aI3
aI0
aI0
aa(lp2918
I0
aI1
aI1
aI0
aI0
aa(lp2919
I1
aI0
aI1
aI0
aI0
aa(lp2920
I2
aI2
aI2
aI0
aI0
aa(lp2921
I0
aI2
aI0
aI1
aI0
aa(lp2922
I0
aI0
aI0
aI1
aI0
aa(lp2923
I0
aI0
aI0
aI1
aI0
aa(lp2924
I0
aI0
aI5
aI1
aI0
aa(lp2925
I1
aI1
aI2
aI1
aI0
aa(lp2926
I1
aI2
aI2
aI1
aI0
aa(lp2927
I0
aI1
aI2
aI0
aI0
aa(lp2928
I0
aI0
aI1
aI1
aI0
aa(lp2929
I0
aI2
aI1
aI1
aI0
aa(lp2930
I0
aI2
aI1
aI2
aI0
aa(lp2931
I0
aI2
aI0
aI2
aI0
aa(lp2932
I0
aI2
aI2
aI0
aI0
aa(lp2933
I1
aI1
aI1
aI0
aI1
aa(lp2934
I0
aI3
aI0
aI0
aI0
aa(lp2935
I0
aI0
aI2
aI3
aI1
aa(lp2936
I4
aI0
aI2
aI0
aI0
aa(lp2937
I0
aI0
aI1
aI2
aI0
aa(lp2938
I0
aI1
aI4
aI0
aI0
aa(lp2939
I0
aI1
aI2
aI0
aI0
aa(lp2940
I0
aI1
aI1
aI0
aI0
aa(lp2941
I0
aI1
aI1
aI0
aI0
aa(lp2942
I0
aI1
aI1
aI0
aI0
aa(lp2943
I0
aI1
aI2
aI2
aI0
aa(lp2944
I0
aI0
aI3
aI0
aI0
aa(lp2945
I1
aI0
aI0
aI0
aI0
aa(lp2946
I0
aI1
aI2
aI0
aI0
aa(lp2947
I1
aI1
aI0
aI0
aI0
aa(lp2948
I0
aI0
aI3
aI0
aI0
aa(lp2949
I1
aI2
aI0
aI1
aI0
aa(lp2950
I0
aI1
aI1
aI0
aI0
aa(lp2951
I0
aI0
aI2
aI0
aI0
aa(lp2952
I0
aI2
aI2
aI0
aI0
aa(lp2953
I0
aI0
aI2
aI0
aI0
aa(lp2954
I1
aI5
aI1
aI0
aI0
aa(lp2955
I0
aI2
aI1
aI1
aI0
aa(lp2956
I0
aI0
aI1
aI1
aI0
aa(lp2957
I0
aI2
aI5
aI0
aI0
aa(lp2958
I0
aI0
aI2
aI1
aI0
aa(lp2959
I1
aI3
aI2
aI0
aI0
aa(lp2960
I0
aI1
aI1
aI0
aI0
aa(lp2961
I0
aI0
aI0
aI0
aI0
aa(lp2962
I0
aI0
aI1
aI1
aI0
aa(lp2963
I0
aI1
aI1
aI0
aI0
aa(lp2964
I0
aI0
aI1
aI0
aI0
aa(lp2965
I0
aI1
aI3
aI0
aI0
aa(lp2966
I0
aI1
aI2
aI1
aI0
aa(lp2967
I0
aI1
aI4
aI0
aI0
aa(lp2968
I0
aI1
aI0
aI0
aI0
aa(lp2969
I0
aI0
aI0
aI0
aI0
aa(lp2970
I0
aI0
aI1
aI0
aI0
aa(lp2971
I0
aI0
aI1
aI0
aI0
aa(lp2972
I0
aI0
aI0
aI0
aI0
aa(lp2973
I0
aI1
aI1
aI1
aI0
aa(lp2974
I0
aI1
aI1
aI0
aI0
aa(lp2975
I0
aI0
aI2
aI0
aI0
aa(lp2976
I0
aI3
aI1
aI1
aI0
aa(lp2977
I1
aI0
aI0
aI1
aI0
aa(lp2978
I0
aI1
aI1
aI0
aI0
aa(lp2979
I0
aI1
aI3
aI0
aI0
aa(lp2980
I0
aI0
aI0
aI0
aI0
aa(lp2981
I1
aI3
aI1
aI2
aI0
aa(lp2982
I0
aI1
aI1
aI1
aI0
aa(lp2983
I1
aI1
aI3
aI0
aI0
aa(lp2984
I0
aI1
aI2
aI1
aI0
aa(lp2985
I0
aI1
aI2
aI0
aI0
aa(lp2986
I0
aI2
aI0
aI1
aI0
aa(lp2987
I0
aI0
aI0
aI0
aI0
aa(lp2988
I0
aI1
aI0
aI1
aI0
aa(lp2989
I1
aI1
aI1
aI1
aI0
aa(lp2990
I1
aI0
aI1
aI1
aI0
aa(lp2991
I0
aI1
aI2
aI1
aI0
aa(lp2992
I0
aI1
aI0
aI0
aI0
aa(lp2993
I0
aI1
aI3
aI0
aI0
aa(lp2994
I0
aI0
aI3
aI1
aI0
aa(lp2995
I0
aI2
aI3
aI0
aI0
aa(lp2996
I0
aI3
aI0
aI2
aI0
aa(lp2997
I0
aI2
aI1
aI0
aI0
aa(lp2998
I0
aI2
aI1
aI1
aI1
aa(lp2999
I1
aI5
aI0
aI2
aI0
aa(lp3000
I0
aI3
aI1
aI0
aI1
aa(lp3001
I0
aI1
aI3
aI0
aI0
aa(lp3002
I0
aI1
aI0
aI2
aI0
aa(lp3003
I0
aI2
aI1
aI0
aI0
aa(lp3004
I0
aI0
aI1
aI0
aI0
aa(lp3005
I0
aI1
aI4
aI2
aI0
aa(lp3006
I0
aI0
aI1
aI0
aI0
aa(lp3007
I0
aI4
aI4
aI0
aI0
aa(lp3008
I1
aI1
aI0
aI2
aI0
aa(lp3009
I0
aI2
aI5
aI0
aI0
aa(lp3010
I1
aI4
aI0
aI0
aI0
aa(lp3011
I0
aI0
aI0
aI0
aI0
aa(lp3012
I1
aI2
aI0
aI2
aI0
aa(lp3013
I0
aI0
aI1
aI2
aI0
aa(lp3014
I0
aI1
aI0
aI0
aI0
aa(lp3015
I0
aI2
aI2
aI1
aI0
aa(lp3016
I0
aI4
aI2
aI0
aI0
aa(lp3017
I0
aI0
aI1
aI1
aI0
aa(lp3018
I1
aI2
aI0
aI1
aI0
aa(lp3019
I0
aI0
aI0
aI0
aI0
aa(lp3020
I1
aI0
aI0
aI0
aI0
aa(lp3021
I0
aI3
aI0
aI0
aI1
aa(lp3022
I0
aI2
aI0
aI1
aI0
aa(lp3023
I0
aI0
aI0
aI0
aI0
aa(lp3024
I1
aI2
aI0
aI2
aI0
aa(lp3025
I1
aI2
aI1
aI1
aI0
aa(lp3026
I0
aI4
aI1
aI3
aI0
aa(lp3027
I1
aI3
aI4
aI2
aI0
aa(lp3028
I2
aI5
aI3
aI2
aI0
aa(lp3029
I0
aI1
aI2
aI0
aI0
aa(lp3030
I0
aI3
aI1
aI1
aI0
aa(lp3031
I0
aI1
aI4
aI0
aI0
aa(lp3032
I1
aI1
aI2
aI0
aI0
aa(lp3033
I0
aI5
aI2
aI1
aI0
aa(lp3034
I1
aI2
aI2
aI3
aI0
aa(lp3035
I3
aI1
aI2
aI1
aI0
aa(lp3036
I0
aI2
aI3
aI3
aI0
aa(lp3037
I0
aI0
aI2
aI3
aI1
aa(lp3038
I0
aI2
aI0
aI1
aI0
aa(lp3039
I0
aI3
aI3
aI1
aI0
aa(lp3040
I0
aI4
aI1
aI0
aI0
aa(lp3041
I0
aI4
aI0
aI1
aI0
aa(lp3042
I2
aI3
aI2
aI3
aI1
aa(lp3043
I0
aI3
aI1
aI1
aI0
aa(lp3044
I2
aI5
aI3
aI0
aI0
aa(lp3045
I1
aI2
aI1
aI2
aI0
aa(lp3046
I2
aI4
aI3
aI2
aI1
aa(lp3047
I0
aI2
aI3
aI2
aI0
aa(lp3048
I0
aI2
aI5
aI1
aI0
aa(lp3049
I2
aI3
aI4
aI0
aI0
aa(lp3050
I0
aI2
aI0
aI4
aI0
aa(lp3051
I1
aI8
aI7
aI1
aI0
aa(lp3052
I4
aI1
aI4
aI0
aI1
aa(lp3053
I2
aI2
aI2
aI0
aI0
aa(lp3054
I0
aI4
aI4
aI1
aI0
aa(lp3055
I2
aI3
aI4
aI1
aI0
aa(lp3056
I1
aI3
aI4
aI2
aI0
aa(lp3057
I2
aI2
aI2
aI1
aI0
aa(lp3058
I0
aI1
aI3
aI2
aI0
aa(lp3059
I0
aI2
aI1
aI1
aI0
aa(lp3060
I2
aI4
aI2
aI0
aI0
aa(lp3061
I2
aI4
aI1
aI4
aI0
aa(lp3062
I0
aI7
aI3
aI0
aI0
aa(lp3063
I1
aI4
aI4
aI1
aI0
aa(lp3064
I2
aI1
aI2
aI0
aI0
aa(lp3065
I0
aI3
aI3
aI2
aI0
aa(lp3066
I3
aI2
aI2
aI1
aI0
aa(lp3067
I1
aI0
aI2
aI2
aI0
aa(lp3068
I0
aI0
aI0
aI0
aI0
aa(lp3069
I0
aI4
aI3
aI0
aI0
aa(lp3070
I0
aI2
aI3
aI0
aI0
aa(lp3071
I2
aI1
aI4
aI3
aI0
aa(lp3072
I3
aI1
aI4
aI0
aI0
aa(lp3073
I0
aI3
aI2
aI1
aI0
aa(lp3074
I0
aI0
aI1
aI0
aI0
aa(lp3075
I0
aI7
aI3
aI0
aI0
aa(lp3076
I1
aI4
aI3
aI1
aI0
aa(lp3077
I1
aI2
aI2
aI0
aI0
aa(lp3078
I0
aI5
aI6
aI0
aI0
aa(lp3079
I2
aI3
aI6
aI3
aI0
aa(lp3080
I1
aI4
aI1
aI0
aI0
aa(lp3081
I0
aI5
aI3
aI0
aI0
aa(lp3082
I6
aI8
aI5
aI1
aI1
aa(lp3083
I0
aI0
aI7
aI0
aI0
aa(lp3084
I0
aI6
aI4
aI0
aI0
aa(lp3085
I1
aI6
aI4
aI1
aI0
aa(lp3086
I1
aI4
aI5
aI1
aI0
aa(lp3087
I1
aI5
aI4
aI1
aI0
aa(lp3088
I0
aI5
aI3
aI3
aI0
aa(lp3089
I1
aI6
aI3
aI3
aI0
aa(lp3090
I2
aI1
aI9
aI2
aI0
aa(lp3091
I0
aI1
aI0
aI1
aI0
aa(lp3092
I0
aI3
aI7
aI3
aI0
aa(lp3093
I0
aI6
aI3
aI3
aI0
aa(lp3094
I2
aI4
aI1
aI0
aI0
aa(lp3095
I0
aI4
aI1
aI4
aI0
aa(lp3096
I2
aI6
aI3
aI6
aI0
aa(lp3097
I3
aI5
aI0
aI1
aI0
aa(lp3098
I4
aI2
aI3
aI6
aI0
aa(lp3099
I4
aI3
aI0
aI2
aI0
aa(lp3100
I1
aI5
aI3
aI1
aI1
aa(lp3101
I3
aI5
aI4
aI5
aI1
aa(lp3102
I1
aI8
aI4
aI0
aI0
aa(lp3103
I4
aI6
aI6
aI3
aI0
aa(lp3104
I0
aI12
aI8
aI1
aI0
aa(lp3105
I2
aI9
aI4
aI2
aI0
aa(lp3106
I2
aI10
aI3
aI8
aI0
aa(lp3107
I1
aI5
aI0
aI2
aI1
aa(lp3108
I0
aI3
aI3
aI2
aI0
aa(lp3109
I2
aI4
aI2
aI1
aI1
aa(lp3110
I2
aI8
aI7
aI4
aI0
aa(lp3111
I2
aI4
aI6
aI6
aI0
aa(lp3112
I0
aI9
aI6
aI4
aI1
aa(lp3113
I1
aI3
aI7
aI1
aI0
aa(lp3114
I4
aI4
aI3
aI1
aI0
aa(lp3115
I2
aI9
aI2
aI3
aI1
aa(lp3116
I2
aI6
aI2
aI3
aI0
aa(lp3117
I3
aI6
aI5
aI1
aI2
aa(lp3118
I2
aI2
aI9
aI2
aI0
aa(lp3119
I2
aI3
aI2
aI1
aI0
aa(lp3120
I1
aI13
aI3
aI2
aI1
aa(lp3121
I3
aI8
aI3
aI2
aI0
aa(lp3122
I2
aI6
aI2
aI0
aI1
aa(lp3123
I1
aI6
aI2
aI2
aI0
aa(lp3124
I1
aI3
aI2
aI4
aI0
aa(lp3125
I1
aI3
aI7
aI3
aI0
aa(lp3126
I2
aI5
aI7
aI1
aI0
aa(lp3127
I1
aI8
aI3
aI3
aI0
aa(lp3128
I1
aI2
aI3
aI5
aI1
aa(lp3129
I3
aI5
aI3
aI5
aI0
aa(lp3130
I1
aI3
aI0
aI3
aI0
aa(lp3131
I3
aI4
aI0
aI8
aI0
aa(lp3132
I1
aI5
aI3
aI1
aI0
aa(lp3133
I2
aI3
aI5
aI4
aI1
aa(lp3134
I4
aI3
aI11
aI0
aI0
aa(lp3135
I0
aI2
aI3
aI0
aI0
aa(lp3136
I4
aI7
aI2
aI2
aI0
aa(lp3137
I0
aI5
aI4
aI1
aI0
aa(lp3138
I1
aI2
aI6
aI0
aI1
aa(lp3139
I0
aI5
aI2
aI1
aI0
aa(lp3140
I2
aI8
aI7
aI2
aI0
aa(lp3141
I2
aI6
aI4
aI2
aI0
aa(lp3142
I3
aI7
aI6
aI2
aI1
aa(lp3143
I1
aI4
aI2
aI3
aI0
aa(lp3144
I0
aI3
aI3
aI3
aI0
aa(lp3145
I1
aI7
aI7
aI0
aI0
aa(lp3146
I2
aI6
aI4
aI2
aI0
aa(lp3147
I2
aI8
aI1
aI4
aI1
aa(lp3148
I2
aI2
aI4
aI2
aI0
aa(lp3149
I1
aI4
aI0
aI5
aI0
aa(lp3150
I3
aI4
aI6
aI5
aI0
aa(lp3151
I0
aI3
aI1
aI3
aI0
aa(lp3152
I4
aI10
aI2
aI4
aI1
aa(lp3153
I0
aI4
aI4
aI2
aI0
aa(lp3154
I1
aI10
aI0
aI1
aI0
aa(lp3155
I1
aI8
aI4
aI4
aI1
aa(lp3156
I2
aI5
aI6
aI1
aI0
aa(lp3157
I2
aI8
aI1
aI3
aI0
aa(lp3158
I4
aI3
aI2
aI2
aI0
aa(lp3159
I0
aI10
aI4
aI3
aI0
aa(lp3160
I0
aI7
aI6
aI2
aI1
aa(lp3161
I0
aI4
aI4
aI3
aI0
aa(lp3162
I1
aI8
aI5
aI0
aI0
aa(lp3163
I1
aI5
aI3
aI3
aI0
aa(lp3164
I1
aI4
aI2
aI3
aI0
aa(lp3165
I0
aI3
aI1
aI2
aI0
aa(lp3166
I1
aI5
aI3
aI1
aI0
aa(lp3167
I2
aI1
aI2
aI0
aI0
aa(lp3168
I1
aI5
aI3
aI2
aI0
aa(lp3169
I2
aI4
aI0
aI1
aI0
aa(lp3170
I5
aI5
aI6
aI3
aI2
aa(lp3171
I4
aI5
aI4
aI0
aI0
aa(lp3172
I3
aI5
aI4
aI3
aI1
aa(lp3173
I3
aI3
aI3
aI1
aI0
aa(lp3174
I1
aI3
aI6
aI1
aI0
aa(lp3175
I1
aI4
aI3
aI1
aI0
aa(lp3176
I2
aI6
aI8
aI2
aI0
aa(lp3177
I1
aI3
aI4
aI4
aI0
aa(lp3178
I2
aI6
aI2
aI3
aI0
aa(lp3179
I1
aI2
aI3
aI5
aI0
aa(lp3180
I2
aI4
aI2
aI1
aI0
aa(lp3181
I0
aI2
aI3
aI2
aI0
aa(lp3182
I1
aI2
aI4
aI4
aI0
aa(lp3183
I1
aI3
aI5
aI2
aI0
aa(lp3184
I0
aI1
aI3
aI5
aI2
aa(lp3185
I2
aI8
aI2
aI1
aI3
aa(lp3186
I0
aI2
aI2
aI1
aI1
aa(lp3187
I1
aI8
aI4
aI1
aI0
aa(lp3188
I1
aI3
aI2
aI2
aI0
aa(lp3189
I4
aI3
aI2
aI2
aI1
aa(lp3190
I0
aI3
aI5
aI2
aI0
aa(lp3191
I0
aI3
aI6
aI2
aI0
aa(lp3192
I3
aI7
aI2
aI4
aI0
aa(lp3193
I0
aI2
aI0
aI0
aI0
aa(lp3194
I0
aI4
aI3
aI2
aI0
aa(lp3195
I2
aI4
aI3
aI0
aI0
aa(lp3196
I0
aI5
aI4
aI0
aI1
aa(lp3197
I1
aI2
aI1
aI1
aI0
aa(lp3198
I0
aI5
aI6
aI0
aI0
aa(lp3199
I0
aI2
aI2
aI0
aI0
aa(lp3200
I1
aI2
aI0
aI0
aI0
aa(lp3201
I1
aI6
aI1
aI1
aI0
aa(lp3202
I0
aI6
aI3
aI1
aI0
aa(lp3203
I1
aI1
aI3
aI1
aI0
aa(lp3204
I0
aI4
aI6
aI0
aI0
aa(lp3205
I1
aI5
aI5
aI2
aI0
aa(lp3206
I3
aI2
aI2
aI5
aI0
aa(lp3207
I2
aI1
aI1
aI4
aI0
aa(lp3208
I0
aI4
aI2
aI4
aI1
aa(lp3209
I0
aI5
aI4
aI2
aI0
aa(lp3210
I0
aI5
aI2
aI3
aI0
aa(lp3211
I0
aI2
aI0
aI1
aI0
aa(lp3212
I0
aI7
aI3
aI2
aI1
aa(lp3213
I0
aI6
aI2
aI1
aI0
aa(lp3214
I0
aI0
aI0
aI1
aI0
aa(lp3215
I2
aI3
aI7
aI1
aI1
aa(lp3216
I1
aI3
aI3
aI1
aI1
aa(lp3217
I0
aI1
aI3
aI2
aI0
aa(lp3218
I1
aI3
aI1
aI2
aI0
aa(lp3219
I1
aI5
aI2
aI0
aI0
aa(lp3220
I2
aI1
aI1
aI1
aI0
aa(lp3221
I0
aI2
aI2
aI0
aI0
aa(lp3222
I0
aI0
aI3
aI0
aI0
aa(lp3223
I0
aI2
aI2
aI2
aI0
aa(lp3224
I1
aI2
aI1
aI0
aI0
aa(lp3225
I0
aI2
aI6
aI1
aI0
aa(lp3226
I1
aI1
aI6
aI0
aI0
aa(lp3227
I1
aI3
aI1
aI0
aI0
aa(lp3228
I1
aI3
aI2
aI2
aI1
aa(lp3229
I0
aI0
aI4
aI0
aI0
aa(lp3230
I2
aI4
aI1
aI0
aI0
aa(lp3231
I0
aI1
aI2
aI0
aI0
aa(lp3232
I0
aI0
aI2
aI1
aI1
aa(lp3233
I0
aI3
aI3
aI0
aI0
aa(lp3234
I1
aI1
aI1
aI0
aI0
aa(lp3235
I0
aI3
aI0
aI1
aI0
aa(lp3236
I1
aI5
aI4
aI0
aI0
aa(lp3237
I0
aI1
aI3
aI0
aI0
aa(lp3238
I1
aI5
aI2
aI0
aI0
aa(lp3239
I0
aI3
aI3
aI2
aI0
aa(lp3240
I1
aI2
aI1
aI0
aI0
aa(lp3241
I0
aI4
aI1
aI1
aI0
aa(lp3242
I1
aI1
aI0
aI0
aI0
aa(lp3243
I0
aI5
aI2
aI4
aI0
aa(lp3244
I2
aI1
aI3
aI0
aI1
aa(lp3245
I1
aI2
aI2
aI3
aI0
aa(lp3246
I2
aI0
aI7
aI0
aI0
aa(lp3247
I1
aI1
aI6
aI1
aI0
aa(lp3248
I1
aI4
aI2
aI1
aI0
aa(lp3249
I0
aI1
aI3
aI2
aI0
aa(lp3250
I1
aI0
aI2
aI0
aI1
aa(lp3251
I0
aI1
aI2
aI1
aI0
aa(lp3252
I2
aI0
aI2
aI2
aI0
aa(lp3253
I1
aI2
aI0
aI0
aI0
aa(lp3254
I0
aI1
aI0
aI1
aI0
aa(lp3255
I0
aI1
aI3
aI1
aI0
aa(lp3256
I0
aI5
aI0
aI1
aI0
aa(lp3257
I0
aI0
aI1
aI1
aI0
aa(lp3258
I1
aI3
aI1
aI0
aI0
aa(lp3259
I0
aI0
aI2
aI0
aI0
aa(lp3260
I0
aI1
aI2
aI0
aI1
aa(lp3261
I0
aI0
aI3
aI0
aI0
aa(lp3262
I0
aI0
aI1
aI0
aI0
aa(lp3263
I0
aI0
aI0
aI1
aI0
aa(lp3264
I0
aI2
aI0
aI0
aI0
aa(lp3265
I0
aI0
aI2
aI0
aI0
aa(lp3266
I0
aI0
aI0
aI0
aI0
aa(lp3267
I0
aI1
aI0
aI0
aI0
aa(lp3268
I2
aI1
aI2
aI3
aI0
aa(lp3269
I0
aI0
aI2
aI0
aI0
aa(lp3270
I0
aI0
aI1
aI1
aI0
aa(lp3271
I0
aI1
aI0
aI0
aI0
aa(lp3272
I0
aI1
aI0
aI2
aI0
aa(lp3273
I0
aI2
aI3
aI0
aI0
aa(lp3274
I0
aI2
aI3
aI0
aI0
aa(lp3275
I1
aI2
aI1
aI0
aI0
aa(lp3276
I1
aI3
aI0
aI0
aI0
aa(lp3277
I0
aI4
aI2
aI0
aI0
aa(lp3278
I0
aI0
aI0
aI0
aI0
aa(lp3279
I1
aI1
aI2
aI1
aI0
aa(lp3280
I0
aI1
aI1
aI1
aI0
aa(lp3281
I0
aI1
aI0
aI0
aI0
aa(lp3282
I1
aI0
aI0
aI0
aI0
aa(lp3283
I1
aI2
aI2
aI0
aI0
aa(lp3284
I0
aI3
aI0
aI1
aI0
aa(lp3285
I0
aI2
aI2
aI1
aI0
aa(lp3286
I0
aI1
aI2
aI0
aI0
aa(lp3287
I0
aI2
aI0
aI1
aI0
aa(lp3288
I0
aI0
aI0
aI2
aI0
aa(lp3289
I1
aI0
aI2
aI1
aI0
aa(lp3290
I0
aI0
aI2
aI1
aI0
aa(lp3291
I0
aI1
aI3
aI0
aI0
aa(lp3292
I0
aI0
aI3
aI0
aI0
aa(lp3293
I0
aI1
aI2
aI1
aI0
aa(lp3294
I0
aI1
aI1
aI1
aI0
aa(lp3295
I0
aI3
aI1
aI1
aI0
aa(lp3296
I0
aI1
aI0
aI0
aI0
aa(lp3297
I1
aI0
aI1
aI0
aI0
aa(lp3298
I0
aI0
aI0
aI1
aI0
aa(lp3299
I0
aI2
aI1
aI0
aI0
aa(lp3300
I0
aI1
aI3
aI0
aI0
aa(lp3301
I0
aI2
aI0
aI0
aI0
aa(lp3302
I0
aI0
aI0
aI0
aI0
aa(lp3303
I0
aI1
aI2
aI0
aI0
aa(lp3304
I0
aI3
aI0
aI1
aI0
aa(lp3305
I0
aI1
aI1
aI0
aI0
aa(lp3306
I0
aI1
aI0
aI0
aI0
aa(lp3307
I0
aI0
aI0
aI0
aI0
aa(lp3308
I0
aI2
aI0
aI0
aI0
aa(lp3309
I1
aI2
aI1
aI1
aI0
aa(lp3310
I0
aI0
aI0
aI1
aI0
aa(lp3311
I1
aI1
aI1
aI0
aI0
aa(lp3312
I0
aI0
aI0
aI0
aI0
aa(lp3313
I0
aI1
aI0
aI0
aI0
aa(lp3314
I0
aI1
aI1
aI0
aI0
aa(lp3315
I0
aI0
aI0
aI0
aI0
aa(lp3316
I0
aI1
aI0
aI0
aI0
aa(lp3317
I0
aI0
aI2
aI0
aI0
aa(lp3318
I0
aI1
aI3
aI1
aI0
aa(lp3319
I1
aI1
aI1
aI1
aI0
aa(lp3320
I0
aI1
aI2
aI0
aI0
aa(lp3321
I1
aI1
aI2
aI0
aI0
aa(lp3322
I0
aI2
aI1
aI0
aI0
aa(lp3323
I0
aI1
aI1
aI3
aI0
aa(lp3324
I1
aI2
aI0
aI0
aI0
aa(lp3325
I0
aI0
aI2
aI2
aI0
aa(lp3326
I0
aI0
aI0
aI0
aI0
aa(lp3327
I0
aI1
aI2
aI0
aI0
aa(lp3328
I0
aI2
aI3
aI1
aI0
aa(lp3329
I0
aI5
aI2
aI0
aI0
aa(lp3330
I0
aI0
aI1
aI1
aI0
aa(lp3331
I0
aI2
aI0
aI2
aI0
aa(lp3332
I0
aI1
aI0
aI2
aI0
aa(lp3333
I0
aI0
aI0
aI1
aI0
aa(lp3334
I0
aI0
aI0
aI0
aI0
aa(lp3335
I0
aI1
aI3
aI1
aI0
aa(lp3336
I0
aI1
aI1
aI0
aI0
aa(lp3337
I0
aI3
aI1
aI1
aI0
aa(lp3338
I1
aI0
aI2
aI1
aI0
aa(lp3339
I0
aI0
aI3
aI1
aI0
aa(lp3340
I0
aI2
aI0
aI0
aI0
aa(lp3341
I1
aI1
aI2
aI1
aI0
aa(lp3342
I0
aI0
aI2
aI0
aI0
aa(lp3343
I1
aI2
aI0
aI0
aI0
aa(lp3344
I0
aI0
aI2
aI0
aI0
aa(lp3345
I0
aI1
aI1
aI0
aI1
aa(lp3346
I0
aI2
aI1
aI2
aI0
aa(lp3347
I0
aI1
aI2
aI0
aI0
aa(lp3348
I1
aI2
aI1
aI1
aI0
aa(lp3349
I0
aI0
aI0
aI0
aI0
aa(lp3350
I0
aI2
aI4
aI2
aI0
aa(lp3351
I0
aI5
aI1
aI0
aI0
aa(lp3352
I0
aI1
aI3
aI1
aI0
aa(lp3353
I0
aI0
aI0
aI1
aI0
aa(lp3354
I1
aI2
aI3
aI1
aI0
aa(lp3355
I0
aI0
aI1
aI0
aI0
aa(lp3356
I0
aI1
aI1
aI0
aI0
aa(lp3357
I2
aI0
aI1
aI0
aI1
aa(lp3358
I0
aI3
aI1
aI0
aI0
aa(lp3359
I0
aI0
aI2
aI0
aI0
aa(lp3360
I0
aI0
aI0
aI0
aI0
aa(lp3361
I0
aI1
aI1
aI0
aI0
aa(lp3362
I0
aI4
aI1
aI2
aI0
aa(lp3363
I1
aI1
aI1
aI1
aI0
aa(lp3364
I0
aI0
aI1
aI1
aI0
aa(lp3365
I0
aI4
aI1
aI3
aI0
aa(lp3366
I0
aI1
aI4
aI1
aI0
aa(lp3367
I0
aI1
aI4
aI1
aI0
aa(lp3368
I0
aI2
aI3
aI0
aI0
aa(lp3369
I0
aI2
aI0
aI1
aI0
aa(lp3370
I0
aI1
aI4
aI0
aI0
aa(lp3371
I0
aI1
aI3
aI3
aI0
aa(lp3372
I1
aI2
aI0
aI0
aI0
aa(lp3373
I0
aI0
aI2
aI0
aI0
aa(lp3374
I0
aI0
aI4
aI2
aI0
aa(lp3375
I0
aI0
aI1
aI2
aI0
aa(lp3376
I1
aI2
aI2
aI1
aI0
aa(lp3377
I1
aI1
aI1
aI2
aI0
aa(lp3378
I0
aI2
aI2
aI1
aI0
aa(lp3379
I1
aI3
aI4
aI0
aI0
aa(lp3380
I0
aI1
aI2
aI0
aI0
aa(lp3381
I1
aI0
aI1
aI1
aI0
aa(lp3382
I0
aI0
aI0
aI0
aI0
aa(lp3383
I0
aI0
aI3
aI2
aI0
aa(lp3384
I1
aI2
aI1
aI2
aI0
aa(lp3385
I0
aI3
aI1
aI1
aI0
aa(lp3386
I0
aI1
aI4
aI0
aI1
aa(lp3387
I3
aI2
aI3
aI2
aI0
aa(lp3388
I0
aI1
aI2
aI0
aI0
aa(lp3389
I0
aI1
aI1
aI0
aI0
aa(lp3390
I0
aI2
aI1
aI1
aI0
aa(lp3391
I0
aI0
aI2
aI0
aI0
aa(lp3392
I1
aI0
aI1
aI1
aI0
aa(lp3393
I1
aI1
aI3
aI2
aI0
aa(lp3394
I0
aI4
aI1
aI0
aI0
aa(lp3395
I1
aI1
aI2
aI0
aI0
aa(lp3396
I0
aI1
aI3
aI3
aI1
aa(lp3397
I2
aI3
aI0
aI0
aI0
aa(lp3398
I1
aI2
aI6
aI1
aI0
aa(lp3399
I2
aI0
aI2
aI1
aI0
aa(lp3400
I2
aI4
aI6
aI3
aI2
aa(lp3401
I0
aI2
aI2
aI1
aI0
aa(lp3402
I1
aI4
aI2
aI0
aI0
aa(lp3403
I2
aI2
aI1
aI0
aI0
aa(lp3404
I1
aI1
aI2
aI1
aI0
aa(lp3405
I0
aI10
aI4
aI1
aI0
aa(lp3406
I2
aI5
aI1
aI0
aI0
aa(lp3407
I1
aI4
aI4
aI0
aI0
aa(lp3408
I1
aI5
aI6
aI2
aI0
aa(lp3409
I0
aI2
aI3
aI4
aI0
aa(lp3410
I2
aI1
aI4
aI1
aI0
aa(lp3411
I1
aI0
aI0
aI1
aI1
aa(lp3412
I5
aI5
aI4
aI2
aI0
aa(lp3413
I1
aI1
aI4
aI1
aI0
aa(lp3414
I1
aI1
aI1
aI3
aI0
aa(lp3415
I0
aI3
aI0
aI0
aI0
aa(lp3416
I3
aI1
aI2
aI1
aI0
aa(lp3417
I1
aI4
aI2
aI2
aI0
aa(lp3418
I2
aI3
aI5
aI2
aI1
aa(lp3419
I0
aI2
aI3
aI4
aI0
aa(lp3420
I1
aI2
aI2
aI2
aI0
aa(lp3421
I3
aI6
aI3
aI2
aI0
aa(lp3422
I1
aI0
aI2
aI1
aI0
aa(lp3423
I4
aI6
aI6
aI1
aI0
aa(lp3424
I3
aI4
aI3
aI4
aI1
aa(lp3425
I2
aI3
aI2
aI1
aI1
aa(lp3426
I0
aI3
aI0
aI1
aI0
aa(lp3427
I0
aI2
aI2
aI2
aI0
aa(lp3428
I2
aI4
aI1
aI1
aI0
aa(lp3429
I1
aI5
aI3
aI2
aI0
aa(lp3430
I1
aI7
aI3
aI1
aI0
aa(lp3431
I0
aI5
aI2
aI0
aI0
aa(lp3432
I0
aI3
aI2
aI2
aI0
aa(lp3433
I1
aI8
aI2
aI1
aI0
aa(lp3434
I1
aI1
aI4
aI1
aI0
aa(lp3435
I1
aI2
aI4
aI3
aI0
aa(lp3436
I0
aI7
aI3
aI3
aI0
aa(lp3437
I2
aI4
aI4
aI1
aI0
aa(lp3438
I1
aI3
aI2
aI0
aI0
aa(lp3439
I1
aI3
aI3
aI3
aI0
aa(lp3440
I3
aI3
aI2
aI1
aI0
aa(lp3441
I0
aI2
aI1
aI1
aI0
aa(lp3442
I1
aI1
aI2
aI1
aI2
aa(lp3443
I3
aI4
aI3
aI1
aI0
aa(lp3444
I0
aI1
aI3
aI0
aI0
aa(lp3445
I2
aI3
aI1
aI1
aI0
aa(lp3446
I0
aI5
aI4
aI3
aI2
aa(lp3447
I0
aI5
aI0
aI2
aI2
aa(lp3448
I3
aI4
aI2
aI1
aI0
aa(lp3449
I2
aI13
aI6
aI2
aI0
aa(lp3450
I2
aI8
aI5
aI4
aI0
aa(lp3451
I0
aI5
aI6
aI1
aI1
aa(lp3452
I1
aI4
aI4
aI2
aI0
aa(lp3453
I1
aI6
aI2
aI1
aI0
aa(lp3454
I2
aI3
aI4
aI2
aI2
aa(lp3455
I2
aI2
aI3
aI2
aI0
aa(lp3456
I0
aI5
aI5
aI2
aI0
aa(lp3457
I0
aI5
aI2
aI3
aI1
aa(lp3458
I1
aI3
aI2
aI4
aI1
aa(lp3459
I2
aI7
aI2
aI2
aI0
aa(lp3460
I0
aI8
aI1
aI0
aI2
aa(lp3461
I0
aI4
aI4
aI2
aI0
aa(lp3462
I3
aI6
aI4
aI1
aI0
aa(lp3463
I0
aI5
aI4
aI6
aI0
aa(lp3464
I0
aI1
aI1
aI1
aI0
aa(lp3465
I3
aI9
aI6
aI3
aI0
aa(lp3466
I5
aI6
aI3
aI1
aI0
aa(lp3467
I1
aI3
aI2
aI3
aI0
aa(lp3468
I5
aI4
aI1
aI6
aI0
aa(lp3469
I0
aI4
aI9
aI5
aI0
aa(lp3470
I2
aI10
aI4
aI3
aI0
aa(lp3471
I3
aI6
aI4
aI3
aI0
aa(lp3472
I2
aI4
aI1
aI4
aI0
aa(lp3473
I1
aI5
aI1
aI0
aI0
aa(lp3474
I1
aI5
aI3
aI3
aI0
aa(lp3475
I2
aI2
aI2
aI1
aI0
aa(lp3476
I1
aI4
aI9
aI2
aI0
aa(lp3477
I1
aI5
aI1
aI0
aI0
aa(lp3478
I1
aI5
aI7
aI1
aI0
aa(lp3479
I3
aI5
aI0
aI3
aI0
aa(lp3480
I1
aI6
aI3
aI1
aI1
aa(lp3481
I2
aI2
aI3
aI0
aI0
aa(lp3482
I1
aI2
aI2
aI0
aI0
aa(lp3483
I3
aI4
aI1
aI2
aI0
aa(lp3484
I2
aI10
aI3
aI3
aI0
aa(lp3485
I0
aI5
aI4
aI3
aI0
aa(lp3486
I0
aI1
aI1
aI3
aI0
aa(lp3487
I0
aI4
aI2
aI2
aI0
aa(lp3488
I2
aI8
aI3
aI5
aI0
aa(lp3489
I0
aI7
aI5
aI1
aI1
aa(lp3490
I1
aI3
aI5
aI1
aI0
aa(lp3491
I2
aI4
aI3
aI2
aI1
aa(lp3492
I2
aI2
aI3
aI2
aI0
aa(lp3493
I1
aI5
aI2
aI1
aI0
aa(lp3494
I1
aI4
aI4
aI0
aI1
aa(lp3495
I2
aI9
aI7
aI1
aI1
aa(lp3496
I1
aI6
aI4
aI3
aI0
aa(lp3497
I2
aI4
aI2
aI3
aI0
aa(lp3498
I2
aI2
aI1
aI2
aI0
aa(lp3499
I1
aI5
aI8
aI4
aI3
aa(lp3500
I3
aI2
aI1
aI2
aI1
aa(lp3501
I0
aI4
aI2
aI0
aI0
aa(lp3502
I1
aI6
aI0
aI0
aI0
aa(lp3503
I2
aI8
aI4
aI2
aI0
aa(lp3504
I5
aI8
aI0
aI0
aI0
aa(lp3505
I5
aI4
aI4
aI5
aI0
aa(lp3506
I2
aI4
aI3
aI6
aI1
aa(lp3507
I1
aI4
aI2
aI2
aI0
aa(lp3508
I1
aI8
aI3
aI0
aI0
aa(lp3509
I2
aI7
aI5
aI2
aI0
aa(lp3510
I2
aI5
aI6
aI0
aI0
aa(lp3511
I0
aI1
aI3
aI4
aI0
aa(lp3512
I1
aI4
aI7
aI4
aI0
aa(lp3513
I1
aI2
aI2
aI2
aI0
aa(lp3514
I0
aI5
aI4
aI1
aI0
aa(lp3515
I0
aI0
aI0
aI2
aI0
aa(lp3516
I5
aI5
aI3
aI3
aI0
aa(lp3517
I0
aI10
aI2
aI2
aI0
aa(lp3518
I0
aI7
aI4
aI2
aI0
aa(lp3519
I3
aI5
aI2
aI0
aI0
aa(lp3520
I1
aI4
aI9
aI3
aI0
aa(lp3521
I1
aI5
aI4
aI2
aI1
aa(lp3522
I0
aI4
aI4
aI2
aI0
aa(lp3523
I0
aI4
aI6
aI1
aI0
aa(lp3524
I1
aI8
aI4
aI3
aI0
aa(lp3525
I2
aI6
aI4
aI2
aI0
aa(lp3526
I2
aI9
aI6
aI0
aI1
aa(lp3527
I0
aI12
aI3
aI4
aI1
aa(lp3528
I2
aI6
aI7
aI3
aI1
aa(lp3529
I2
aI6
aI2
aI2
aI0
aa(lp3530
I1
aI6
aI2
aI0
aI1
aa(lp3531
I1
aI5
aI3
aI1
aI1
aa(lp3532
I0
aI6
aI3
aI2
aI0
aa(lp3533
I2
aI2
aI6
aI3
aI0
aa(lp3534
I2
aI4
aI2
aI2
aI0
aa(lp3535
I3
aI5
aI0
aI2
aI1
aa(lp3536
I0
aI5
aI3
aI2
aI0
aa(lp3537
I0
aI3
aI4
aI2
aI0
aa(lp3538
I0
aI4
aI7
aI1
aI0
aa(lp3539
I2
aI5
aI5
aI0
aI0
aa(lp3540
I2
aI6
aI5
aI0
aI0
aa(lp3541
I2
aI4
aI4
aI5
aI0
aa(lp3542
I1
aI4
aI0
aI3
aI0
aa(lp3543
I3
aI1
aI6
aI3
aI0
aa(lp3544
I0
aI4
aI3
aI0
aI1
aa(lp3545
I0
aI5
aI0
aI2
aI0
aa(lp3546
I3
aI0
aI4
aI3
aI0
aa(lp3547
I1
aI1
aI5
aI3
aI0
aa(lp3548
I1
aI7
aI2
aI2
aI1
aa(lp3549
I0
aI1
aI1
aI0
aI0
aa(lp3550
I1
aI1
aI3
aI2
aI0
aa(lp3551
I1
aI3
aI5
aI1
aI0
aa(lp3552
I0
aI2
aI3
aI1
aI0
aa(lp3553
I4
aI2
aI8
aI2
aI0
aa(lp3554
I1
aI2
aI3
aI4
aI0
aa(lp3555
I1
aI8
aI5
aI4
aI0
aa(lp3556
I0
aI2
aI1
aI2
aI0
aa(lp3557
I1
aI4
aI3
aI1
aI0
aa(lp3558
I1
aI3
aI3
aI0
aI0
aa(lp3559
I0
aI1
aI3
aI3
aI0
aa(lp3560
I2
aI3
aI0
aI0
aI0
aa(lp3561
I2
aI3
aI0
aI0
aI0
aa(lp3562
I1
aI3
aI3
aI1
aI1
aa(lp3563
I1
aI3
aI1
aI1
aI1
aa(lp3564
I2
aI3
aI0
aI2
aI0
aa(lp3565
I0
aI5
aI4
aI0
aI0
aa(lp3566
I0
aI8
aI5
aI3
aI0
aa(lp3567
I2
aI1
aI3
aI1
aI0
aa(lp3568
I1
aI7
aI1
aI1
aI0
aa(lp3569
I2
aI6
aI3
aI3
aI0
aa(lp3570
I0
aI2
aI0
aI2
aI0
aa(lp3571
I2
aI1
aI1
aI5
aI0
aa(lp3572
I1
aI1
aI3
aI0
aI0
aa(lp3573
I1
aI2
aI2
aI0
aI0
aa(lp3574
I1
aI2
aI2
aI6
aI0
aa(lp3575
I3
aI1
aI7
aI1
aI0
aa(lp3576
I0
aI2
aI1
aI2
aI1
aa(lp3577
I0
aI3
aI1
aI0
aI0
aa(lp3578
I0
aI5
aI2
aI0
aI0
aa(lp3579
I1
aI2
aI1
aI0
aI0
aa(lp3580
I1
aI1
aI3
aI1
aI1
aa(lp3581
I0
aI0
aI4
aI1
aI0
aa(lp3582
I0
aI3
aI4
aI1
aI0
aa(lp3583
I0
aI2
aI1
aI2
aI0
aa(lp3584
I0
aI2
aI3
aI1
aI0
aa(lp3585
I1
aI1
aI3
aI0
aI0
aa(lp3586
I0
aI4
aI1
aI1
aI0
aa(lp3587
I0
aI0
aI0
aI1
aI0
aa(lp3588
I1
aI3
aI3
aI3
aI0
aa(lp3589
I2
aI5
aI3
aI2
aI0
aa(lp3590
I2
aI5
aI2
aI1
aI0
aa(lp3591
I0
aI3
aI0
aI5
aI0
aa(lp3592
I1
aI4
aI3
aI1
aI0
aa(lp3593
I1
aI3
aI5
aI0
aI0
aa(lp3594
I0
aI3
aI1
aI2
aI0
aa(lp3595
I0
aI5
aI4
aI2
aI0
aa(lp3596
I2
aI1
aI7
aI2
aI0
aa(lp3597
I3
aI2
aI3
aI0
aI0
aa(lp3598
I0
aI3
aI1
aI1
aI0
aa(lp3599
I1
aI0
aI2
aI0
aI1
aa(lp3600
I0
aI1
aI0
aI0
aI0
aa(lp3601
I1
aI2
aI2
aI1
aI0
aa(lp3602
I0
aI5
aI4
aI0
aI0
aa(lp3603
I0
aI1
aI1
aI1
aI0
aa(lp3604
I2
aI3
aI5
aI1
aI0
aa(lp3605
I1
aI0
aI1
aI3
aI0
aa(lp3606
I0
aI1
aI0
aI3
aI0
aa(lp3607
I0
aI2
aI2
aI1
aI0
aa(lp3608
I0
aI0
aI1
aI0
aI0
aa(lp3609
I1
aI3
aI1
aI1
aI0
aa(lp3610
I0
aI6
aI3
aI1
aI0
aa(lp3611
I1
aI3
aI1
aI1
aI1
aa(lp3612
I0
aI2
aI1
aI1
aI0
aa(lp3613
I0
aI1
aI0
aI0
aI0
aa(lp3614
I0
aI0
aI2
aI0
aI0
aa(lp3615
I0
aI4
aI5
aI0
aI0
aa(lp3616
I0
aI0
aI1
aI1
aI0
aa(lp3617
I0
aI1
aI0
aI0
aI0
aa(lp3618
I0
aI3
aI3
aI0
aI0
aa(lp3619
I1
aI3
aI0
aI1
aI1
aa(lp3620
I0
aI0
aI0
aI2
aI0
aa(lp3621
I0
aI4
aI3
aI0
aI0
aa(lp3622
I2
aI2
aI3
aI1
aI0
aa(lp3623
I0
aI1
aI2
aI0
aI0
aa(lp3624
I0
aI1
aI0
aI2
aI0
aa(lp3625
I1
aI3
aI1
aI0
aI0
aa(lp3626
I0
aI1
aI3
aI1
aI0
aa(lp3627
I0
aI4
aI1
aI0
aI0
aa(lp3628
I0
aI0
aI0
aI2
aI0
aa(lp3629
I0
aI2
aI1
aI1
aI0
aa(lp3630
I0
aI1
aI0
aI0
aI1
aa(lp3631
I0
aI2
aI0
aI0
aI0
aa(lp3632
I0
aI1
aI2
aI0
aI0
aa(lp3633
I1
aI3
aI1
aI2
aI0
aa(lp3634
I0
aI0
aI1
aI2
aI0
aa(lp3635
I0
aI3
aI2
aI0
aI0
aa(lp3636
I0
aI0
aI1
aI0
aI0
aa(lp3637
I0
aI0
aI2
aI0
aI0
aa(lp3638
I0
aI6
aI1
aI1
aI0
aa(lp3639
I0
aI2
aI2
aI0
aI1
aa(lp3640
I0
aI0
aI1
aI0
aI0
aa(lp3641
I2
aI4
aI1
aI0
aI0
aa(lp3642
I1
aI0
aI1
aI0
aI0
aa(lp3643
I0
aI1
aI4
aI0
aI0
aa(lp3644
I0
aI2
aI0
aI0
aI0
aa(lp3645
I0
aI2
aI2
aI1
aI0
aa(lp3646
I0
aI0
aI1
aI0
aI0
aa(lp3647
I0
aI1
aI1
aI0
aI0
aa(lp3648
I0
aI1
aI0
aI0
aI1
aa(lp3649
I0
aI1
aI0
aI0
aI0
aa(lp3650
I2
aI1
aI1
aI1
aI0
aa(lp3651
I0
aI1
aI1
aI1
aI0
aa(lp3652
I0
aI0
aI2
aI1
aI0
aa(lp3653
I0
aI0
aI3
aI0
aI0
aa(lp3654
I1
aI2
aI0
aI1
aI0
aa(lp3655
I1
aI2
aI2
aI0
aI0
aa(lp3656
I0
aI1
aI2
aI0
aI0
aa(lp3657
I0
aI1
aI2
aI0
aI0
aa(lp3658
I1
aI3
aI0
aI0
aI0
aa(lp3659
I0
aI2
aI0
aI1
aI0
aa(lp3660
I0
aI0
aI0
aI0
aI0
aa(lp3661
I0
aI2
aI0
aI0
aI0
aa(lp3662
I0
aI0
aI3
aI1
aI0
aa(lp3663
I0
aI2
aI1
aI1
aI0
aa(lp3664
I0
aI1
aI1
aI2
aI0
aa(lp3665
I0
aI0
aI3
aI0
aI0
aa(lp3666
I0
aI2
aI2
aI0
aI0
aa(lp3667
I0
aI1
aI0
aI0
aI0
aa(lp3668
I0
aI0
aI1
aI0
aI0
aa(lp3669
I0
aI2
aI0
aI0
aI0
aa(lp3670
I0
aI2
aI2
aI0
aI0
aa(lp3671
I0
aI0
aI2
aI0
aI0
aa(lp3672
I0
aI2
aI1
aI0
aI0
aa(lp3673
I0
aI0
aI2
aI0
aI0
aa(lp3674
I0
aI2
aI0
aI0
aI0
aa(lp3675
I0
aI0
aI1
aI0
aI0
aa(lp3676
I0
aI0
aI0
aI0
aI0
aa(lp3677
I0
aI2
aI1
aI0
aI0
aa(lp3678
I0
aI0
aI1
aI1
aI0
aa(lp3679
I0
aI1
aI1
aI1
aI0
aa(lp3680
I0
aI0
aI1
aI1
aI0
aa(lp3681
I0
aI0
aI1
aI1
aI0
aa(lp3682
I0
aI1
aI3
aI0
aI0
aa(lp3683
I0
aI0
aI0
aI0
aI0
aa(lp3684
I1
aI3
aI2
aI0
aI0
aa(lp3685
I0
aI2
aI3
aI1
aI0
aa(lp3686
I0
aI0
aI4
aI1
aI0
aa(lp3687
I0
aI1
aI1
aI1
aI0
aa(lp3688
I0
aI1
aI3
aI1
aI0
aa(lp3689
I0
aI1
aI0
aI1
aI0
aa(lp3690
I0
aI0
aI1
aI0
aI0
aa(lp3691
I1
aI3
aI4
aI0
aI0
aa(lp3692
I0
aI1
aI3
aI0
aI0
aa(lp3693
I0
aI1
aI1
aI0
aI0
aa(lp3694
I2
aI1
aI4
aI0
aI0
aa(lp3695
I0
aI1
aI0
aI1
aI0
aa(lp3696
I0
aI1
aI1
aI0
aI0
aa(lp3697
I0
aI1
aI2
aI1
aI0
aa(lp3698
I0
aI2
aI2
aI1
aI0
aa(lp3699
I0
aI2
aI4
aI1
aI0
aa(lp3700
I0
aI1
aI3
aI1
aI0
aa(lp3701
I0
aI0
aI1
aI0
aI0
aa(lp3702
I0
aI0
aI3
aI1
aI0
aa(lp3703
I0
aI1
aI1
aI0
aI0
aa(lp3704
I1
aI0
aI1
aI0
aI0
aa(lp3705
I0
aI0
aI2
aI0
aI0
aa(lp3706
I0
aI0
aI2
aI0
aI0
aa(lp3707
I0
aI0
aI2
aI0
aI0
aa(lp3708
I1
aI2
aI0
aI1
aI2
aa(lp3709
I0
aI0
aI3
aI1
aI0
aa(lp3710
I0
aI1
aI1
aI0
aI0
aa(lp3711
I0
aI1
aI1
aI0
aI1
aa(lp3712
I0
aI0
aI1
aI0
aI0
aa(lp3713
I0
aI0
aI0
aI0
aI0
aa(lp3714
I0
aI3
aI1
aI1
aI0
aa(lp3715
I1
aI1
aI2
aI0
aI0
aa(lp3716
I0
aI0
aI3
aI0
aI0
aa(lp3717
I2
aI0
aI1
aI1
aI0
aa(lp3718
I0
aI0
aI1
aI1
aI0
aa(lp3719
I0
aI2
aI2
aI2
aI0
aa(lp3720
I0
aI1
aI4
aI0
aI0
aa(lp3721
I0
aI3
aI1
aI0
aI0
aa(lp3722
I0
aI1
aI1
aI0
aI0
aa(lp3723
I0
aI0
aI1
aI3
aI0
aa(lp3724
I0
aI1
aI0
aI0
aI0
aa(lp3725
I0
aI0
aI2
aI0
aI0
aa(lp3726
I0
aI1
aI2
aI1
aI0
aa(lp3727
I0
aI1
aI2
aI0
aI1
aa(lp3728
I0
aI0
aI4
aI0
aI0
aa(lp3729
I0
aI2
aI1
aI0
aI0
aa(lp3730
I0
aI2
aI1
aI1
aI0
aa(lp3731
I0
aI3
aI0
aI1
aI0
aa(lp3732
I0
aI0
aI4
aI1
aI0
aa(lp3733
I0
aI1
aI0
aI2
aI0
aa(lp3734
I0
aI4
aI2
aI0
aI0
aa(lp3735
I0
aI0
aI2
aI1
aI0
aa(lp3736
I0
aI2
aI1
aI1
aI0
aa(lp3737
I0
aI3
aI1
aI1
aI0
aa(lp3738
I0
aI1
aI3
aI1
aI0
aa(lp3739
I0
aI1
aI1
aI0
aI0
aa(lp3740
I1
aI0
aI0
aI1
aI0
aa(lp3741
I0
aI3
aI0
aI0
aI0
aa(lp3742
I1
aI1
aI2
aI1
aI0
aa(lp3743
I0
aI1
aI3
aI1
aI0
aa(lp3744
I0
aI1
aI3
aI0
aI0
aa(lp3745
I0
aI2
aI3
aI0
aI0
aa(lp3746
I0
aI1
aI1
aI0
aI0
aa(lp3747
I0
aI2
aI0
aI1
aI0
aa(lp3748
I0
aI0
aI1
aI0
aI0
aa(lp3749
I0
aI3
aI2
aI0
aI0
aa(lp3750
I0
aI2
aI2
aI1
aI0
aa(lp3751
I0
aI2
aI3
aI2
aI0
aa(lp3752
I0
aI3
aI1
aI0
aI0
aa(lp3753
I0
aI2
aI3
aI2
aI0
aa(lp3754
I1
aI2
aI3
aI1
aI0
aa(lp3755
I0
aI3
aI4
aI1
aI0
aa(lp3756
I0
aI5
aI2
aI2
aI1
aa(lp3757
I0
aI2
aI1
aI1
aI0
aa(lp3758
I4
aI3
aI2
aI1
aI0
aa(lp3759
I0
aI3
aI2
aI1
aI0
aa(lp3760
I0
aI4
aI2
aI2
aI0
aa(lp3761
I1
aI4
aI2
aI0
aI1
aa(lp3762
I0
aI3
aI2
aI2
aI0
aa(lp3763
I1
aI5
aI5
aI2
aI0
aa(lp3764
I1
aI2
aI1
aI0
aI0
aa(lp3765
I1
aI3
aI1
aI1
aI0
aa(lp3766
I2
aI2
aI5
aI0
aI0
aa(lp3767
I1
aI2
aI3
aI1
aI0
aa(lp3768
I0
aI0
aI5
aI2
aI0
aa(lp3769
I4
aI2
aI3
aI0
aI1
aa(lp3770
I2
aI2
aI3
aI0
aI0
aa(lp3771
I1
aI8
aI4
aI2
aI0
aa(lp3772
I0
aI2
aI3
aI4
aI0
aa(lp3773
I1
aI0
aI1
aI2
aI0
aa(lp3774
I0
aI2
aI1
aI0
aI0
aa(lp3775
I2
aI2
aI1
aI1
aI0
aa(lp3776
I0
aI2
aI2
aI0
aI1
aa(lp3777
I1
aI2
aI5
aI1
aI0
aa(lp3778
I2
aI0
aI5
aI1
aI0
aa(lp3779
I1
aI7
aI1
aI1
aI0
aa(lp3780
I0
aI0
aI1
aI2
aI0
aa(lp3781
I0
aI2
aI2
aI0
aI0
aa(lp3782
I0
aI5
aI5
aI3
aI0
aa(lp3783
I2
aI6
aI3
aI1
aI2
aa(lp3784
I3
aI1
aI1
aI3
aI0
aa(lp3785
I0
aI4
aI4
aI0
aI0
aa(lp3786
I1
aI4
aI4
aI0
aI0
aa(lp3787
I0
aI4
aI2
aI0
aI1
aa(lp3788
I0
aI5
aI1
aI1
aI0
aa(lp3789
I1
aI2
aI4
aI1
aI1
aa(lp3790
I1
aI2
aI3
aI2
aI0
aa(lp3791
I0
aI3
aI2
aI0
aI0
aa(lp3792
I3
aI7
aI4
aI1
aI0
aa(lp3793
I0
aI0
aI2
aI2
aI0
aa(lp3794
I2
aI4
aI6
aI2
aI1
aa(lp3795
I0
aI1
aI1
aI3
aI0
aa(lp3796
I2
aI2
aI4
aI0
aI0
aa(lp3797
I1
aI5
aI5
aI0
aI0
aa(lp3798
I0
aI1
aI2
aI0
aI1
aa(lp3799
I2
aI1
aI1
aI0
aI0
aa(lp3800
I1
aI4
aI7
aI0
aI0
aa(lp3801
I0
aI0
aI1
aI2
aI0
aa(lp3802
I1
aI7
aI0
aI2
aI0
aa(lp3803
I1
aI5
aI5
aI1
aI0
aa(lp3804
I1
aI4
aI3
aI0
aI0
aa(lp3805
I1
aI2
aI3
aI3
aI0
aa(lp3806
I1
aI4
aI2
aI4
aI0
aa(lp3807
I2
aI4
aI2
aI6
aI0
aa(lp3808
I3
aI5
aI1
aI1
aI0
aa(lp3809
I1
aI6
aI5
aI1
aI1
aa(lp3810
I0
aI2
aI5
aI1
aI0
aa(lp3811
I1
aI8
aI4
aI5
aI1
aa(lp3812
I0
aI4
aI2
aI2
aI0
aa(lp3813
I1
aI12
aI6
aI5
aI1
aa(lp3814
I1
aI8
aI5
aI3
aI2
aa(lp3815
I0
aI3
aI2
aI2
aI0
aa(lp3816
I0
aI5
aI4
aI4
aI0
aa(lp3817
I4
aI2
aI3
aI5
aI0
aa(lp3818
I2
aI5
aI2
aI1
aI0
aa(lp3819
I0
aI4
aI5
aI2
aI0
aa(lp3820
I2
aI3
aI5
aI3
aI0
aa(lp3821
I1
aI2
aI3
aI4
aI1
aa(lp3822
I2
aI3
aI6
aI1
aI0
aa(lp3823
I0
aI4
aI1
aI5
aI0
aa(lp3824
I1
aI5
aI4
aI0
aI0
aa(lp3825
I1
aI3
aI3
aI3
aI0
aa(lp3826
I4
aI4
aI3
aI0
aI0
aa(lp3827
I0
aI6
aI3
aI0
aI1
aa(lp3828
I3
aI4
aI3
aI2
aI0
aa(lp3829
I0
aI10
aI8
aI1
aI0
aa(lp3830
I1
aI5
aI3
aI2
aI1
aa(lp3831
I2
aI4
aI4
aI0
aI0
aa(lp3832
I0
aI9
aI3
aI1
aI0
aa(lp3833
I1
aI2
aI4
aI0
aI0
aa(lp3834
I1
aI6
aI3
aI2
aI0
aa(lp3835
I2
aI4
aI1
aI3
aI0
aa(lp3836
I0
aI4
aI2
aI4
aI0
aa(lp3837
I1
aI6
aI1
aI2
aI0
aa(lp3838
I0
aI3
aI2
aI2
aI0
aa(lp3839
I1
aI4
aI5
aI5
aI0
aa(lp3840
I2
aI4
aI0
aI2
aI0
aa(lp3841
I0
aI3
aI3
aI2
aI0
aa(lp3842
I0
aI4
aI4
aI2
aI0
aa(lp3843
I1
aI2
aI4
aI1
aI0
aa(lp3844
I1
aI5
aI5
aI3
aI0
aa(lp3845
I0
aI5
aI4
aI3
aI0
aa(lp3846
I1
aI4
aI4
aI1
aI2
aa(lp3847
I0
aI2
aI5
aI0
aI0
aa(lp3848
I1
aI2
aI4
aI1
aI0
aa(lp3849
I2
aI2
aI4
aI0
aI0
aa(lp3850
I0
aI2
aI1
aI1
aI1
aa(lp3851
I0
aI1
aI2
aI2
aI0
aa(lp3852
I1
aI4
aI1
aI2
aI1
aa(lp3853
I1
aI8
aI5
aI0
aI0
aa(lp3854
I1
aI1
aI1
aI4
aI0
aa(lp3855
I1
aI8
aI5
aI3
aI1
aa(lp3856
I0
aI9
aI2
aI2
aI1
aa(lp3857
I3
aI3
aI1
aI4
aI2
aa(lp3858
I1
aI6
aI2
aI1
aI1
aa(lp3859
I1
aI6
aI1
aI3
aI0
aa(lp3860
I2
aI7
aI7
aI5
aI1
aa(lp3861
I1
aI4
aI4
aI0
aI0
aa(lp3862
I0
aI9
aI2
aI0
aI0
aa(lp3863
I0
aI5
aI3
aI2
aI0
aa(lp3864
I1
aI8
aI1
aI1
aI0
aa(lp3865
I1
aI4
aI1
aI0
aI0
aa(lp3866
I1
aI5
aI2
aI0
aI0
aa(lp3867
I0
aI3
aI2
aI2
aI0
aa(lp3868
I0
aI3
aI4
aI3
aI1
aa(lp3869
I0
aI6
aI5
aI1
aI0
aa(lp3870
I0
aI2
aI5
aI2
aI0
aa(lp3871
I1
aI7
aI1
aI2
aI1
aa(lp3872
I2
aI3
aI4
aI3
aI0
aa(lp3873
I1
aI5
aI2
aI2
aI0
aa(lp3874
I1
aI4
aI3
aI3
aI0
aa(lp3875
I3
aI7
aI2
aI1
aI0
aa(lp3876
I1
aI7
aI3
aI3
aI0
aa(lp3877
I1
aI6
aI2
aI5
aI0
aa(lp3878
I0
aI7
aI2
aI1
aI0
aa(lp3879
I0
aI6
aI1
aI1
aI0
aa(lp3880
I0
aI4
aI2
aI0
aI0
aa(lp3881
I2
aI2
aI3
aI1
aI0
aa(lp3882
I0
aI6
aI1
aI2
aI1
aa(lp3883
I1
aI6
aI3
aI4
aI0
aa(lp3884
I2
aI3
aI3
aI2
aI0
aa(lp3885
I2
aI6
aI3
aI4
aI1
aa(lp3886
I2
aI5
aI5
aI1
aI0
aa(lp3887
I0
aI3
aI2
aI1
aI0
aa(lp3888
I1
aI5
aI3
aI5
aI0
aa(lp3889
I1
aI5
aI8
aI5
aI0
aa(lp3890
I1
aI6
aI2
aI3
aI0
aa(lp3891
I1
aI4
aI3
aI4
aI0
aa(lp3892
I1
aI3
aI3
aI3
aI0
aa(lp3893
I0
aI3
aI2
aI2
aI0
aa(lp3894
I0
aI2
aI3
aI5
aI0
aa(lp3895
I1
aI4
aI4
aI1
aI1
aa(lp3896
I2
aI1
aI3
aI3
aI0
aa(lp3897
I2
aI3
aI3
aI2
aI0
aa(lp3898
I1
aI10
aI3
aI3
aI0
aa(lp3899
I2
aI5
aI6
aI3
aI0
aa(lp3900
I1
aI7
aI4
aI6
aI0
aa(lp3901
I0
aI2
aI3
aI1
aI0
aa(lp3902
I2
aI3
aI5
aI0
aI0
aa(lp3903
I5
aI8
aI2
aI5
aI0
aa(lp3904
I0
aI4
aI5
aI1
aI0
aa(lp3905
I0
aI11
aI4
aI4
aI0
aa(lp3906
I3
aI7
aI2
aI3
aI1
aa(lp3907
I4
aI1
aI2
aI1
aI1
aa(lp3908
I1
aI5
aI2
aI4
aI0
aa(lp3909
I1
aI5
aI4
aI2
aI0
aa(lp3910
I2
aI3
aI2
aI2
aI0
aa(lp3911
I1
aI2
aI4
aI2
aI0
aa(lp3912
I4
aI1
aI6
aI4
aI0
aa(lp3913
I1
aI7
aI2
aI0
aI0
aa(lp3914
I0
aI3
aI6
aI0
aI0
aa(lp3915
I0
aI4
aI2
aI1
aI0
aa(lp3916
I1
aI3
aI5
aI2
aI1
aa(lp3917
I2
aI1
aI3
aI4
aI1
aa(lp3918
I2
aI2
aI7
aI0
aI0
aa(lp3919
I1
aI3
aI3
aI1
aI0
aa(lp3920
I2
aI2
aI0
aI2
aI0
aa(lp3921
I1
aI5
aI3
aI2
aI0
aa(lp3922
I1
aI1
aI5
aI0
aI0
aa(lp3923
I1
aI4
aI4
aI3
aI0
aa(lp3924
I2
aI3
aI2
aI1
aI0
aa(lp3925
I0
aI1
aI3
aI2
aI1
aa(lp3926
I1
aI5
aI1
aI1
aI0
aa(lp3927
I0
aI4
aI3
aI3
aI0
aa(lp3928
I0
aI5
aI2
aI2
aI0
aa(lp3929
I0
aI6
aI3
aI0
aI0
aa(lp3930
I2
aI2
aI0
aI2
aI0
aa(lp3931
I0
aI2
aI2
aI2
aI0
aa(lp3932
I0
aI4
aI5
aI5
aI0
aa(lp3933
I1
aI4
aI1
aI0
aI0
aa(lp3934
I1
aI0
aI0
aI2
aI0
aa(lp3935
I0
aI1
aI3
aI1
aI0
aa(lp3936
I0
aI3
aI2
aI1
aI0
aa(lp3937
I0
aI3
aI1
aI1
aI1
aa(lp3938
I0
aI3
aI2
aI1
aI0
aa(lp3939
I0
aI1
aI0
aI1
aI0
aa(lp3940
I0
aI2
aI3
aI0
aI0
aa(lp3941
I0
aI2
aI3
aI1
aI1
aa(lp3942
I2
aI3
aI2
aI1
aI0
aa(lp3943
I2
aI1
aI3
aI3
aI0
aa(lp3944
I1
aI3
aI2
aI1
aI1
aa(lp3945
I0
aI1
aI5
aI2
aI0
aa(lp3946
I0
aI4
aI3
aI1
aI2
aa(lp3947
I2
aI1
aI1
aI0
aI0
aa(lp3948
I0
aI1
aI2
aI1
aI0
aa(lp3949
I0
aI0
aI1
aI2
aI1
aa(lp3950
I0
aI1
aI1
aI4
aI0
aa(lp3951
I0
aI3
aI1
aI2
aI0
aa(lp3952
I1
aI1
aI2
aI1
aI0
aa(lp3953
I0
aI2
aI2
aI0
aI0
aa(lp3954
I0
aI3
aI5
aI0
aI0
aa(lp3955
I1
aI0
aI5
aI3
aI0
aa(lp3956
I0
aI1
aI1
aI0
aI0
aa(lp3957
I0
aI2
aI1
aI2
aI1
aa(lp3958
I1
aI1
aI2
aI1
aI0
aa(lp3959
I1
aI2
aI6
aI3
aI0
aa(lp3960
I1
aI9
aI2
aI2
aI0
aa(lp3961
I0
aI2
aI5
aI4
aI0
aa(lp3962
I0
aI4
aI2
aI2
aI0
aa(lp3963
I0
aI3
aI1
aI2
aI0
aa(lp3964
I0
aI5
aI1
aI1
aI0
aa(lp3965
I0
aI3
aI1
aI0
aI0
aa(lp3966
I0
aI3
aI2
aI0
aI0
aa(lp3967
I1
aI2
aI2
aI1
aI0
aa(lp3968
I0
aI0
aI2
aI1
aI0
aa(lp3969
I0
aI4
aI3
aI1
aI0
aa(lp3970
I0
aI0
aI3
aI2
aI0
aa(lp3971
I0
aI3
aI3
aI1
aI0
aa(lp3972
I2
aI5
aI5
aI0
aI1
aa(lp3973
I1
aI1
aI5
aI0
aI0
aa(lp3974
I0
aI4
aI3
aI3
aI0
aa(lp3975
I0
aI3
aI1
aI0
aI0
aa(lp3976
I0
aI2
aI1
aI1
aI0
aa(lp3977
I0
aI3
aI2
aI2
aI0
aa(lp3978
I1
aI3
aI1
aI0
aI0
aa(lp3979
I1
aI3
aI1
aI0
aI0
aa(lp3980
I0
aI0
aI2
aI0
aI0
aa(lp3981
I0
aI0
aI0
aI1
aI0
aa(lp3982
I0
aI1
aI0
aI3
aI0
aa(lp3983
I0
aI0
aI0
aI1
aI0
aa(lp3984
I0
aI0
aI0
aI2
aI0
aa(lp3985
I0
aI1
aI2
aI1
aI0
aa(lp3986
I0
aI3
aI2
aI1
aI0
aa(lp3987
I0
aI5
aI1
aI1
aI0
aa(lp3988
I0
aI3
aI2
aI1
aI0
aa(lp3989
I2
aI1
aI4
aI0
aI0
aa(lp3990
I0
aI0
aI1
aI0
aI0
aa(lp3991
I1
aI0
aI0
aI0
aI0
aa(lp3992
I0
aI2
aI1
aI0
aI0
aa(lp3993
I1
aI2
aI1
aI1
aI0
aa(lp3994
I0
aI1
aI1
aI1
aI0
aa(lp3995
I0
aI2
aI2
aI1
aI0
aa(lp3996
I0
aI2
aI3
aI1
aI0
aa(lp3997
I0
aI0
aI1
aI0
aI0
aa(lp3998
I0
aI2
aI1
aI1
aI0
aa(lp3999
I1
aI3
aI2
aI0
aI0
aa(lp4000
I0
aI1
aI0
aI0
aI0
aa(lp4001
I0
aI2
aI1
aI0
aI0
aa(lp4002
I0
aI2
aI2
aI0
aI0
aa(lp4003
I0
aI1
aI5
aI1
aI0
aa(lp4004
I0
aI2
aI2
aI2
aI0
aa(lp4005
I0
aI0
aI2
aI1
aI0
aa(lp4006
I0
aI0
aI3
aI1
aI0
aa(lp4007
I1
aI5
aI3
aI1
aI0
aa(lp4008
I0
aI4
aI5
aI2
aI0
aa(lp4009
I0
aI4
aI5
aI1
aI0
aa(lp4010
I0
aI1
aI2
aI2
aI0
aa(lp4011
I0
aI0
aI3
aI1
aI1
aa(lp4012
I0
aI2
aI0
aI0
aI0
aa(lp4013
I0
aI0
aI1
aI1
aI1
aa(lp4014
I1
aI1
aI1
aI1
aI0
aa(lp4015
I1
aI5
aI0
aI0
aI0
aa(lp4016
I0
aI0
aI1
aI1
aI1
aa(lp4017
I1
aI1
aI0
aI0
aI0
aa(lp4018
I0
aI1
aI1
aI1
aI0
aa(lp4019
I0
aI1
aI0
aI1
aI0
aa(lp4020
I0
aI0
aI1
aI0
aI0
aa(lp4021
I0
aI3
aI1
aI2
aI0
aa(lp4022
I0
aI1
aI3
aI0
aI0
aa(lp4023
I0
aI1
aI4
aI0
aI0
aa(lp4024
I0
aI1
aI2
aI0
aI0
aa(lp4025
I1
aI0
aI2
aI1
aI0
aa(lp4026
I1
aI1
aI2
aI1
aI0
aa(lp4027
I3
aI0
aI2
aI0
aI0
aa(lp4028
I0
aI2
aI3
aI0
aI0
aa(lp4029
I0
aI3
aI1
aI1
aI1
aa(lp4030
I0
aI1
aI4
aI3
aI0
aa(lp4031
I0
aI3
aI3
aI0
aI0
aa(lp4032
I0
aI4
aI1
aI0
aI0
aa(lp4033
I0
aI0
aI0
aI1
aI0
aa(lp4034
I1
aI1
aI1
aI0
aI0
aa(lp4035
I0
aI1
aI2
aI0
aI0
aa(lp4036
I0
aI1
aI0
aI0
aI0
aa(lp4037
I0
aI1
aI3
aI1
aI0
aa(lp4038
I0
aI2
aI1
aI1
aI0
aa(lp4039
I1
aI0
aI4
aI1
aI0
aa(lp4040
I0
aI1
aI1
aI1
aI0
aa(lp4041
I0
aI1
aI2
aI0
aI0
aa(lp4042
I2
aI4
aI3
aI0
aI0
aa(lp4043
I0
aI0
aI1
aI0
aI0
aa(lp4044
I1
aI0
aI2
aI0
aI0
aa(lp4045
I0
aI5
aI3
aI1
aI1
aa(lp4046
I1
aI3
aI1
aI2
aI0
aa(lp4047
I0
aI2
aI1
aI0
aI0
aa(lp4048
I0
aI0
aI4
aI0
aI0
aa(lp4049
I0
aI0
aI3
aI0
aI0
aa(lp4050
I0
aI1
aI1
aI1
aI0
aa(lp4051
I2
aI0
aI2
aI0
aI0
aa(lp4052
I0
aI0
aI4
aI0
aI0
aa(lp4053
I2
aI2
aI1
aI1
aI0
aa(lp4054
I0
aI1
aI1
aI0
aI0
aa(lp4055
I0
aI2
aI3
aI0
aI0
aa(lp4056
I0
aI1
aI1
aI0
aI0
aa(lp4057
I0
aI1
aI0
aI0
aI0
aa(lp4058
I0
aI0
aI2
aI0
aI0
aa(lp4059
I0
aI2
aI0
aI0
aI0
aa(lp4060
I1
aI1
aI0
aI1
aI0
aa(lp4061
I0
aI1
aI0
aI0
aI0
aa(lp4062
I0
aI0
aI0
aI0
aI0
aa(lp4063
I0
aI0
aI1
aI0
aI0
aa(lp4064
I0
aI1
aI0
aI0
aI0
aa(lp4065
I0
aI0
aI4
aI1
aI0
aa(lp4066
I1
aI1
aI4
aI0
aI0
aa(lp4067
I1
aI0
aI1
aI1
aI0
aa(lp4068
I0
aI1
aI0
aI0
aI0
aa(lp4069
I0
aI2
aI2
aI1
aI0
aa(lp4070
I0
aI1
aI2
aI1
aI0
aa(lp4071
I0
aI1
aI2
aI0
aI0
aa(lp4072
I0
aI0
aI2
aI0
aI0
aa(lp4073
I1
aI2
aI1
aI0
aI0
aa(lp4074
I0
aI0
aI4
aI0
aI0
aa(lp4075
I0
aI0
aI2
aI0
aI0
aa(lp4076
I0
aI0
aI1
aI1
aI0
aa(lp4077
I0
aI2
aI1
aI0
aI0
aa(lp4078
I1
aI3
aI3
aI0
aI0
aa(lp4079
I0
aI1
aI0
aI0
aI0
aa(lp4080
I0
aI2
aI2
aI0
aI0
aa(lp4081
I0
aI2
aI0
aI0
aI0
aa(lp4082
I0
aI1
aI2
aI1
aI0
aa(lp4083
I0
aI1
aI1
aI1
aI0
aa(lp4084
I0
aI1
aI0
aI0
aI0
aa(lp4085
I1
aI0
aI1
aI0
aI0
aa(lp4086
I0
aI1
aI2
aI0
aI0
aa(lp4087
I0
aI2
aI4
aI2
aI0
aa(lp4088
I0
aI0
aI2
aI0
aI0
aa(lp4089
I0
aI1
aI2
aI0
aI0
aa(lp4090
I2
aI3
aI2
aI0
aI0
aa(lp4091
I2
aI2
aI3
aI1
aI0
aa(lp4092
I0
aI2
aI5
aI1
aI0
aa(lp4093
I0
aI1
aI2
aI1
aI1
aa(lp4094
I0
aI1
aI2
aI1
aI0
aa(lp4095
I0
aI1
aI3
aI0
aI0
aa(lp4096
I0
aI1
aI3
aI0
aI0
aa(lp4097
I0
aI3
aI0
aI1
aI0
aa(lp4098
I1
aI2
aI1
aI1
aI0
aa(lp4099
I0
aI0
aI0
aI1
aI0
aa(lp4100
I1
aI2
aI2
aI0
aI0
aa(lp4101
I0
aI4
aI0
aI0
aI0
aa(lp4102
I0
aI3
aI0
aI0
aI0
aa(lp4103
I1
aI1
aI0
aI1
aI0
aa(lp4104
I0
aI1
aI2
aI1
aI0
aa(lp4105
I0
aI1
aI2
aI0
aI0
aa(lp4106
I0
aI0
aI4
aI0
aI0
aa(lp4107
I2
aI1
aI5
aI1
aI0
aa(lp4108
I1
aI5
aI1
aI0
aI0
aa(lp4109
I1
aI3
aI2
aI2
aI0
aa(lp4110
I0
aI3
aI3
aI1
aI1
aa(lp4111
I2
aI1
aI3
aI1
aI0
aa(lp4112
I0
aI2
aI5
aI0
aI0
aa(lp4113
I2
aI2
aI3
aI1
aI0
aa(lp4114
I1
aI2
aI1
aI1
aI0
aa(lp4115
I0
aI1
aI4
aI0
aI0
aa(lp4116
I0
aI3
aI3
aI1
aI0
aa(lp4117
I1
aI5
aI0
aI0
aI0
aa(lp4118
I1
aI0
aI3
aI1
aI0
aa(lp4119
I1
aI1
aI4
aI2
aI0
aa(lp4120
I1
aI0
aI4
aI0
aI0
aa(lp4121
I0
aI3
aI4
aI1
aI0
aa(lp4122
I2
aI2
aI2
aI2
aI0
aa(lp4123
I1
aI3
aI1
aI0
aI0
aa(lp4124
I0
aI3
aI1
aI2
aI0
aa(lp4125
I1
aI1
aI0
aI1
aI0
aa(lp4126
I0
aI4
aI3
aI5
aI0
aa(lp4127
I2
aI3
aI3
aI2
aI1
aa(lp4128
I2
aI5
aI5
aI4
aI0
aa(lp4129
I1
aI1
aI2
aI1
aI0
aa(lp4130
I0
aI1
aI3
aI0
aI1
aa(lp4131
I0
aI0
aI2
aI0
aI0
aa(lp4132
I1
aI2
aI3
aI1
aI0
aa(lp4133
I0
aI0
aI0
aI1
aI0
aa(lp4134
I0
aI5
aI5
aI0
aI0
aa(lp4135
I1
aI2
aI2
aI0
aI0
aa(lp4136
I1
aI3
aI4
aI1
aI0
aa(lp4137
I1
aI2
aI2
aI1
aI0
aa(lp4138
I1
aI5
aI3
aI2
aI0
aa(lp4139
I4
aI2
aI4
aI2
aI0
aa(lp4140
I0
aI2
aI4
aI0
aI0
aa(lp4141
I1
aI2
aI5
aI1
aI0
aa(lp4142
I0
aI6
aI4
aI1
aI2
aa(lp4143
I2
aI1
aI5
aI2
aI0
aa(lp4144
I2
aI0
aI3
aI2
aI0
aa(lp4145
I0
aI1
aI2
aI2
aI0
aa(lp4146
I3
aI6
aI2
aI0
aI0
aa(lp4147
I1
aI3
aI3
aI0
aI0
aa(lp4148
I0
aI3
aI2
aI0
aI0
aa(lp4149
I0
aI0
aI7
aI0
aI0
aa(lp4150
I2
aI2
aI7
aI3
aI0
aa(lp4151
I1
aI4
aI2
aI3
aI0
aa(lp4152
I0
aI0
aI2
aI2
aI0
aa(lp4153
I0
aI4
aI3
aI1
aI1
aa(lp4154
I0
aI2
aI2
aI0
aI0
aa(lp4155
I1
aI4
aI3
aI2
aI0
aa(lp4156
I0
aI2
aI1
aI2
aI1
aa(lp4157
I0
aI3
aI3
aI1
aI0
aa(lp4158
I0
aI2
aI4
aI2
aI0
aa(lp4159
I2
aI5
aI1
aI0
aI0
aa(lp4160
I1
aI4
aI6
aI2
aI0
aa(lp4161
I1
aI4
aI3
aI1
aI0
aa(lp4162
I2
aI2
aI2
aI1
aI0
aa(lp4163
I1
aI6
aI4
aI1
aI0
aa(lp4164
I1
aI2
aI5
aI3
aI1
aa(lp4165
I1
aI3
aI3
aI3
aI0
aa(lp4166
I1
aI1
aI2
aI1
aI0
aa(lp4167
I0
aI6
aI2
aI1
aI0
aa(lp4168
I0
aI1
aI4
aI1
aI0
aa(lp4169
I0
aI4
aI4
aI1
aI1
aa(lp4170
I1
aI3
aI8
aI1
aI0
aa(lp4171
I0
aI2
aI2
aI0
aI0
aa(lp4172
I0
aI6
aI1
aI2
aI0
aa(lp4173
I1
aI2
aI3
aI3
aI0
aa(lp4174
I0
aI4
aI1
aI0
aI0
aa(lp4175
I3
aI3
aI4
aI0
aI0
aa(lp4176
I0
aI1
aI1
aI0
aI0
aa(lp4177
I0
aI1
aI1
aI0
aI0
aa(lp4178
I1
aI3
aI2
aI1
aI0
aa(lp4179
I1
aI1
aI3
aI2
aI0
aa(lp4180
I2
aI5
aI0
aI3
aI0
aa(lp4181
I1
aI3
aI3
aI1
aI0
aa(lp4182
I2
aI5
aI2
aI5
aI0
aa(lp4183
I0
aI5
aI5
aI0
aI1
aa(lp4184
I0
aI4
aI5
aI1
aI0
aa(lp4185
I0
aI6
aI0
aI1
aI0
aa(lp4186
I2
aI6
aI3
aI3
aI0
aa(lp4187
I1
aI6
aI2
aI2
aI0
aa(lp4188
I0
aI6
aI1
aI0
aI1
aa(lp4189
I0
aI4
aI5
aI1
aI0
aa(lp4190
I1
aI3
aI5
aI3
aI0
aa(lp4191
I0
aI4
aI4
aI7
aI1
aa(lp4192
I0
aI7
aI4
aI2
aI0
aa(lp4193
I1
aI0
aI3
aI2
aI0
aa(lp4194
I0
aI1
aI1
aI1
aI0
aa(lp4195
I1
aI0
aI2
aI4
aI0
aa(lp4196
I1
aI4
aI8
aI2
aI0
aa(lp4197
I1
aI7
aI7
aI3
aI0
aa(lp4198
I1
aI4
aI1
aI1
aI0
aa(lp4199
I1
aI5
aI1
aI5
aI0
aa(lp4200
I3
aI2
aI2
aI2
aI0
aa(lp4201
I1
aI3
aI2
aI0
aI0
aa(lp4202
I2
aI0
aI4
aI2
aI0
aa(lp4203
I4
aI3
aI3
aI1
aI0
aa(lp4204
I1
aI3
aI2
aI2
aI0
aa(lp4205
I1
aI4
aI4
aI3
aI0
aa(lp4206
I5
aI4
aI1
aI0
aI0
aa(lp4207
I0
aI3
aI5
aI1
aI1
aa(lp4208
I1
aI1
aI4
aI2
aI0
aa(lp4209
I4
aI4
aI5
aI2
aI0
aa(lp4210
I2
aI5
aI2
aI1
aI0
aa(lp4211
I2
aI0
aI3
aI1
aI0
aa(lp4212
I2
aI6
aI4
aI2
aI0
aa(lp4213
I1
aI6
aI6
aI1
aI0
aa(lp4214
I1
aI5
aI2
aI0
aI0
aa(lp4215
I1
aI2
aI1
aI2
aI2
aa(lp4216
I1
aI7
aI2
aI2
aI0
aa(lp4217
I1
aI7
aI2
aI3
aI0
aa(lp4218
I0
aI7
aI4
aI0
aI0
aa(lp4219
I2
aI0
aI3
aI2
aI0
aa(lp4220
I2
aI2
aI4
aI4
aI0
aa(lp4221
I1
aI5
aI1
aI1
aI0
aa(lp4222
I2
aI5
aI5
aI3
aI0
aa(lp4223
I2
aI6
aI3
aI0
aI1
aa(lp4224
I2
aI3
aI3
aI4
aI0
aa(lp4225
I2
aI4
aI5
aI2
aI1
aa(lp4226
I0
aI1
aI4
aI5
aI0
aa(lp4227
I0
aI4
aI1
aI0
aI1
aa(lp4228
I1
aI7
aI0
aI0
aI0
aa(lp4229
I1
aI1
aI3
aI3
aI0
aa(lp4230
I0
aI3
aI5
aI4
aI0
aa(lp4231
I1
aI4
aI1
aI2
aI0
aa(lp4232
I1
aI5
aI2
aI2
aI0
aa(lp4233
I0
aI3
aI1
aI0
aI1
aa(lp4234
I0
aI3
aI7
aI0
aI1
aa(lp4235
I1
aI2
aI2
aI2
aI1
aa(lp4236
I1
aI4
aI2
aI1
aI0
aa(lp4237
I1
aI2
aI2
aI0
aI0
aa(lp4238
I4
aI5
aI4
aI2
aI0
aa(lp4239
I0
aI4
aI3
aI2
aI0
aa(lp4240
I3
aI3
aI5
aI3
aI0
aa(lp4241
I4
aI8
aI4
aI4
aI1
aa(lp4242
I1
aI6
aI4
aI1
aI0
aa(lp4243
I2
aI4
aI5
aI4
aI0
aa(lp4244
I0
aI4
aI5
aI1
aI0
aa(lp4245
I0
aI7
aI3
aI2
aI0
aa(lp4246
I0
aI5
aI3
aI4
aI0
aa(lp4247
I2
aI4
aI10
aI3
aI0
aa(lp4248
I3
aI6
aI4
aI2
aI0
aa(lp4249
I2
aI5
aI1
aI0
aI0
aa(lp4250
I1
aI3
aI2
aI1
aI0
aa(lp4251
I1
aI2
aI3
aI2
aI0
aa(lp4252
I0
aI5
aI4
aI2
aI0
aa(lp4253
I3
aI6
aI4
aI3
aI0
aa(lp4254
I0
aI6
aI3
aI2
aI0
aa(lp4255
I0
aI3
aI5
aI3
aI0
aa(lp4256
I0
aI3
aI1
aI4
aI0
aa(lp4257
I0
aI5
aI0
aI2
aI0
aa(lp4258
I0
aI5
aI3
aI4
aI0
aa(lp4259
I0
aI4
aI1
aI2
aI0
aa(lp4260
I2
aI3
aI3
aI0
aI0
aa(lp4261
I2
aI6
aI3
aI2
aI0
aa(lp4262
I2
aI3
aI1
aI1
aI0
aa(lp4263
I1
aI2
aI4
aI2
aI0
aa(lp4264
I0
aI3
aI2
aI1
aI0
aa(lp4265
I0
aI3
aI1
aI0
aI0
aa(lp4266
I0
aI2
aI2
aI2
aI0
aa(lp4267
I1
aI6
aI0
aI3
aI0
aa(lp4268
I1
aI6
aI1
aI0
aI0
aa(lp4269
I0
aI6
aI5
aI1
aI0
aa(lp4270
I2
aI2
aI2
aI1
aI0
aa(lp4271
I1
aI2
aI2
aI0
aI0
aa(lp4272
I0
aI4
aI1
aI3
aI0
aa(lp4273
I1
aI3
aI5
aI1
aI0
aa(lp4274
I1
aI1
aI0
aI1
aI0
aa(lp4275
I0
aI1
aI5
aI0
aI1
aa(lp4276
I1
aI6
aI3
aI0
aI0
aa(lp4277
I3
aI8
aI4
aI1
aI0
aa(lp4278
I3
aI2
aI4
aI1
aI0
aa(lp4279
I1
aI7
aI2
aI4
aI0
aa(lp4280
I2
aI3
aI6
aI2
aI2
aa(lp4281
I1
aI3
aI3
aI3
aI0
aa(lp4282
I2
aI5
aI4
aI2
aI1
aa(lp4283
I0
aI3
aI5
aI2
aI0
aa(lp4284
I3
aI1
aI5
aI0
aI0
aa(lp4285
I0
aI3
aI3
aI0
aI0
aa(lp4286
I0
aI3
aI1
aI2
aI0
aa(lp4287
I1
aI5
aI4
aI1
aI0
aa(lp4288
I2
aI2
aI2
aI1
aI0
aa(lp4289
I1
aI2
aI5
aI3
aI0
aa(lp4290
I0
aI5
aI1
aI0
aI0
aa(lp4291
I1
aI9
aI3
aI1
aI0
aa(lp4292
I1
aI2
aI2
aI0
aI0
aa(lp4293
I2
aI1
aI8
aI1
aI0
aa(lp4294
I1
aI4
aI4
aI2
aI0
aa(lp4295
I1
aI2
aI5
aI4
aI0
aa(lp4296
I0
aI4
aI3
aI1
aI1
aa(lp4297
I0
aI0
aI3
aI1
aI0
aa(lp4298
I0
aI1
aI4
aI1
aI0
aa(lp4299
I3
aI3
aI2
aI1
aI0
aa(lp4300
I0
aI2
aI3
aI1
aI0
aa(lp4301
I1
aI4
aI5
aI0
aI0
aa(lp4302
I0
aI4
aI4
aI1
aI0
aa(lp4303
I0
aI1
aI0
aI0
aI0
aa(lp4304
I2
aI3
aI4
aI0
aI0
aa(lp4305
I0
aI4
aI2
aI1
aI0
aa(lp4306
I1
aI1
aI3
aI2
aI0
aa(lp4307
I1
aI0
aI2
aI2
aI0
aa(lp4308
I0
aI3
aI1
aI1
aI0
aa(lp4309
I0
aI4
aI4
aI3
aI0
aa(lp4310
I1
aI0
aI1
aI1
aI0
aa(lp4311
I0
aI4
aI3
aI0
aI0
aa(lp4312
I0
aI2
aI0
aI3
aI0
aa(lp4313
I1
aI3
aI2
aI0
aI0
aa(lp4314
I1
aI2
aI3
aI0
aI0
aa(lp4315
I0
aI2
aI0
aI2
aI0
aa(lp4316
I0
aI0
aI8
aI1
aI0
aa(lp4317
I2
aI0
aI4
aI2
aI0
aa(lp4318
I0
aI4
aI3
aI1
aI0
aa(lp4319
I1
aI1
aI3
aI1
aI0
aa(lp4320
I0
aI2
aI3
aI1
aI0
aa(lp4321
I2
aI1
aI2
aI3
aI0
aa(lp4322
I0
aI4
aI2
aI0
aI0
aa(lp4323
I0
aI4
aI4
aI1
aI0
aa(lp4324
I1
aI2
aI1
aI1
aI1
aa(lp4325
I1
aI3
aI0
aI1
aI0
aa(lp4326
I2
aI3
aI0
aI0
aI0
aa(lp4327
I0
aI0
aI3
aI0
aI0
aa(lp4328
I1
aI0
aI2
aI2
aI0
aa(lp4329
I0
aI4
aI0
aI1
aI0
aa(lp4330
I0
aI3
aI1
aI3
aI0
aa(lp4331
I0
aI0
aI3
aI2
aI0
aa(lp4332
I0
aI4
aI6
aI1
aI0
aa(lp4333
I0
aI5
aI1
aI2
aI1
aa(lp4334
I1
aI0
aI6
aI2
aI0
aa(lp4335
I0
aI3
aI3
aI0
aI0
aa(lp4336
I0
aI1
aI2
aI1
aI0
aa(lp4337
I0
aI2
aI4
aI1
aI0
aa(lp4338
I1
aI1
aI4
aI0
aI0
aa(lp4339
I0
aI3
aI2
aI1
aI0
aa(lp4340
I0
aI2
aI4
aI0
aI0
aa(lp4341
I0
aI0
aI2
aI0
aI0
aa(lp4342
I0
aI1
aI7
aI1
aI0
aa(lp4343
I0
aI1
aI5
aI3
aI0
aa(lp4344
I1
aI4
aI2
aI0
aI0
aa(lp4345
I0
aI2
aI0
aI0
aI0
aa(lp4346
I0
aI1
aI1
aI0
aI1
aa(lp4347
I1
aI1
aI1
aI2
aI0
aa(lp4348
I0
aI1
aI0
aI1
aI0
aa(lp4349
I1
aI2
aI0
aI0
aI0
aa(lp4350
I2
aI2
aI4
aI1
aI0
aa(lp4351
I0
aI4
aI5
aI0
aI0
aa(lp4352
I0
aI2
aI6
aI0
aI0
aa(lp4353
I0
aI1
aI3
aI0
aI0
aa(lp4354
I1
aI0
aI2
aI1
aI0
aa(lp4355
I0
aI0
aI2
aI0
aI0
aa(lp4356
I0
aI1
aI2
aI1
aI0
aa(lp4357
I1
aI2
aI2
aI0
aI0
aa(lp4358
I1
aI1
aI3
aI0
aI0
aa(lp4359
I0
aI0
aI4
aI1
aI0
aa(lp4360
I0
aI1
aI1
aI0
aI0
aa(lp4361
I0
aI1
aI1
aI1
aI0
aa(lp4362
I0
aI0
aI1
aI0
aI0
aa(lp4363
I0
aI1
aI0
aI1
aI0
aa(lp4364
I0
aI1
aI2
aI0
aI0
aa(lp4365
I1
aI2
aI2
aI0
aI0
aa(lp4366
I0
aI5
aI6
aI0
aI0
aa(lp4367
I0
aI2
aI3
aI2
aI0
aa(lp4368
I0
aI1
aI1
aI1
aI0
aa(lp4369
I0
aI2
aI1
aI2
aI0
aa(lp4370
I0
aI0
aI2
aI1
aI0
aa(lp4371
I0
aI1
aI2
aI3
aI0
aa(lp4372
I1
aI0
aI0
aI1
aI0
aa(lp4373
I0
aI2
aI4
aI0
aI0
aa(lp4374
I1
aI3
aI1
aI3
aI0
aa(lp4375
I1
aI0
aI2
aI1
aI0
aa(lp4376
I0
aI1
aI0
aI1
aI0
aa(lp4377
I1
aI0
aI3
aI2
aI0
aa(lp4378
I0
aI3
aI1
aI1
aI0
aa(lp4379
I0
aI3
aI6
aI0
aI0
aa(lp4380
I0
aI0
aI6
aI2
aI0
aa(lp4381
I0
aI0
aI1
aI0
aI0
aa(lp4382
I0
aI1
aI2
aI0
aI0
aa(lp4383
I0
aI0
aI1
aI1
aI0
aa(lp4384
I2
aI1
aI0
aI0
aI0
aa(lp4385
I1
aI0
aI0
aI1
aI0
aa(lp4386
I0
aI1
aI2
aI0
aI0
aa(lp4387
I0
aI2
aI4
aI0
aI0
aa(lp4388
I1
aI0
aI4
aI1
aI1
aa(lp4389
I0
aI2
aI0
aI2
aI0
aa(lp4390
I0
aI0
aI3
aI0
aI0
aa(lp4391
I1
aI0
aI0
aI1
aI0
aa(lp4392
I0
aI1
aI5
aI0
aI0
aa(lp4393
I0
aI0
aI3
aI0
aI1
aa(lp4394
I1
aI1
aI2
aI1
aI0
aa(lp4395
I1
aI0
aI2
aI1
aI0
aa(lp4396
I0
aI0
aI4
aI1
aI0
aa(lp4397
I0
aI0
aI1
aI2
aI0
aa(lp4398
I0
aI0
aI0
aI0
aI0
aa(lp4399
I0
aI3
aI1
aI0
aI0
aa(lp4400
I0
aI1
aI3
aI2
aI0
aa(lp4401
I0
aI1
aI5
aI0
aI0
aa(lp4402
I0
aI2
aI4
aI1
aI0
aa(lp4403
I0
aI3
aI1
aI1
aI0
aa(lp4404
I0
aI1
aI0
aI0
aI0
aa(lp4405
I1
aI3
aI1
aI0
aI0
aa(lp4406
I0
aI0
aI1
aI1
aI0
aa(lp4407
I0
aI1
aI0
aI0
aI0
aa(lp4408
I0
aI1
aI1
aI0
aI0
aa(lp4409
I1
aI3
aI3
aI1
aI0
aa(lp4410
I0
aI1
aI0
aI0
aI0
aa(lp4411
I1
aI0
aI1
aI1
aI0
aa(lp4412
I1
aI1
aI4
aI0
aI0
aa(lp4413
I1
aI1
aI3
aI1
aI0
aa(lp4414
I1
aI1
aI0
aI1
aI0
aa(lp4415
I0
aI2
aI2
aI0
aI0
aa(lp4416
I0
aI3
aI2
aI1
aI0
aa(lp4417
I0
aI1
aI2
aI0
aI0
aa(lp4418
I0
aI0
aI1
aI0
aI0
aa(lp4419
I0
aI0
aI1
aI1
aI0
aa(lp4420
I0
aI1
aI1
aI0
aI0
aa(lp4421
I0
aI1
aI2
aI1
aI1
aa(lp4422
I0
aI1
aI1
aI1
aI0
aa(lp4423
I0
aI0
aI1
aI0
aI0
aa(lp4424
I0
aI0
aI1
aI0
aI0
aa(lp4425
I0
aI1
aI0
aI1
aI0
aa(lp4426
I0
aI3
aI0
aI0
aI0
aa(lp4427
I0
aI2
aI4
aI0
aI0
aa(lp4428
I0
aI0
aI0
aI0
aI0
aa(lp4429
I0
aI1
aI1
aI1
aI0
aa(lp4430
I0
aI0
aI1
aI1
aI0
aa(lp4431
I0
aI3
aI0
aI0
aI0
aa(lp4432
I0
aI0
aI0
aI1
aI0
aa(lp4433
I0
aI1
aI1
aI0
aI0
aa(lp4434
I0
aI0
aI1
aI1
aI0
aa(lp4435
I0
aI2
aI2
aI0
aI0
aa(lp4436
I0
aI0
aI2
aI0
aI0
aa(lp4437
I0
aI1
aI2
aI0
aI0
aa(lp4438
I0
aI1
aI0
aI1
aI0
aa(lp4439
I0
aI0
aI1
aI0
aI0
aa(lp4440
I1
aI1
aI0
aI0
aI0
aa(lp4441
I0
aI0
aI0
aI0
aI0
aa(lp4442
I0
aI2
aI2
aI2
aI0
aa(lp4443
I0
aI0
aI5
aI0
aI0
aa(lp4444
I0
aI1
aI2
aI0
aI0
aa(lp4445
I0
aI1
aI1
aI0
aI0
aa(lp4446
I0
aI1
aI0
aI0
aI0
aa(lp4447
I0
aI1
aI2
aI0
aI0
aa(lp4448
I0
aI0
aI1
aI0
aI0
aa(lp4449
I0
aI2
aI0
aI0
aI0
aa(lp4450
I0
aI1
aI3
aI1
aI0
aa(lp4451
I0
aI1
aI1
aI1
aI0
aa(lp4452
I1
aI0
aI2
aI0
aI1
aa(lp4453
I0
aI1
aI4
aI1
aI0
aa(lp4454
I0
aI1
aI0
aI0
aI0
aa(lp4455
I0
aI3
aI1
aI1
aI0
aa(lp4456
I0
aI0
aI5
aI0
aI0
aa(lp4457
I0
aI2
aI1
aI2
aI0
aa(lp4458
I0
aI0
aI1
aI0
aI0
aa(lp4459
I0
aI0
aI2
aI0
aI0
aa(lp4460
I1
aI0
aI4
aI1
aI0
aa(lp4461
I1
aI2
aI2
aI1
aI0
aa(lp4462
I1
aI2
aI1
aI0
aI0
aa(lp4463
I0
aI3
aI0
aI0
aI0
aa(lp4464
I1
aI0
aI1
aI0
aI1
aa(lp4465
I0
aI0
aI1
aI1
aI0
aa(lp4466
I0
aI3
aI2
aI1
aI1
aa(lp4467
I0
aI0
aI3
aI2
aI0
aa(lp4468
I0
aI1
aI1
aI0
aI0
aa(lp4469
I1
aI4
aI5
aI0
aI0
aa(lp4470
I0
aI3
aI3
aI0
aI0
aa(lp4471
I0
aI4
aI2
aI0
aI0
aa(lp4472
I0
aI2
aI4
aI1
aI0
aa(lp4473
I0
aI0
aI5
aI0
aI0
aa(lp4474
I2
aI3
aI1
aI0
aI0
aa(lp4475
I1
aI3
aI1
aI0
aI0
aa(lp4476
I2
aI3
aI5
aI0
aI0
aa(lp4477
I1
aI0
aI3
aI0
aI1
aa(lp4478
I1
aI1
aI2
aI2
aI0
aa(lp4479
I0
aI0
aI0
aI0
aI0
aa(lp4480
I0
aI2
aI2
aI0
aI0
aa(lp4481
I0
aI0
aI2
aI0
aI0
aa(lp4482
I2
aI0
aI2
aI2
aI0
aa(lp4483
I0
aI1
aI1
aI0
aI0
aa(lp4484
I0
aI0
aI1
aI1
aI0
aa(lp4485
I0
aI1
aI3
aI1
aI0
aa(lp4486
I0
aI1
aI1
aI0
aI0
aa(lp4487
I1
aI1
aI1
aI1
aI0
aa(lp4488
I0
aI1
aI1
aI0
aI0
aa(lp4489
I0
aI0
aI0
aI0
aI0
aa(lp4490
I0
aI2
aI3
aI1
aI0
aa(lp4491
I0
aI1
aI3
aI1
aI0
aa(lp4492
I0
aI6
aI1
aI0
aI0
aa(lp4493
I0
aI3
aI1
aI2
aI0
aa(lp4494
I0
aI5
aI0
aI1
aI0
aa(lp4495
I1
aI3
aI2
aI0
aI0
aa(lp4496
I1
aI1
aI2
aI1
aI0
aa(lp4497
I1
aI2
aI1
aI1
aI0
aa(lp4498
I0
aI1
aI0
aI1
aI0
aa(lp4499
I0
aI2
aI2
aI0
aI0
aa(lp4500
I2
aI1
aI2
aI2
aI0
aa(lp4501
I0
aI0
aI1
aI2
aI0
aa(lp4502
I0
aI5
aI1
aI2
aI0
aa(lp4503
I3
aI4
aI2
aI2
aI0
aa(lp4504
I1
aI4
aI3
aI2
aI0
aa(lp4505
I1
aI3
aI2
aI2
aI0
aa(lp4506
I1
aI4
aI3
aI1
aI0
aa(lp4507
I0
aI3
aI1
aI2
aI0
aa(lp4508
I1
aI3
aI6
aI2
aI0
aa(lp4509
I0
aI1
aI2
aI2
aI0
aa(lp4510
I0
aI5
aI3
aI3
aI0
aa(lp4511
I2
aI3
aI2
aI2
aI0
aa(lp4512
I1
aI7
aI1
aI0
aI0
aa(lp4513
I1
aI5
aI3
aI1
aI2
aa(lp4514
I0
aI1
aI2
aI1
aI1
aa(lp4515
I1
aI4
aI1
aI2
aI0
aa(lp4516
I2
aI3
aI1
aI0
aI0
aa(lp4517
I0
aI2
aI2
aI1
aI1
aa(lp4518
I2
aI5
aI4
aI2
aI0
aa(lp4519
I0
aI3
aI2
aI2
aI0
aa(lp4520
I0
aI1
aI4
aI0
aI0
aa(lp4521
I1
aI0
aI2
aI1
aI0
aa(lp4522
I0
aI2
aI2
aI1
aI0
aa(lp4523
I1
aI4
aI4
aI0
aI0
aa(lp4524
I1
aI4
aI1
aI2
aI0
aa(lp4525
I0
aI3
aI4
aI0
aI0
aa(lp4526
I0
aI4
aI1
aI1
aI0
aa(lp4527
I0
aI0
aI4
aI1
aI0
aa(lp4528
I0
aI1
aI4
aI3
aI1
aa(lp4529
I0
aI4
aI2
aI2
aI0
aa(lp4530
I4
aI4
aI4
aI1
aI0
aa(lp4531
I2
aI5
aI1
aI2
aI0
aa(lp4532
I1
aI4
aI4
aI4
aI0
aa(lp4533
I0
aI1
aI0
aI3
aI0
aa(lp4534
I1
aI5
aI3
aI3
aI0
aa(lp4535
I4
aI3
aI6
aI1
aI0
aa(lp4536
I1
aI6
aI0
aI3
aI0
aa(lp4537
I1
aI2
aI2
aI0
aI0
aa(lp4538
I0
aI4
aI1
aI3
aI0
aa(lp4539
I1
aI1
aI6
aI1
aI0
aa(lp4540
I2
aI7
aI0
aI2
aI1
aa(lp4541
I0
aI1
aI7
aI4
aI0
aa(lp4542
I0
aI4
aI3
aI0
aI0
aa(lp4543
I2
aI6
aI3
aI2
aI0
aa(lp4544
I1
aI0
aI3
aI1
aI0
aa(lp4545
I1
aI4
aI3
aI2
aI0
aa(lp4546
I2
aI3
aI6
aI3
aI1
aa(lp4547
I0
aI3
aI3
aI3
aI0
aa(lp4548
I2
aI3
aI2
aI1
aI0
aa(lp4549
I1
aI5
aI2
aI1
aI0
aa(lp4550
I2
aI3
aI3
aI2
aI0
aa(lp4551
I0
aI5
aI2
aI1
aI0
aa(lp4552
I0
aI1
aI5
aI1
aI0
aa(lp4553
I1
aI1
aI8
aI2
aI0
aa(lp4554
I2
aI4
aI3
aI2
aI0
aa(lp4555
I0
aI1
aI3
aI1
aI0
aa(lp4556
I2
aI8
aI2
aI5
aI0
aa(lp4557
I1
aI5
aI2
aI1
aI0
aa(lp4558
I1
aI4
aI0
aI3
aI0
aa(lp4559
I1
aI4
aI3
aI3
aI1
aa(lp4560
I2
aI5
aI3
aI4
aI0
aa(lp4561
I0
aI4
aI2
aI1
aI0
aa(lp4562
I2
aI7
aI3
aI1
aI0
aa(lp4563
I0
aI5
aI2
aI1
aI0
aa(lp4564
I0
aI3
aI0
aI3
aI0
aa(lp4565
I0
aI6
aI0
aI3
aI0
aa(lp4566
I1
aI3
aI4
aI4
aI0
aa(lp4567
I1
aI8
aI7
aI2
aI0
aa(lp4568
I0
aI4
aI4
aI0
aI0
aa(lp4569
I0
aI3
aI3
aI2
aI0
aa(lp4570
I2
aI5
aI0
aI1
aI0
aa(lp4571
I2
aI4
aI4
aI2
aI0
aa(lp4572
I1
aI4
aI1
aI0
aI0
aa(lp4573
I1
aI4
aI2
aI2
aI0
aa(lp4574
I0
aI3
aI2
aI2
aI0
aa(lp4575
I0
aI4
aI4
aI1
aI0
aa(lp4576
I1
aI6
aI6
aI2
aI0
aa(lp4577
I1
aI2
aI3
aI2
aI0
aa(lp4578
I2
aI1
aI1
aI3
aI0
aa(lp4579
I0
aI2
aI1
aI2
aI0
aa(lp4580
I1
aI4
aI1
aI3
aI0
aa(lp4581
I1
aI5
aI2
aI3
aI0
aa(lp4582
I0
aI4
aI4
aI1
aI0
aa(lp4583
I2
aI3
aI4
aI1
aI0
aa(lp4584
I3
aI3
aI4
aI0
aI0
aa(lp4585
I1
aI4
aI2
aI0
aI0
aa(lp4586
I1
aI3
aI4
aI2
aI0
aa(lp4587
I3
aI3
aI0
aI0
aI0
aa(lp4588
I1
aI4
aI5
aI1
aI1
aa(lp4589
I2
aI7
aI4
aI0
aI1
aa(lp4590
I4
aI4
aI3
aI2
aI0
aa(lp4591
I3
aI3
aI5
aI2
aI0
aa(lp4592
I0
aI1
aI2
aI0
aI0
aa(lp4593
I0
aI3
aI1
aI0
aI0
aa(lp4594
I1
aI7
aI4
aI3
aI0
aa(lp4595
I1
aI4
aI7
aI1
aI1
aa(lp4596
I1
aI2
aI1
aI2
aI0
aa(lp4597
I2
aI6
aI3
aI0
aI0
aa(lp4598
I1
aI5
aI2
aI6
aI0
aa(lp4599
I3
aI7
aI4
aI1
aI1
aa(lp4600
I4
aI4
aI2
aI3
aI0
aa(lp4601
I2
aI3
aI2
aI0
aI0
aa(lp4602
I4
aI1
aI3
aI0
aI0
aa(lp4603
I2
aI6
aI4
aI0
aI0
aa(lp4604
I4
aI4
aI8
aI1
aI0
aa(lp4605
I1
aI0
aI4
aI0
aI0
aa(lp4606
I3
aI4
aI3
aI1
aI0
aa(lp4607
I0
aI1
aI2
aI1
aI0
aa(lp4608
I1
aI8
aI9
aI3
aI0
aa(lp4609
I1
aI4
aI5
aI1
aI0
aa(lp4610
I3
aI5
aI3
aI2
aI0
aa(lp4611
I2
aI3
aI4
aI4
aI0
aa(lp4612
I3
aI7
aI5
aI3
aI1
aa(lp4613
I0
aI5
aI5
aI1
aI2
aa(lp4614
I1
aI2
aI0
aI1
aI0
aa(lp4615
I1
aI1
aI2
aI2
aI0
aa(lp4616
I1
aI0
aI3
aI2
aI0
aa(lp4617
I0
aI4
aI2
aI0
aI0
aa(lp4618
I0
aI6
aI5
aI0
aI0
aa(lp4619
I0
aI4
aI7
aI4
aI0
aa(lp4620
I1
aI7
aI1
aI1
aI0
aa(lp4621
I2
aI5
aI1
aI3
aI0
aa(lp4622
I2
aI4
aI4
aI0
aI0
aa(lp4623
I1
aI1
aI7
aI2
aI0
aa(lp4624
I2
aI6
aI2
aI3
aI0
aa(lp4625
I2
aI7
aI5
aI1
aI0
aa(lp4626
I1
aI3
aI2
aI1
aI0
aa(lp4627
I1
aI4
aI4
aI5
aI0
aa(lp4628
I3
aI4
aI4
aI2
aI0
aa(lp4629
I1
aI1
aI3
aI3
aI0
aa(lp4630
I1
aI5
aI2
aI1
aI0
aa(lp4631
I4
aI5
aI2
aI2
aI1
aa(lp4632
I2
aI5
aI6
aI1
aI0
aa(lp4633
I1
aI4
aI6
aI0
aI0
aa(lp4634
I0
aI5
aI7
aI2
aI0
aa(lp4635
I1
aI1
aI0
aI0
aI0
aa(lp4636
I0
aI3
aI2
aI1
aI1
aa(lp4637
I2
aI3
aI3
aI0
aI0
aa(lp4638
I0
aI4
aI3
aI2
aI0
aa(lp4639
I1
aI4
aI3
aI0
aI0
aa(lp4640
I3
aI2
aI3
aI2
aI0
aa(lp4641
I3
aI4
aI2
aI1
aI1
aa(lp4642
I1
aI1
aI0
aI3
aI0
aa(lp4643
I2
aI2
aI4
aI2
aI0
aa(lp4644
I1
aI2
aI5
aI2
aI1
aa(lp4645
I0
aI5
aI3
aI3
aI0
aa(lp4646
I1
aI6
aI2
aI0
aI1
aa(lp4647
I2
aI5
aI2
aI4
aI0
aa(lp4648
I3
aI5
aI4
aI3
aI0
aa(lp4649
I0
aI3
aI0
aI1
aI0
aa(lp4650
I3
aI0
aI2
aI4
aI0
aa(lp4651
I1
aI2
aI5
aI0
aI1
aa(lp4652
I0
aI5
aI5
aI1
aI0
aa(lp4653
I2
aI3
aI4
aI2
aI2
aa(lp4654
I3
aI4
aI7
aI2
aI0
aa(lp4655
I0
aI3
aI3
aI4
aI0
aa(lp4656
I1
aI1
aI1
aI1
aI0
aa(lp4657
I2
aI3
aI3
aI1
aI0
aa(lp4658
I0
aI5
aI3
aI0
aI0
aa(lp4659
I1
aI0
aI5
aI2
aI0
aa(lp4660
I1
aI4
aI4
aI0
aI0
aa(lp4661
I2
aI2
aI7
aI1
aI1
aa(lp4662
I0
aI3
aI4
aI3
aI0
aa(lp4663
I0
aI6
aI5
aI0
aI0
aa(lp4664
I3
aI5
aI3
aI3
aI0
aa(lp4665
I3
aI3
aI3
aI1
aI0
aa(lp4666
I2
aI3
aI2
aI3
aI0
aa(lp4667
I0
aI6
aI5
aI0
aI0
aa(lp4668
I0
aI2
aI3
aI1
aI0
aa(lp4669
I1
aI9
aI2
aI2
aI0
aa(lp4670
I1
aI5
aI1
aI0
aI0
aa(lp4671
I0
aI4
aI3
aI1
aI0
aa(lp4672
I1
aI3
aI3
aI0
aI0
aa(lp4673
I2
aI7
aI2
aI0
aI0
aa(lp4674
I1
aI6
aI6
aI0
aI0
aa(lp4675
I1
aI4
aI3
aI2
aI1
aa(lp4676
I0
aI0
aI1
aI1
aI0
aa(lp4677
I3
aI1
aI3
aI0
aI0
aa(lp4678
I2
aI5
aI5
aI2
aI0
aa(lp4679
I2
aI7
aI3
aI0
aI0
aa(lp4680
I1
aI2
aI4
aI2
aI0
aa(lp4681
I1
aI0
aI1
aI1
aI0
aa(lp4682
I1
aI4
aI1
aI1
aI0
aa(lp4683
I0
aI2
aI5
aI1
aI0
aa(lp4684
I0
aI3
aI3
aI2
aI0
aa(lp4685
I2
aI1
aI2
aI0
aI0
aa(lp4686
I0
aI3
aI4
aI0
aI0
aa(lp4687
I1
aI7
aI6
aI4
aI0
aa(lp4688
I2
aI4
aI2
aI0
aI0
aa(lp4689
I0
aI6
aI3
aI0
aI0
aa(lp4690
I0
aI1
aI2
aI1
aI0
aa(lp4691
I0
aI3
aI2
aI0
aI0
aa(lp4692
I0
aI2
aI10
aI0
aI0
aa(lp4693
I0
aI2
aI3
aI0
aI0
aa(lp4694
I1
aI2
aI3
aI0
aI0
aa(lp4695
I1
aI2
aI3
aI1
aI0
aa(lp4696
I0
aI4
aI4
aI1
aI0
aa(lp4697
I1
aI1
aI0
aI0
aI0
aa(lp4698
I0
aI2
aI2
aI1
aI0
aa(lp4699
I0
aI2
aI4
aI0
aI0
aa(lp4700
I1
aI4
aI4
aI1
aI0
aa(lp4701
I1
aI1
aI3
aI1
aI0
aa(lp4702
I0
aI0
aI0
aI0
aI0
aa(lp4703
I1
aI2
aI3
aI1
aI0
aa(lp4704
I0
aI0
aI1
aI0
aI0
aa(lp4705
I1
aI0
aI2
aI0
aI0
aa(lp4706
I1
aI4
aI2
aI0
aI0
aa(lp4707
I0
aI3
aI3
aI3
aI0
aa(lp4708
I0
aI3
aI1
aI1
aI0
aa(lp4709
I0
aI3
aI1
aI1
aI0
aa(lp4710
I1
aI2
aI2
aI1
aI0
aa(lp4711
I1
aI5
aI4
aI0
aI0
aa(lp4712
I0
aI0
aI4
aI1
aI0
aa(lp4713
I0
aI3
aI2
aI0
aI0
aa(lp4714
I0
aI3
aI4
aI1
aI0
aa(lp4715
I0
aI1
aI3
aI1
aI0
aa(lp4716
I0
aI6
aI1
aI1
aI0
aa(lp4717
I1
aI1
aI2
aI2
aI1
aa(lp4718
I0
aI1
aI3
aI0
aI0
aa(lp4719
I0
aI1
aI2
aI0
aI0
aa(lp4720
I0
aI4
aI4
aI2
aI0
aa(lp4721
I0
aI0
aI1
aI0
aI0
aa(lp4722
I0
aI0
aI2
aI0
aI0
aa(lp4723
I0
aI2
aI5
aI1
aI0
aa(lp4724
I0
aI1
aI4
aI0
aI0
aa(lp4725
I0
aI1
aI3
aI1
aI0
aa(lp4726
I0
aI0
aI1
aI0
aI0
aa(lp4727
I1
aI1
aI0
aI1
aI0
aa(lp4728
I0
aI1
aI3
aI2
aI0
aa(lp4729
I0
aI1
aI1
aI1
aI0
aa(lp4730
I0
aI1
aI1
aI1
aI0
aa(lp4731
I1
aI5
aI4
aI1
aI0
aa(lp4732
I0
aI4
aI3
aI0
aI0
aa(lp4733
I0
aI1
aI0
aI0
aI0
aa(lp4734
I1
aI4
aI1
aI1
aI0
aa(lp4735
I0
aI3
aI3
aI0
aI0
aa(lp4736
I0
aI1
aI3
aI1
aI0
aa(lp4737
I1
aI6
aI2
aI2
aI0
aa(lp4738
I0
aI2
aI2
aI2
aI0
aa(lp4739
I0
aI0
aI2
aI1
aI0
aa(lp4740
I0
aI2
aI0
aI0
aI0
aa(lp4741
I0
aI2
aI2
aI0
aI0
aa(lp4742
I0
aI1
aI0
aI1
aI0
aa(lp4743
I0
aI3
aI1
aI1
aI0
aa(lp4744
I1
aI1
aI2
aI1
aI0
aa(lp4745
I0
aI0
aI1
aI0
aI0
aa(lp4746
I0
aI1
aI0
aI0
aI0
aa(lp4747
I0
aI1
aI0
aI1
aI0
aa(lp4748
I0
aI0
aI1
aI0
aI0
aa(lp4749
I0
aI0
aI1
aI1
aI0
aa(lp4750
I1
aI0
aI1
aI2
aI0
aa(lp4751
I0
aI2
aI5
aI0
aI0
aa(lp4752
I0
aI1
aI3
aI0
aI0
aa(lp4753
I0
aI2
aI0
aI1
aI0
aa(lp4754
I0
aI0
aI1
aI0
aI0
aa(lp4755
I0
aI2
aI2
aI2
aI0
aa(lp4756
I0
aI2
aI2
aI2
aI0
aa(lp4757
I0
aI2
aI0
aI1
aI0
aa(lp4758
I2
aI2
aI1
aI1
aI0
aa(lp4759
I0
aI2
aI2
aI1
aI0
aa(lp4760
I0
aI5
aI0
aI0
aI0
aa(lp4761
I0
aI0
aI1
aI1
aI1
aa(lp4762
I1
aI1
aI0
aI0
aI0
aa(lp4763
I1
aI1
aI3
aI1
aI0
aa(lp4764
I0
aI2
aI0
aI0
aI0
aa(lp4765
I0
aI1
aI2
aI0
aI0
aa(lp4766
I1
aI4
aI0
aI0
aI0
aa(lp4767
I0
aI1
aI0
aI3
aI0
aa(lp4768
I0
aI0
aI0
aI1
aI0
aa(lp4769
I0
aI1
aI1
aI1
aI0
aa(lp4770
I0
aI0
aI2
aI0
aI0
aa(lp4771
I1
aI0
aI2
aI0
aI0
aa(lp4772
I0
aI2
aI1
aI1
aI0
aa(lp4773
I0
aI1
aI3
aI1
aI0
aa(lp4774
I0
aI0
aI0
aI0
aI0
aa(lp4775
I0
aI1
aI0
aI0
aI0
aa(lp4776
I0
aI2
aI3
aI2
aI0
aa(lp4777
I0
aI3
aI3
aI0
aI0
aa(lp4778
I0
aI2
aI6
aI0
aI0
aa(lp4779
I1
aI3
aI2
aI0
aI0
aa(lp4780
I1
aI1
aI2
aI0
aI0
aa(lp4781
I0
aI1
aI0
aI2
aI0
aa(lp4782
I0
aI1
aI1
aI1
aI0
aa(lp4783
I0
aI2
aI0
aI0
aI0
aa(lp4784
I0
aI0
aI1
aI1
aI0
aa(lp4785
I1
aI0
aI1
aI0
aI0
aa(lp4786
I0
aI4
aI3
aI0
aI0
aa(lp4787
I0
aI0
aI0
aI0
aI0
aa(lp4788
I0
aI1
aI1
aI1
aI0
aa(lp4789
I0
aI0
aI0
aI2
aI1
aa(lp4790
I0
aI1
aI1
aI1
aI0
aa(lp4791
I0
aI2
aI1
aI1
aI0
aa(lp4792
I0
aI2
aI2
aI0
aI0
aa(lp4793
I2
aI2
aI1
aI1
aI0
aa(lp4794
I0
aI4
aI0
aI1
aI0
aa(lp4795
I0
aI0
aI0
aI1
aI0
aa(lp4796
I0
aI3
aI4
aI1
aI0
aa(lp4797
I0
aI1
aI1
aI2
aI0
aa(lp4798
I1
aI1
aI1
aI0
aI0
aa(lp4799
I0
aI1
aI2
aI0
aI0
aa(lp4800
I1
aI1
aI2
aI1
aI0
aa(lp4801
I0
aI0
aI0
aI0
aI0
aa(lp4802
I0
aI1
aI2
aI0
aI0
aa(lp4803
I1
aI0
aI1
aI0
aI0
aa(lp4804
I0
aI2
aI1
aI1
aI0
aa(lp4805
I0
aI3
aI2
aI1
aI0
aa(lp4806
I0
aI2
aI1
aI0
aI0
aa(lp4807
I0
aI2
aI2
aI1
aI0
aa(lp4808
I1
aI0
aI2
aI1
aI0
aa(lp4809
I0
aI0
aI1
aI0
aI0
aa(lp4810
I0
aI0
aI0
aI0
aI0
aa(lp4811
I0
aI1
aI4
aI0
aI0
aa(lp4812
I1
aI1
aI0
aI1
aI0
aa(lp4813
I2
aI3
aI1
aI1
aI0
aa(lp4814
I0
aI0
aI0
aI0
aI0
aa(lp4815
I0
aI3
aI2
aI0
aI0
aa(lp4816
I0
aI0
aI2
aI1
aI0
aa(lp4817
I0
aI0
aI1
aI1
aI0
aa(lp4818
I0
aI1
aI2
aI2
aI0
aa(lp4819
I1
aI1
aI3
aI0
aI0
aa(lp4820
I1
aI1
aI3
aI1
aI0
aa(lp4821
I0
aI0
aI2
aI1
aI0
aa(lp4822
I1
aI4
aI2
aI1
aI0
aa(lp4823
I0
aI1
aI1
aI0
aI0
aa(lp4824
I0
aI1
aI0
aI1
aI0
aa(lp4825
I0
aI4
aI0
aI1
aI0
aa(lp4826
I0
aI0
aI4
aI1
aI0
aa(lp4827
I0
aI0
aI3
aI1
aI0
aa(lp4828
I0
aI2
aI3
aI0
aI0
aa(lp4829
I1
aI0
aI1
aI1
aI0
aa(lp4830
I1
aI1
aI2
aI0
aI0
aa(lp4831
I0
aI2
aI2
aI0
aI0
aa(lp4832
I0
aI2
aI3
aI0
aI0
aa(lp4833
I0
aI3
aI2
aI1
aI0
aa(lp4834
I0
aI0
aI2
aI0
aI0
aa(lp4835
I0
aI2
aI0
aI0
aI0
aa(lp4836
I0
aI4
aI2
aI1
aI0
aa(lp4837
I1
aI0
aI7
aI2
aI0
aa(lp4838
I1
aI1
aI2
aI0
aI0
aa(lp4839
I0
aI1
aI1
aI0
aI0
aa(lp4840
I0
aI3
aI4
aI2
aI0
aa(lp4841
I0
aI1
aI3
aI1
aI0
aa(lp4842
I1
aI4
aI4
aI0
aI0
aa(lp4843
I2
aI2
aI4
aI0
aI1
aa(lp4844
I0
aI1
aI1
aI1
aI0
aa(lp4845
I0
aI1
aI1
aI0
aI0
aa(lp4846
I0
aI1
aI0
aI0
aI0
aa(lp4847
I0
aI3
aI5
aI1
aI0
aa(lp4848
I1
aI3
aI0
aI0
aI0
aa(lp4849
I1
aI1
aI2
aI0
aI0
aa(lp4850
I0
aI1
aI2
aI0
aI1
aa(lp4851
I0
aI2
aI0
aI1
aI0
aa(lp4852
I1
aI3
aI0
aI0
aI0
aa(lp4853
I0
aI1
aI6
aI3
aI1
aa(lp4854
I0
aI3
aI3
aI1
aI1
aa(lp4855
I0
aI2
aI4
aI0
aI0
aa(lp4856
I0
aI2
aI1
aI3
aI0
aa(lp4857
I2
aI2
aI4
aI2
aI0
aa(lp4858
I0
aI5
aI5
aI1
aI0
aa(lp4859
I0
aI1
aI4
aI0
aI0
aa(lp4860
I2
aI5
aI2
aI2
aI0
aa(lp4861
I1
aI2
aI2
aI1
aI0
aa(lp4862
I1
aI4
aI4
aI1
aI0
aa(lp4863
I2
aI9
aI2
aI2
aI2
aa(lp4864
I0
aI4
aI7
aI0
aI0
aa(lp4865
I3
aI4
aI0
aI2
aI0
aa(lp4866
I1
aI3
aI0
aI1
aI0
aa(lp4867
I0
aI2
aI1
aI0
aI0
aa(lp4868
I0
aI3
aI1
aI1
aI0
aa(lp4869
I1
aI5
aI6
aI4
aI0
aa(lp4870
I0
aI3
aI3
aI0
aI0
aa(lp4871
I0
aI4
aI5
aI2
aI0
aa(lp4872
I0
aI3
aI3
aI0
aI0
aa(lp4873
I1
aI5
aI1
aI3
aI1
aa(lp4874
I2
aI7
aI2
aI1
aI0
aa(lp4875
I0
aI3
aI3
aI1
aI0
aa(lp4876
I0
aI3
aI4
aI1
aI0
aa(lp4877
I0
aI4
aI2
aI1
aI1
aa(lp4878
I0
aI1
aI1
aI1
aI0
aa(lp4879
I3
aI2
aI2
aI2
aI0
aa(lp4880
I2
aI2
aI3
aI3
aI1
aa(lp4881
I0
aI3
aI0
aI2
aI0
aa(lp4882
I2
aI7
aI7
aI1
aI0
aa(lp4883
I1
aI2
aI2
aI0
aI0
aa(lp4884
I1
aI4
aI9
aI2
aI0
aa(lp4885
I0
aI4
aI3
aI2
aI0
aa(lp4886
I2
aI2
aI2
aI3
aI0
aa(lp4887
I2
aI2
aI4
aI2
aI0
aa(lp4888
I3
aI2
aI2
aI1
aI0
aa(lp4889
I2
aI2
aI1
aI0
aI0
aa(lp4890
I2
aI4
aI6
aI1
aI0
aa(lp4891
I1
aI1
aI3
aI0
aI0
aa(lp4892
I0
aI3
aI5
aI2
aI1
aa(lp4893
I1
aI0
aI1
aI3
aI0
aa(lp4894
I2
aI6
aI2
aI1
aI0
aa(lp4895
I1
aI2
aI4
aI5
aI0
aa(lp4896
I0
aI6
aI5
aI3
aI0
aa(lp4897
I1
aI3
aI4
aI1
aI0
aa(lp4898
I1
aI3
aI5
aI1
aI0
aa(lp4899
I0
aI8
aI1
aI1
aI1
aa(lp4900
I0
aI6
aI2
aI0
aI1
aa(lp4901
I4
aI5
aI5
aI1
aI0
aa(lp4902
I3
aI5
aI5
aI5
aI0
aa(lp4903
I1
aI5
aI2
aI0
aI0
aa(lp4904
I0
aI5
aI4
aI0
aI0
aa(lp4905
I2
aI5
aI9
aI2
aI0
aa(lp4906
I1
aI4
aI1
aI2
aI0
aa(lp4907
I3
aI1
aI4
aI4
aI0
aa(lp4908
I1
aI4
aI1
aI2
aI0
aa(lp4909
I2
aI1
aI3
aI2
aI0
aa(lp4910
I1
aI4
aI3
aI2
aI0
aa(lp4911
I0
aI3
aI7
aI3
aI0
aa(lp4912
I2
aI5
aI1
aI3
aI0
aa(lp4913
I2
aI4
aI0
aI5
aI0
aa(lp4914
I0
aI6
aI1
aI1
aI0
aa(lp4915
I4
aI2
aI1
aI1
aI0
aa(lp4916
I0
aI4
aI6
aI1
aI0
aa(lp4917
I1
aI2
aI2
aI0
aI0
aa(lp4918
I2
aI2
aI2
aI0
aI0
aa(lp4919
I2
aI5
aI8
aI2
aI0
aa(lp4920
I1
aI1
aI6
aI1
aI0
aa(lp4921
I2
aI5
aI5
aI2
aI1
aa(lp4922
I3
aI2
aI5
aI1
aI0
aa(lp4923
I2
aI6
aI6
aI0
aI0
aa(lp4924
I3
aI7
aI1
aI2
aI0
aa(lp4925
I2
aI3
aI6
aI3
aI0
aa(lp4926
I2
aI2
aI1
aI1
aI0
aa(lp4927
I1
aI5
aI6
aI3
aI0
aa(lp4928
I0
aI11
aI4
aI5
aI2
aa(lp4929
I4
aI4
aI2
aI1
aI0
aa(lp4930
I2
aI1
aI2
aI1
aI1
aa(lp4931
I2
aI7
aI3
aI0
aI0
aa(lp4932
I1
aI6
aI4
aI4
aI1
aa(lp4933
I3
aI7
aI3
aI1
aI0
aa(lp4934
I1
aI3
aI3
aI2
aI0
aa(lp4935
I1
aI8
aI3
aI0
aI0
aa(lp4936
I2
aI1
aI0
aI2
aI0
aa(lp4937
I0
aI5
aI4
aI0
aI1
aa(lp4938
I3
aI8
aI5
aI4
aI0
aa(lp4939
I1
aI5
aI2
aI2
aI0
aa(lp4940
I0
aI2
aI4
aI1
aI0
aa(lp4941
I0
aI9
aI4
aI5
aI0
aa(lp4942
I1
aI4
aI0
aI1
aI0
aa(lp4943
I1
aI2
aI1
aI4
aI0
aa(lp4944
I1
aI10
aI4
aI0
aI0
aa(lp4945
I2
aI4
aI4
aI5
aI0
aa(lp4946
I0
aI5
aI4
aI4
aI0
aa(lp4947
I2
aI3
aI5
aI5
aI0
aa(lp4948
I0
aI11
aI1
aI1
aI0
aa(lp4949
I0
aI4
aI1
aI4
aI0
aa(lp4950
I1
aI3
aI1
aI2
aI0
aa(lp4951
I3
aI1
aI4
aI2
aI0
aa(lp4952
I2
aI3
aI7
aI1
aI1
aa(lp4953
I0
aI2
aI1
aI3
aI0
aa(lp4954
I2
aI2
aI6
aI2
aI0
aa(lp4955
I1
aI1
aI3
aI2
aI1
aa(lp4956
I1
aI5
aI2
aI2
aI0
aa(lp4957
I0
aI1
aI2
aI2
aI0
aa(lp4958
I1
aI3
aI3
aI1
aI0
aa(lp4959
I3
aI6
aI2
aI5
aI0
aa(lp4960
I1
aI10
aI3
aI4
aI0
aa(lp4961
I0
aI2
aI6
aI1
aI1
aa(lp4962
I0
aI7
aI2
aI2
aI0
aa(lp4963
I0
aI5
aI4
aI3
aI0
aa(lp4964
I0
aI3
aI5
aI2
aI1
aa(lp4965
I3
aI6
aI5
aI1
aI1
aa(lp4966
I1
aI6
aI3
aI6
aI0
aa(lp4967
I1
aI4
aI5
aI0
aI0
aa(lp4968
I2
aI5
aI5
aI8
aI1
aa(lp4969
I2
aI6
aI5
aI2
aI0
aa(lp4970
I2
aI4
aI3
aI0
aI0
aa(lp4971
I1
aI6
aI3
aI1
aI0
aa(lp4972
I1
aI4
aI4
aI3
aI1
aa(lp4973
I1
aI4
aI5
aI2
aI0
aa(lp4974
I1
aI4
aI5
aI2
aI0
aa(lp4975
I1
aI5
aI4
aI3
aI0
aa(lp4976
I1
aI2
aI3
aI5
aI0
aa(lp4977
I2
aI8
aI3
aI4
aI0
aa(lp4978
I2
aI2
aI0
aI1
aI0
aa(lp4979
I1
aI4
aI5
aI1
aI0
aa(lp4980
I3
aI10
aI6
aI2
aI0
aa(lp4981
I4
aI4
aI8
aI1
aI0
aa(lp4982
I1
aI0
aI4
aI1
aI0
aa(lp4983
I1
aI7
aI6
aI0
aI0
aa(lp4984
I0
aI8
aI2
aI1
aI0
aa(lp4985
I2
aI7
aI3
aI0
aI1
aa(lp4986
I2
aI5
aI2
aI3
aI0
aa(lp4987
I2
aI6
aI7
aI0
aI0
aa(lp4988
I0
aI5
aI1
aI2
aI0
aa(lp4989
I4
aI2
aI3
aI2
aI0
aa(lp4990
I1
aI6
aI4
aI2
aI0
aa(lp4991
I1
aI1
aI3
aI2
aI0
aa(lp4992
I0
aI6
aI1
aI2
aI0
aa(lp4993
I2
aI3
aI0
aI1
aI1
aa(lp4994
I0
aI6
aI2
aI1
aI0
aa(lp4995
I2
aI4
aI5
aI5
aI0
aa(lp4996
I1
aI5
aI2
aI3
aI1
aa(lp4997
I0
aI3
aI3
aI2
aI0
aa(lp4998
I1
aI5
aI2
aI1
aI1
aa(lp4999
I1
aI4
aI5
aI0
aI0
aa(lp5000
I1
aI5
aI2
aI5
aI0
aa(lp5001
I2
aI6
aI4
aI2
aI0
aa(lp5002
I1
aI8
aI3
aI2
aI1
aa(lp5003
I2
aI3
aI2
aI0
aI0
aa(lp5004
I0
aI1
aI4
aI0
aI0
aa(lp5005
I1
aI8
aI3
aI3
aI0
aa(lp5006
I2
aI2
aI0
aI3
aI0
aa(lp5007
I0
aI8
aI2
aI5
aI0
aa(lp5008
I1
aI8
aI3
aI2
aI2
aa(lp5009
I0
aI8
aI2
aI1
aI0
aa(lp5010
I0
aI11
aI3
aI0
aI0
aa(lp5011
I2
aI5
aI2
aI1
aI1
aa(lp5012
I2
aI2
aI5
aI4
aI0
aa(lp5013
I2
aI2
aI4
aI0
aI1
aa(lp5014
I1
aI1
aI5
aI0
aI0
aa(lp5015
I0
aI7
aI2
aI3
aI0
aa(lp5016
I0
aI1
aI5
aI1
aI0
aa(lp5017
I1
aI5
aI4
aI2
aI0
aa(lp5018
I1
aI0
aI2
aI2
aI0
aa(lp5019
I0
aI5
aI2
aI1
aI0
aa(lp5020
I0
aI1
aI2
aI0
aI0
aa(lp5021
I2
aI6
aI3
aI3
aI0
aa(lp5022
I0
aI3
aI2
aI2
aI1
aa(lp5023
I1
aI3
aI2
aI0
aI2
aa(lp5024
I0
aI4
aI5
aI0
aI1
aa(lp5025
I0
aI3
aI4
aI2
aI0
aa(lp5026
I0
aI4
aI5
aI1
aI1
aa(lp5027
I1
aI2
aI4
aI0
aI1
aa(lp5028
I0
aI6
aI5
aI2
aI0
aa(lp5029
I1
aI6
aI4
aI0
aI0
aa(lp5030
I1
aI3
aI7
aI0
aI0
aa(lp5031
I0
aI7
aI3
aI4
aI0
aa(lp5032
I1
aI7
aI2
aI5
aI0
aa(lp5033
I2
aI5
aI4
aI0
aI0
aa(lp5034
I1
aI4
aI3
aI1
aI0
aa(lp5035
I1
aI4
aI5
aI3
aI0
aa(lp5036
I0
aI3
aI5
aI1
aI0
aa(lp5037
I2
aI5
aI6
aI0
aI0
aa(lp5038
I0
aI6
aI3
aI3
aI1
aa(lp5039
I0
aI3
aI2
aI2
aI0
aa(lp5040
I0
aI5
aI4
aI1
aI0
aa(lp5041
I0
aI2
aI1
aI0
aI0
aa(lp5042
I0
aI3
aI5
aI3
aI0
aa(lp5043
I2
aI5
aI2
aI3
aI0
aa(lp5044
I0
aI2
aI4
aI0
aI0
aa(lp5045
I0
aI1
aI6
aI1
aI0
aa(lp5046
I1
aI4
aI2
aI2
aI0
aa(lp5047
I2
aI7
aI0
aI2
aI0
aa(lp5048
I1
aI4
aI0
aI4
aI0
aa(lp5049
I0
aI4
aI5
aI0
aI0
aa(lp5050
I0
aI4
aI3
aI0
aI0
aa(lp5051
I1
aI2
aI2
aI0
aI0
aa(lp5052
I0
aI3
aI4
aI0
aI0
aa(lp5053
I0
aI2
aI3
aI1
aI0
aa(lp5054
I0
aI1
aI4
aI2
aI1
aa(lp5055
I0
aI4
aI2
aI1
aI0
aa(lp5056
I0
aI2
aI1
aI2
aI0
aa(lp5057
I2
aI5
aI3
aI1
aI0
aa(lp5058
I0
aI1
aI1
aI0
aI0
aa(lp5059
I0
aI1
aI3
aI1
aI0
aa(lp5060
I0
aI5
aI3
aI0
aI0
aa(lp5061
I0
aI2
aI3
aI2
aI1
aa(lp5062
I1
aI1
aI1
aI3
aI0
aa(lp5063
I1
aI2
aI0
aI2
aI0
aa(lp5064
I1
aI4
aI2
aI1
aI0
aa(lp5065
I0
aI2
aI3
aI0
aI0
aa(lp5066
I1
aI4
aI0
aI1
aI0
aa(lp5067
I0
aI4
aI2
aI2
aI0
aa(lp5068
I0
aI2
aI0
aI1
aI0
aa(lp5069
I0
aI1
aI0
aI2
aI0
aa(lp5070
I2
aI1
aI0
aI1
aI0
aa(lp5071
I1
aI0
aI1
aI0
aI0
aa(lp5072
I0
aI1
aI3
aI0
aI0
aa(lp5073
I0
aI2
aI5
aI0
aI0
aa(lp5074
I0
aI1
aI5
aI1
aI0
aa(lp5075
I0
aI0
aI1
aI0
aI0
aa(lp5076
I0
aI0
aI1
aI0
aI0
aa(lp5077
I0
aI3
aI2
aI1
aI0
aa(lp5078
I0
aI1
aI3
aI2
aI0
aa(lp5079
I1
aI2
aI0
aI1
aI0
aa(lp5080
I1
aI0
aI0
aI0
aI0
aa(lp5081
I0
aI3
aI4
aI1
aI0
aa(lp5082
I0
aI1
aI0
aI0
aI0
aa(lp5083
I0
aI0
aI3
aI0
aI0
aa(lp5084
I0
aI1
aI3
aI0
aI0
aa(lp5085
I0
aI2
aI1
aI1
aI0
aa(lp5086
I0
aI1
aI0
aI0
aI0
aa(lp5087
I2
aI3
aI1
aI0
aI0
aa(lp5088
I0
aI0
aI2
aI0
aI0
aa(lp5089
I0
aI1
aI0
aI2
aI0
aa(lp5090
I0
aI0
aI0
aI0
aI0
aa(lp5091
I0
aI1
aI1
aI4
aI0
aa(lp5092
I0
aI2
aI2
aI2
aI0
aa(lp5093
I0
aI1
aI1
aI1
aI0
aa(lp5094
I0
aI3
aI1
aI2
aI0
aa(lp5095
I0
aI2
aI1
aI1
aI1
aa(lp5096
I1
aI3
aI1
aI1
aI0
aa(lp5097
I1
aI1
aI0
aI0
aI0
aa(lp5098
I0
aI3
aI1
aI2
aI0
aa(lp5099
I0
aI2
aI3
aI0
aI0
aa(lp5100
I0
aI0
aI1
aI1
aI0
aa(lp5101
I2
aI2
aI2
aI0
aI0
aa(lp5102
I0
aI0
aI2
aI0
aI0
aa(lp5103
I0
aI0
aI1
aI0
aI0
aa(lp5104
I0
aI1
aI0
aI0
aI0
aa(lp5105
I0
aI2
aI1
aI0
aI0
aa(lp5106
I0
aI0
aI1
aI2
aI0
aa(lp5107
I0
aI2
aI1
aI0
aI0
aa(lp5108
I0
aI3
aI0
aI0
aI0
aa(lp5109
I0
aI1
aI0
aI0
aI0
aa(lp5110
I0
aI1
aI2
aI0
aI0
aa(lp5111
I0
aI2
aI3
aI1
aI0
aa(lp5112
I0
aI1
aI3
aI1
aI0
aa(lp5113
I0
aI3
aI0
aI1
aI0
aa(lp5114
I0
aI1
aI0
aI0
aI0
aa(lp5115
I0
aI1
aI2
aI0
aI0
aa(lp5116
I0
aI3
aI1
aI2
aI0
aa(lp5117
I0
aI0
aI1
aI0
aI0
aa(lp5118
I0
aI2
aI0
aI1
aI0
aa(lp5119
I0
aI2
aI1
aI0
aI0
aa(lp5120
I1
aI2
aI3
aI0
aI0
aa(lp5121
I0
aI4
aI1
aI1
aI0
aa(lp5122
I1
aI1
aI0
aI0
aI0
aa(lp5123
I0
aI3
aI3
aI0
aI0
aa(lp5124
I0
aI0
aI0
aI0
aI0
aa(lp5125
I0
aI0
aI0
aI0
aI0
aa(lp5126
I0
aI0
aI3
aI1
aI0
aa(lp5127
I0
aI2
aI1
aI2
aI0
aa(lp5128
I0
aI3
aI1
aI2
aI0
aa(lp5129
I0
aI0
aI2
aI0
aI0
aa(lp5130
I0
aI1
aI0
aI3
aI0
aa(lp5131
I0
aI1
aI1
aI0
aI0
aa(lp5132
I0
aI0
aI0
aI0
aI0
aa(lp5133
I0
aI0
aI0
aI2
aI0
aa(lp5134
I1
aI2
aI2
aI2
aI0
aa(lp5135
I0
aI0
aI1
aI1
aI0
aa(lp5136
I0
aI0
aI3
aI0
aI0
aa(lp5137
I0
aI2
aI1
aI0
aI1
aa(lp5138
I0
aI0
aI1
aI1
aI0
aa(lp5139
I0
aI0
aI0
aI0
aI0
aa(lp5140
I0
aI2
aI1
aI0
aI0
aa(lp5141
I0
aI0
aI1
aI1
aI0
aa(lp5142
I0
aI0
aI2
aI1
aI0
aa(lp5143
I0
aI1
aI0
aI0
aI0
aa(lp5144
I0
aI1
aI0
aI0
aI0
aa(lp5145
I0
aI1
aI0
aI0
aI0
aa(lp5146
I1
aI3
aI0
aI1
aI0
aa(lp5147
I0
aI1
aI3
aI0
aI0
aa(lp5148
I0
aI0
aI1
aI3
aI0
aa(lp5149
I0
aI1
aI2
aI1
aI0
aa(lp5150
I0
aI0
aI0
aI1
aI0
aa(lp5151
I0
aI2
aI2
aI0
aI0
aa(lp5152
I0
aI1
aI2
aI0
aI1
aa(lp5153
I0
aI3
aI1
aI1
aI0
aa(lp5154
I1
aI0
aI1
aI1
aI0
aa(lp5155
I2
aI0
aI0
aI3
aI0
aa(lp5156
I1
aI0
aI3
aI1
aI0
aa(lp5157
I0
aI2
aI0
aI0
aI0
aa(lp5158
I0
aI2
aI2
aI0
aI0
aa(lp5159
I1
aI2
aI2
aI2
aI0
aa(lp5160
I0
aI0
aI1
aI1
aI0
aa(lp5161
I0
aI1
aI1
aI1
aI0
aa(lp5162
I0
aI0
aI1
aI1
aI0
aa(lp5163
I0
aI2
aI1
aI0
aI0
aa(lp5164
I0
aI3
aI2
aI1
aI0
aa(lp5165
I0
aI1
aI0
aI3
aI0
aa(lp5166
I0
aI2
aI2
aI0
aI0
aa(lp5167
I0
aI0
aI0
aI0
aI0
aa(lp5168
I1
aI0
aI2
aI0
aI0
aa(lp5169
I1
aI1
aI2
aI1
aI0
aa(lp5170
I1
aI4
aI5
aI0
aI0
aa(lp5171
I1
aI0
aI1
aI1
aI0
aa(lp5172
I0
aI2
aI2
aI2
aI0
aa(lp5173
I0
aI0
aI2
aI0
aI0
aa(lp5174
I0
aI2
aI1
aI0
aI0
aa(lp5175
I0
aI0
aI0
aI0
aI0
aa(lp5176
I0
aI0
aI3
aI0
aI0
aa(lp5177
I0
aI0
aI0
aI1
aI0
aa(lp5178
I0
aI4
aI0
aI0
aI0
aa(lp5179
I0
aI1
aI1
aI1
aI0
aa(lp5180
I0
aI2
aI2
aI2
aI0
aa(lp5181
I0
aI1
aI2
aI1
aI0
aa(lp5182
I0
aI2
aI2
aI1
aI0
aa(lp5183
I0
aI2
aI0
aI0
aI0
aa(lp5184
I1
aI3
aI1
aI1
aI0
aa(lp5185
I0
aI2
aI1
aI1
aI0
aa(lp5186
I2
aI3
aI3
aI2
aI0
aa(lp5187
I0
aI0
aI1
aI0
aI0
aa(lp5188
I0
aI4
aI2
aI0
aI0
aa(lp5189
I0
aI2
aI1
aI1
aI0
aa(lp5190
I0
aI2
aI3
aI0
aI0
aa(lp5191
I0
aI4
aI2
aI3
aI1
aa(lp5192
I0
aI1
aI1
aI3
aI0
aa(lp5193
I1
aI2
aI1
aI1
aI0
aa(lp5194
I1
aI5
aI0
aI2
aI0
aa(lp5195
I0
aI0
aI4
aI2
aI0
aa(lp5196
I0
aI2
aI2
aI1
aI0
aa(lp5197
I1
aI2
aI5
aI0
aI0
aa(lp5198
I1
aI2
aI1
aI0
aI0
aa(lp5199
I0
aI0
aI5
aI2
aI0
aa(lp5200
I0
aI3
aI1
aI1
aI0
aa(lp5201
I0
aI2
aI2
aI3
aI0
aa(lp5202
I0
aI1
aI1
aI0
aI0
aa(lp5203
I1
aI2
aI2
aI2
aI0
aa(lp5204
I2
aI3
aI2
aI1
aI0
aa(lp5205
I1
aI0
aI5
aI0
aI0
aa(lp5206
I1
aI4
aI0
aI1
aI0
aa(lp5207
I1
aI5
aI2
aI2
aI0
aa(lp5208
I0
aI0
aI2
aI2
aI0
aa(lp5209
I1
aI0
aI2
aI1
aI0
aa(lp5210
I0
aI1
aI3
aI2
aI0
aa(lp5211
I0
aI2
aI3
aI0
aI0
aa(lp5212
I0
aI0
aI0
aI0
aI0
aa(lp5213
I1
aI0
aI2
aI3
aI0
aa(lp5214
I0
aI1
aI1
aI0
aI0
aa(lp5215
I0
aI2
aI3
aI0
aI0
aa(lp5216
I0
aI1
aI2
aI0
aI0
aa(lp5217
I1
aI0
aI2
aI1
aI0
aa(lp5218
I0
aI0
aI3
aI1
aI0
aa(lp5219
I1
aI1
aI3
aI2
aI0
aa(lp5220
I2
aI3
aI2
aI1
aI0
aa(lp5221
I1
aI4
aI6
aI1
aI0
aa(lp5222
I0
aI3
aI0
aI0
aI0
aa(lp5223
I1
aI1
aI4
aI0
aI0
aa(lp5224
I0
aI4
aI1
aI0
aI0
aa(lp5225
I0
aI1
aI1
aI0
aI0
aa(lp5226
I1
aI4
aI2
aI1
aI0
aa(lp5227
I2
aI2
aI1
aI1
aI0
aa(lp5228
I0
aI1
aI2
aI2
aI0
aa(lp5229
I2
aI6
aI4
aI4
aI0
aa(lp5230
I0
aI6
aI3
aI0
aI0
aa(lp5231
I0
aI9
aI4
aI0
aI0
aa(lp5232
I0
aI6
aI4
aI2
aI0
aa(lp5233
I1
aI5
aI4
aI2
aI0
aa(lp5234
I0
aI4
aI4
aI0
aI0
aa(lp5235
I1
aI1
aI0
aI2
aI0
aa(lp5236
I3
aI3
aI5
aI2
aI1
aa(lp5237
I0
aI6
aI0
aI0
aI0
aa(lp5238
I1
aI4
aI3
aI1
aI0
aa(lp5239
I0
aI1
aI2
aI0
aI0
aa(lp5240
I1
aI4
aI4
aI3
aI0
aa(lp5241
I0
aI4
aI3
aI1
aI0
aa(lp5242
I1
aI4
aI3
aI1
aI0
aa(lp5243
I0
aI7
aI6
aI1
aI0
aa(lp5244
I1
aI7
aI1
aI1
aI0
aa(lp5245
I0
aI5
aI3
aI0
aI1
aa(lp5246
I0
aI1
aI1
aI4
aI0
aa(lp5247
I2
aI3
aI1
aI2
aI0
aa(lp5248
I2
aI1
aI4
aI1
aI0
aa(lp5249
I0
aI9
aI5
aI4
aI0
aa(lp5250
I0
aI3
aI1
aI0
aI0
aa(lp5251
I0
aI1
aI0
aI2
aI0
aa(lp5252
I1
aI5
aI1
aI1
aI0
aa(lp5253
I1
aI3
aI3
aI5
aI0
aa(lp5254
I3
aI3
aI5
aI0
aI0
aa(lp5255
I1
aI3
aI4
aI2
aI1
aa(lp5256
I1
aI5
aI4
aI1
aI1
aa(lp5257
I0
aI5
aI0
aI1
aI0
aa(lp5258
I0
aI0
aI2
aI3
aI0
aa(lp5259
I1
aI4
aI1
aI2
aI0
aa(lp5260
I0
aI4
aI3
aI0
aI0
aa(lp5261
I0
aI2
aI1
aI3
aI0
aa(lp5262
I1
aI4
aI1
aI0
aI0
aa(lp5263
I3
aI2
aI2
aI1
aI0
aa(lp5264
I3
aI0
aI5
aI2
aI1
aa(lp5265
I2
aI2
aI3
aI1
aI1
aa(lp5266
I2
aI4
aI4
aI4
aI0
aa(lp5267
I1
aI1
aI2
aI0
aI0
aa(lp5268
I0
aI6
aI2
aI2
aI0
aa(lp5269
I0
aI6
aI7
aI0
aI0
aa(lp5270
I1
aI2
aI1
aI1
aI0
aa(lp5271
I1
aI6
aI3
aI2
aI0
aa(lp5272
I3
aI8
aI4
aI2
aI0
aa(lp5273
I1
aI3
aI1
aI1
aI0
aa(lp5274
I1
aI2
aI1
aI3
aI0
aa(lp5275
I0
aI4
aI8
aI0
aI0
aa(lp5276
I1
aI4
aI4
aI3
aI0
aa(lp5277
I0
aI7
aI0
aI1
aI0
aa(lp5278
I0
aI5
aI1
aI0
aI3
aa(lp5279
I2
aI2
aI0
aI2
aI0
aa(lp5280
I1
aI4
aI4
aI4
aI0
aa(lp5281
I0
aI5
aI2
aI3
aI0
aa(lp5282
I4
aI7
aI6
aI0
aI0
aa(lp5283
I0
aI7
aI3
aI2
aI1
aa(lp5284
I1
aI2
aI4
aI1
aI0
aa(lp5285
I1
aI0
aI4
aI1
aI0
aa(lp5286
I0
aI3
aI1
aI2
aI0
aa(lp5287
I2
aI3
aI5
aI3
aI0
aa(lp5288
I0
aI2
aI1
aI1
aI0
aa(lp5289
I1
aI3
aI5
aI2
aI0
aa(lp5290
I3
aI5
aI3
aI3
aI1
aa(lp5291
I0
aI4
aI8
aI5
aI0
aa(lp5292
I2
aI4
aI1
aI0
aI0
aa(lp5293
I1
aI6
aI1
aI1
aI0
aa(lp5294
I1
aI6
aI3
aI2
aI0
aa(lp5295
I3
aI7
aI6
aI2
aI0
aa(lp5296
I3
aI2
aI2
aI4
aI1
aa(lp5297
I1
aI6
aI3
aI2
aI0
aa(lp5298
I1
aI3
aI2
aI8
aI1
aa(lp5299
I1
aI6
aI4
aI5
aI0
aa(lp5300
I0
aI3
aI1
aI2
aI0
aa(lp5301
I2
aI1
aI4
aI2
aI0
aa(lp5302
I1
aI3
aI1
aI3
aI0
aa(lp5303
I2
aI6
aI4
aI5
aI0
aa(lp5304
I0
aI2
aI6
aI6
aI0
aa(lp5305
I1
aI4
aI4
aI4
aI0
aa(lp5306
I3
aI3
aI4
aI0
aI1
aa(lp5307
I2
aI5
aI2
aI6
aI0
aa(lp5308
I3
aI8
aI3
aI3
aI1
aa(lp5309
I1
aI2
aI4
aI5
aI0
aa(lp5310
I2
aI12
aI1
aI5
aI0
aa(lp5311
I0
aI7
aI4
aI1
aI0
aa(lp5312
I2
aI12
aI1
aI5
aI0
aa(lp5313
I1
aI3
aI5
aI0
aI1
aa(lp5314
I1
aI2
aI1
aI2
aI0
aa(lp5315
I2
aI4
aI0
aI0
aI1
aa(lp5316
I1
aI1
aI4
aI4
aI0
aa(lp5317
I0
aI6
aI1
aI3
aI0
aa(lp5318
I1
aI6
aI3
aI0
aI0
aa(lp5319
I1
aI6
aI7
aI3
aI0
aa(lp5320
I1
aI4
aI4
aI0
aI0
aa(lp5321
I2
aI6
aI2
aI2
aI0
aa(lp5322
I0
aI6
aI2
aI3
aI0
aa(lp5323
I2
aI9
aI6
aI4
aI1
aa(lp5324
I1
aI5
aI3
aI3
aI0
aa(lp5325
I1
aI3
aI3
aI5
aI0
aa(lp5326
I1
aI5
aI3
aI1
aI0
aa(lp5327
I0
aI4
aI2
aI6
aI0
aa(lp5328
I1
aI3
aI0
aI1
aI0
aa(lp5329
I3
aI4
aI7
aI4
aI0
aa(lp5330
I4
aI7
aI2
aI5
aI0
aa(lp5331
I1
aI6
aI3
aI2
aI0
aa(lp5332
I1
aI5
aI6
aI1
aI0
aa(lp5333
I0
aI6
aI1
aI1
aI2
aa(lp5334
I2
aI6
aI4
aI2
aI0
aa(lp5335
I0
aI3
aI0
aI1
aI0
aa(lp5336
I2
aI10
aI2
aI3
aI0
aa(lp5337
I1
aI4
aI4
aI6
aI0
aa(lp5338
I2
aI8
aI1
aI1
aI0
aa(lp5339
I1
aI8
aI3
aI0
aI0
aa(lp5340
I4
aI1
aI5
aI2
aI0
aa(lp5341
I1
aI6
aI5
aI0
aI0
aa(lp5342
I0
aI5
aI3
aI4
aI0
aa(lp5343
I1
aI8
aI7
aI5
aI0
aa(lp5344
I3
aI9
aI1
aI5
aI0
aa(lp5345
I1
aI7
aI3
aI0
aI1
aa(lp5346
I2
aI4
aI2
aI3
aI0
aa(lp5347
I0
aI3
aI4
aI1
aI1
aa(lp5348
I1
aI4
aI3
aI6
aI0
aa(lp5349
I3
aI5
aI2
aI0
aI0
aa(lp5350
I1
aI7
aI4
aI2
aI0
aa(lp5351
I2
aI13
aI4
aI2
aI0
aa(lp5352
I0
aI10
aI2
aI1
aI0
aa(lp5353
I1
aI6
aI6
aI2
aI1
aa(lp5354
I2
aI6
aI4
aI2
aI0
aa(lp5355
I0
aI5
aI2
aI3
aI0
aa(lp5356
I0
aI4
aI5
aI2
aI1
aa(lp5357
I0
aI5
aI4
aI1
aI0
aa(lp5358
I1
aI2
aI5
aI2
aI1
aa(lp5359
I1
aI4
aI4
aI1
aI1
aa(lp5360
I1
aI4
aI4
aI1
aI1
aa(lp5361
I1
aI7
aI4
aI3
aI0
aa(lp5362
I5
aI4
aI2
aI8
aI0
aa(lp5363
I1
aI6
aI5
aI3
aI0
aa(lp5364
I1
aI5
aI2
aI0
aI1
aa(lp5365
I0
aI8
aI3
aI1
aI0
aa(lp5366
I1
aI3
aI3
aI1
aI0
aa(lp5367
I3
aI4
aI3
aI3
aI0
aa(lp5368
I0
aI1
aI1
aI1
aI2
aa(lp5369
I0
aI2
aI2
aI0
aI0
aa(lp5370
I1
aI4
aI2
aI6
aI0
aa(lp5371
I1
aI4
aI2
aI0
aI0
aa(lp5372
I1
aI3
aI7
aI0
aI0
aa(lp5373
I0
aI3
aI3
aI1
aI0
aa(lp5374
I0
aI2
aI4
aI1
aI0
aa(lp5375
I1
aI7
aI0
aI3
aI1
aa(lp5376
I2
aI3
aI2
aI1
aI0
aa(lp5377
I0
aI3
aI3
aI3
aI0
aa(lp5378
I1
aI1
aI2
aI1
aI0
aa(lp5379
I0
aI4
aI3
aI3
aI0
aa(lp5380
I0
aI5
aI1
aI1
aI0
aa(lp5381
I1
aI3
aI2
aI1
aI0
aa(lp5382
I2
aI6
aI3
aI1
aI1
aa(lp5383
I2
aI3
aI2
aI2
aI0
aa(lp5384
I1
aI3
aI2
aI1
aI0
aa(lp5385
I1
aI2
aI4
aI2
aI0
aa(lp5386
I1
aI6
aI0
aI4
aI0
aa(lp5387
I1
aI5
aI5
aI0
aI0
aa(lp5388
I1
aI7
aI5
aI0
aI1
aa(lp5389
I0
aI1
aI3
aI0
aI0
aa(lp5390
I0
aI2
aI4
aI1
aI1
aa(lp5391
I0
aI5
aI2
aI2
aI0
aa(lp5392
I2
aI1
aI2
aI0
aI0
aa(lp5393
I3
aI7
aI1
aI2
aI1
aa(lp5394
I0
aI2
aI4
aI3
aI0
aa(lp5395
I0
aI6
aI4
aI0
aI0
aa(lp5396
I1
aI4
aI1
aI5
aI1
aa(lp5397
I0
aI0
aI2
aI3
aI0
aa(lp5398
I2
aI1
aI1
aI2
aI0
aa(lp5399
I0
aI1
aI0
aI2
aI0
aa(lp5400
I1
aI3
aI2
aI1
aI0
aa(lp5401
I0
aI1
aI4
aI2
aI0
aa(lp5402
I0
aI6
aI0
aI2
aI0
aa(lp5403
I0
aI6
aI2
aI0
aI0
aa(lp5404
I1
aI3
aI1
aI1
aI0
aa(lp5405
I0
aI0
aI2
aI1
aI0
aa(lp5406
I2
aI1
aI6
aI0
aI0
aa(lp5407
I1
aI5
aI4
aI2
aI0
aa(lp5408
I2
aI5
aI2
aI4
aI1
aa(lp5409
I1
aI6
aI2
aI2
aI0
aa(lp5410
I1
aI4
aI0
aI3
aI0
aa(lp5411
I1
aI1
aI7
aI3
aI0
aa(lp5412
I1
aI2
aI2
aI0
aI1
aa(lp5413
I0
aI4
aI5
aI2
aI0
aa(lp5414
I0
aI6
aI1
aI1
aI0
aa(lp5415
I2
aI2
aI3
aI0
aI0
aa(lp5416
I2
aI4
aI4
aI3
aI0
aa(lp5417
I1
aI4
aI2
aI1
aI0
aa(lp5418
I0
aI3
aI5
aI1
aI0
aa(lp5419
I0
aI1
aI0
aI2
aI0
aa(lp5420
I0
aI3
aI3
aI1
aI0
aa(lp5421
I0
aI6
aI1
aI3
aI0
aa(lp5422
I1
aI2
aI5
aI3
aI0
aa(lp5423
I0
aI2
aI0
aI2
aI0
aa(lp5424
I1
aI3
aI2
aI1
aI0
aa(lp5425
I1
aI3
aI3
aI2
aI1
aa(lp5426
I0
aI2
aI2
aI2
aI0
aa(lp5427
I1
aI5
aI5
aI3
aI0
aa(lp5428
I0
aI1
aI6
aI3
aI0
aa(lp5429
I2
aI2
aI0
aI0
aI0
aa(lp5430
I0
aI3
aI3
aI2
aI0
aa(lp5431
I0
aI5
aI1
aI0
aI0
aa(lp5432
I1
aI3
aI1
aI0
aI0
aa(lp5433
I0
aI4
aI2
aI0
aI0
aa(lp5434
I0
aI3
aI1
aI3
aI0
aa(lp5435
I0
aI1
aI3
aI2
aI0
aa(lp5436
I0
aI3
aI4
aI1
aI0
aa(lp5437
I1
aI5
aI1
aI2
aI0
aa(lp5438
I0
aI3
aI3
aI4
aI0
aa(lp5439
I0
aI1
aI3
aI3
aI1
aa(lp5440
I1
aI4
aI4
aI3
aI0
aa(lp5441
I0
aI2
aI5
aI0
aI0
aa(lp5442
I1
aI5
aI1
aI2
aI0
aa(lp5443
I1
aI7
aI4
aI3
aI0
aa(lp5444
I0
aI0
aI0
aI2
aI0
aa(lp5445
I0
aI2
aI0
aI0
aI0
aa(lp5446
I0
aI2
aI0
aI2
aI0
aa(lp5447
I0
aI0
aI0
aI3
aI0
aa(lp5448
I1
aI1
aI3
aI3
aI0
aa(lp5449
I0
aI2
aI1
aI1
aI0
aa(lp5450
I0
aI3
aI3
aI1
aI0
aa(lp5451
I1
aI0
aI2
aI1
aI0
aa(lp5452
I0
aI3
aI1
aI1
aI0
aa(lp5453
I0
aI2
aI1
aI0
aI0
aa(lp5454
I0
aI1
aI2
aI2
aI0
aa(lp5455
I0
aI2
aI2
aI0
aI0
aa(lp5456
I1
aI1
aI2
aI0
aI0
aa(lp5457
I1
aI1
aI0
aI0
aI0
aa(lp5458
I1
aI2
aI1
aI3
aI0
aa(lp5459
I0
aI1
aI3
aI0
aI0
aa(lp5460
I0
aI0
aI2
aI2
aI0
aa(lp5461
I2
aI4
aI0
aI0
aI0
aa(lp5462
I0
aI2
aI4
aI0
aI0
aa(lp5463
I0
aI3
aI2
aI2
aI0
aa(lp5464
I0
aI2
aI5
aI0
aI0
aa(lp5465
I0
aI1
aI4
aI1
aI0
aa(lp5466
I1
aI1
aI0
aI0
aI0
aa(lp5467
I1
aI2
aI3
aI0
aI0
aa(lp5468
I0
aI0
aI1
aI0
aI0
aa(lp5469
I0
aI0
aI0
aI0
aI0
aa(lp5470
I0
aI1
aI2
aI0
aI0
aa(lp5471
I2
aI0
aI1
aI0
aI0
aa(lp5472
I0
aI0
aI1
aI0
aI0
aa(lp5473
I0
aI0
aI0
aI0
aI0
aa(lp5474
I2
aI1
aI0
aI0
aI0
aa(lp5475
I0
aI1
aI0
aI0
aI0
aa(lp5476
I0
aI1
aI1
aI0
aI0
aa(lp5477
I0
aI1
aI0
aI0
aI0
aa(lp5478
I0
aI1
aI0
aI2
aI0
aa(lp5479
I0
aI0
aI1
aI1
aI0
aa.